

Microchip MPLAB XC8 Assembler V2.40 build 20220703182018 
                                                                                               Tue Nov 15 21:53:50 2022

Microchip MPLAB XC8 C Compiler v2.40 (Free license) build 20220703182018 Og1 
     1                           	processor	16F887
     2                           	pagewidth 120
     3                           	opt	flic
     4                           	psect	cinit,global,class=CODE,merge=1,delta=2
     5                           	psect	bssCOMMON,global,class=COMMON,space=1,delta=1,noexec
     6                           	psect	bssBANK0,global,class=BANK0,space=1,delta=1,noexec
     7                           	psect	bssBANK1,global,class=BANK1,space=1,delta=1,noexec
     8                           	psect	cstackCOMMON,global,class=COMMON,space=1,delta=1,noexec
     9                           	psect	cstackBANK0,global,class=BANK0,space=1,delta=1,noexec
    10                           	psect	maintext,global,class=CODE,split=1,delta=2
    11                           	psect	text1,local,class=CODE,merge=1,delta=2
    12                           	psect	text2,local,class=CODE,merge=1,delta=2
    13                           	psect	text3,local,class=CODE,merge=1,delta=2
    14                           	psect	text4,local,class=CODE,merge=1,delta=2
    15                           	psect	text5,local,class=CODE,merge=1,delta=2
    16                           	psect	text6,local,class=CODE,merge=1,delta=2
    17                           	psect	text7,local,class=CODE,merge=1,delta=2
    18                           	psect	text8,local,class=CODE,merge=1,delta=2
    19                           	psect	text9,local,class=CODE,merge=1,delta=2,group=1
    20                           	psect	text10,local,class=CODE,merge=1,delta=2,group=1
    21                           	psect	text11,local,class=CODE,merge=1,delta=2,group=1
    22                           	psect	text12,local,class=CODE,merge=1,delta=2,group=1
    23                           	psect	text13,local,class=CODE,merge=1,delta=2,group=1
    24                           	psect	text14,local,class=CODE,merge=1,delta=2
    25                           	psect	text15,local,class=CODE,merge=1,delta=2,group=1
    26                           	psect	text16,local,class=CODE,merge=1,delta=2,group=1
    27                           	psect	text17,local,class=CODE,merge=1,delta=2
    28                           	psect	intentry,global,class=CODE,delta=2
    29                           	psect	text18,local,class=CODE,merge=1,delta=2
    30                           	psect	text19,local,class=CODE,merge=1,delta=2
    31                           	psect	idloc,global,abs,ovrld,class=IDLOC,space=5,delta=2,noexec
    32                           	psect	config,global,abs,ovrld,class=CONFIG,space=4,delta=2,noexec
    33                           	dabs	1,0x7E,2
    34     0000                     
    35                           ; Version 2.40
    36                           ; Generated 17/11/2021 GMT
    37                           ; 
    38                           ; Copyright © 2021, Microchip Technology Inc. and its subsidiaries ("Microchip")
    39                           ; All rights reserved.
    40                           ; 
    41                           ; This software is developed by Microchip Technology Inc. and its subsidiaries ("Microch
      +                          ip").
    42                           ; 
    43                           ; Redistribution and use in source and binary forms, with or without modification, are
    44                           ; permitted provided that the following conditions are met:
    45                           ; 
    46                           ;     1. Redistributions of source code must retain the above copyright notice, this lis
      +                          t of
    47                           ;        conditions and the following disclaimer.
    48                           ; 
    49                           ;     2. Redistributions in binary form must reproduce the above copyright notice, this 
      +                          list
    50                           ;        of conditions and the following disclaimer in the documentation and/or other
    51                           ;        materials provided with the distribution. Publication is not required when
    52                           ;        this file is used in an embedded application.
    53                           ; 
    54                           ;     3. Microchip's name may not be used to endorse or promote products derived from th
      +                          is
    55                           ;        software without specific prior written permission.
    56                           ; 
    57                           ; THIS SOFTWARE IS PROVIDED BY MICROCHIP "AS IS" AND ANY EXPRESS OR IMPLIED WARRANTIES,
    58                           ; INCLUDING, BUT NOT LIMITED TO, THE IMPLIED WARRANTIES OF MERCHANTABILITY AND FITNESS F
      +                          OR
    59                           ; PURPOSE ARE DISCLAIMED.  IN NO EVENT SHALL MICROCHIP BE LIABLE FOR ANY DIRECT, INDIREC
      +                          T,
    60                           ; INCIDENTAL, SPECIAL, EXEMPLARY, OR CONSEQUENTIAL DAMAGES (INCLUDING BUT NOT LIMITED TO
    61                           ; PROCUREMENT OF SUBSTITUTE GOODS OR SERVICES; LOSS OF USE, DATA OR PROFITS; OR BUSINESS
    62                           ; INTERRUPTION) HOWSOEVER CAUSED AND ON ANY THEORY OF LIABILITY, WHETHER IN CONTRACT, ST
      +                          RICT
    63                           ; LIABILITY, OR TORT (INCLUDING NEGLIGENCE OR OTHERWISE) ARISING IN ANY WAY OUT OF THE U
      +                          SE OF
    64                           ; THIS SOFTWARE, EVEN IF ADVISED OF THE POSSIBILITY OF SUCH DAMAGE.
    65                           ; 
    66                           ; 
    67                           ; Code-generator required, PIC16F887 Definitions
    68                           ; 
    69                           ; SFR Addresses
    70     0000                     	;# 
    71     0001                     	;# 
    72     0002                     	;# 
    73     0003                     	;# 
    74     0004                     	;# 
    75     0005                     	;# 
    76     0006                     	;# 
    77     0007                     	;# 
    78     0008                     	;# 
    79     0009                     	;# 
    80     000A                     	;# 
    81     000B                     	;# 
    82     000C                     	;# 
    83     000D                     	;# 
    84     000E                     	;# 
    85     000E                     	;# 
    86     000F                     	;# 
    87     0010                     	;# 
    88     0011                     	;# 
    89     0012                     	;# 
    90     0013                     	;# 
    91     0014                     	;# 
    92     0015                     	;# 
    93     0015                     	;# 
    94     0016                     	;# 
    95     0017                     	;# 
    96     0018                     	;# 
    97     0019                     	;# 
    98     001A                     	;# 
    99     001B                     	;# 
   100     001B                     	;# 
   101     001C                     	;# 
   102     001D                     	;# 
   103     001E                     	;# 
   104     001F                     	;# 
   105     0081                     	;# 
   106     0085                     	;# 
   107     0086                     	;# 
   108     0087                     	;# 
   109     0088                     	;# 
   110     0089                     	;# 
   111     008C                     	;# 
   112     008D                     	;# 
   113     008E                     	;# 
   114     008F                     	;# 
   115     0090                     	;# 
   116     0091                     	;# 
   117     0092                     	;# 
   118     0093                     	;# 
   119     0093                     	;# 
   120     0093                     	;# 
   121     0094                     	;# 
   122     0095                     	;# 
   123     0096                     	;# 
   124     0097                     	;# 
   125     0098                     	;# 
   126     0099                     	;# 
   127     009A                     	;# 
   128     009B                     	;# 
   129     009C                     	;# 
   130     009D                     	;# 
   131     009E                     	;# 
   132     009F                     	;# 
   133     0105                     	;# 
   134     0107                     	;# 
   135     0108                     	;# 
   136     0109                     	;# 
   137     010C                     	;# 
   138     010C                     	;# 
   139     010D                     	;# 
   140     010E                     	;# 
   141     010F                     	;# 
   142     0185                     	;# 
   143     0187                     	;# 
   144     0188                     	;# 
   145     0189                     	;# 
   146     018C                     	;# 
   147     018D                     	;# 
   148     0000                     	;# 
   149     0001                     	;# 
   150     0002                     	;# 
   151     0003                     	;# 
   152     0004                     	;# 
   153     0005                     	;# 
   154     0006                     	;# 
   155     0007                     	;# 
   156     0008                     	;# 
   157     0009                     	;# 
   158     000A                     	;# 
   159     000B                     	;# 
   160     000C                     	;# 
   161     000D                     	;# 
   162     000E                     	;# 
   163     000E                     	;# 
   164     000F                     	;# 
   165     0010                     	;# 
   166     0011                     	;# 
   167     0012                     	;# 
   168     0013                     	;# 
   169     0014                     	;# 
   170     0015                     	;# 
   171     0015                     	;# 
   172     0016                     	;# 
   173     0017                     	;# 
   174     0018                     	;# 
   175     0019                     	;# 
   176     001A                     	;# 
   177     001B                     	;# 
   178     001B                     	;# 
   179     001C                     	;# 
   180     001D                     	;# 
   181     001E                     	;# 
   182     001F                     	;# 
   183     0081                     	;# 
   184     0085                     	;# 
   185     0086                     	;# 
   186     0087                     	;# 
   187     0088                     	;# 
   188     0089                     	;# 
   189     008C                     	;# 
   190     008D                     	;# 
   191     008E                     	;# 
   192     008F                     	;# 
   193     0090                     	;# 
   194     0091                     	;# 
   195     0092                     	;# 
   196     0093                     	;# 
   197     0093                     	;# 
   198     0093                     	;# 
   199     0094                     	;# 
   200     0095                     	;# 
   201     0096                     	;# 
   202     0097                     	;# 
   203     0098                     	;# 
   204     0099                     	;# 
   205     009A                     	;# 
   206     009B                     	;# 
   207     009C                     	;# 
   208     009D                     	;# 
   209     009E                     	;# 
   210     009F                     	;# 
   211     0105                     	;# 
   212     0107                     	;# 
   213     0108                     	;# 
   214     0109                     	;# 
   215     010C                     	;# 
   216     010C                     	;# 
   217     010D                     	;# 
   218     010E                     	;# 
   219     010F                     	;# 
   220     0185                     	;# 
   221     0187                     	;# 
   222     0188                     	;# 
   223     0189                     	;# 
   224     018C                     	;# 
   225     018D                     	;# 
   226     0000                     	;# 
   227     0001                     	;# 
   228     0002                     	;# 
   229     0003                     	;# 
   230     0004                     	;# 
   231     0005                     	;# 
   232     0006                     	;# 
   233     0007                     	;# 
   234     0008                     	;# 
   235     0009                     	;# 
   236     000A                     	;# 
   237     000B                     	;# 
   238     000C                     	;# 
   239     000D                     	;# 
   240     000E                     	;# 
   241     000E                     	;# 
   242     000F                     	;# 
   243     0010                     	;# 
   244     0011                     	;# 
   245     0012                     	;# 
   246     0013                     	;# 
   247     0014                     	;# 
   248     0015                     	;# 
   249     0015                     	;# 
   250     0016                     	;# 
   251     0017                     	;# 
   252     0018                     	;# 
   253     0019                     	;# 
   254     001A                     	;# 
   255     001B                     	;# 
   256     001B                     	;# 
   257     001C                     	;# 
   258     001D                     	;# 
   259     001E                     	;# 
   260     001F                     	;# 
   261     0081                     	;# 
   262     0085                     	;# 
   263     0086                     	;# 
   264     0087                     	;# 
   265     0088                     	;# 
   266     0089                     	;# 
   267     008C                     	;# 
   268     008D                     	;# 
   269     008E                     	;# 
   270     008F                     	;# 
   271     0090                     	;# 
   272     0091                     	;# 
   273     0092                     	;# 
   274     0093                     	;# 
   275     0093                     	;# 
   276     0093                     	;# 
   277     0094                     	;# 
   278     0095                     	;# 
   279     0096                     	;# 
   280     0097                     	;# 
   281     0098                     	;# 
   282     0099                     	;# 
   283     009A                     	;# 
   284     009B                     	;# 
   285     009C                     	;# 
   286     009D                     	;# 
   287     009E                     	;# 
   288     009F                     	;# 
   289     0105                     	;# 
   290     0107                     	;# 
   291     0108                     	;# 
   292     0109                     	;# 
   293     010C                     	;# 
   294     010C                     	;# 
   295     010D                     	;# 
   296     010E                     	;# 
   297     010F                     	;# 
   298     0185                     	;# 
   299     0187                     	;# 
   300     0188                     	;# 
   301     0189                     	;# 
   302     018C                     	;# 
   303     018D                     	;# 
   304     001E                     _ADRESH	set	30
   305     001B                     _CCPR2L	set	27
   306     001D                     _CCP2CONbits	set	29
   307     0012                     _T2CONbits	set	18
   308     0015                     _CCPR1L	set	21
   309     0017                     _CCP1CONbits	set	23
   310     0017                     _CCP1CON	set	23
   311     001F                     _ADCON0bits	set	31
   312     000C                     _PIR1bits	set	12
   313     0007                     _PORTC	set	7
   314     0005                     _PORTA	set	5
   315     0008                     _PORTD	set	8
   316     0006                     _PORTBbits	set	6
   317     0007                     _PORTCbits	set	7
   318     0001                     _TMR0	set	1
   319     000B                     _INTCONbits	set	11
   320     005F                     _GIE	set	95
   321     0066                     _ADIF	set	102
   322     0092                     _TMR2ON	set	146
   323     0061                     _TMR2IF	set	97
   324     008F                     _OSCCONbits	set	143
   325     009E                     _ADRESL	set	158
   326     0092                     _PR2	set	146
   327     0087                     _TRISCbits	set	135
   328     009F                     _ADCON1bits	set	159
   329     0085                     _TRISAbits	set	133
   330     0081                     _OPTION_REGbits	set	129
   331     0095                     _WPUB	set	149
   332     0096                     _IOCB	set	150
   333     008C                     _PIE1bits	set	140
   334     0087                     _TRISC	set	135
   335     0088                     _TRISD	set	136
   336     010C                     _EEDAT	set	268
   337     010D                     _EEADR	set	269
   338     018D                     _EECON2	set	397
   339     018C                     _EECON1bits	set	396
   340     0188                     _ANSELbits	set	392
   341     0189                     _ANSELH	set	393
   342     0C60                     _RD	set	3168
   343     0C61                     _WR	set	3169
   344                           
   345                           	psect	cinit
   346     000F                     start_initialization:	
   347                           ; #config settings
   348                           
   349     000F                     __initialization:
   350                           
   351                           ; Clear objects allocated to COMMON
   352     000F  01F0               	clrf	__pbssCOMMON& (0+127)
   353     0010  01F1               	clrf	(__pbssCOMMON+1)& (0+127)
   354     0011  01F2               	clrf	(__pbssCOMMON+2)& (0+127)
   355     0012  01F3               	clrf	(__pbssCOMMON+3)& (0+127)
   356     0013  01F4               	clrf	(__pbssCOMMON+4)& (0+127)
   357     0014  01F5               	clrf	(__pbssCOMMON+5)& (0+127)
   358                           
   359                           ; Clear objects allocated to BANK0
   360     0015  1283               	bcf	3,5	;RP0=0, select bank0
   361     0016  1303               	bcf	3,6	;RP1=0, select bank0
   362     0017  01EF               	clrf	__pbssBANK0& (0+127)
   363                           
   364                           ; Clear objects allocated to BANK1
   365     0018  1683               	bsf	3,5	;RP0=1, select bank1
   366     0019  1303               	bcf	3,6	;RP1=0, select bank1
   367     001A  01A0               	clrf	__pbssBANK1& (0+127)
   368     001B  01A1               	clrf	(__pbssBANK1+1)& (0+127)
   369     001C  01A2               	clrf	(__pbssBANK1+2)& (0+127)
   370     001D  01A3               	clrf	(__pbssBANK1+3)& (0+127)
   371     001E  01A4               	clrf	(__pbssBANK1+4)& (0+127)
   372     001F  01A5               	clrf	(__pbssBANK1+5)& (0+127)
   373     0020  01A6               	clrf	(__pbssBANK1+6)& (0+127)
   374     0021  01A7               	clrf	(__pbssBANK1+7)& (0+127)
   375     0022  01A8               	clrf	(__pbssBANK1+8)& (0+127)
   376     0023  01A9               	clrf	(__pbssBANK1+9)& (0+127)
   377     0024  01AA               	clrf	(__pbssBANK1+10)& (0+127)
   378     0025  01AB               	clrf	(__pbssBANK1+11)& (0+127)
   379     0026  01AC               	clrf	(__pbssBANK1+12)& (0+127)
   380     0027                     end_of_initialization:	
   381                           ;End of C runtime variable initialization code
   382                           
   383     0027                     __end_of__initialization:
   384     0027  0183               	clrf	3
   385     0028  120A  158A  2E45   	ljmp	_main	;jump to C main() function
   386                           
   387                           	psect	bssCOMMON
   388     0070                     __pbssCOMMON:
   389     0070                     _valDCH:
   390     0070                     	ds	2
   391     0072                     _valDCL:
   392     0072                     	ds	2
   393     0074                     _cont:
   394     0074                     	ds	1
   395     0075                     _address:
   396     0075                     	ds	1
   397                           
   398                           	psect	bssBANK0
   399     006F                     __pbssBANK0:
   400     006F                     _cont_sleep:
   401     006F                     	ds	1
   402                           
   403                           	psect	bssBANK1
   404     00A0                     __pbssBANK1:
   405     00A0                     _micro:
   406     00A0                     	ds	2
   407     00A2                     _pot1:
   408     00A2                     	ds	2
   409     00A4                     _pot:
   410     00A4                     	ds	2
   411     00A6                     _valDC:
   412     00A6                     	ds	2
   413     00A8                     _modo:
   414     00A8                     	ds	2
   415     00AA                     _data:
   416     00AA                     	ds	1
   417     00AB                     _ADC_RES:
   418     00AB                     	ds	2
   419                           
   420                           	psect	cstackCOMMON
   421     0076                     __pcstackCOMMON:
   422     0076                     ?_delay:
   423     0076                     ?_writeEEPROM:	
   424                           ; 1 bytes @ 0x0
   425                           
   426     0076                     ?_setup:	
   427                           ; 1 bytes @ 0x0
   428                           
   429     0076                     ?_setupINTOSC:	
   430                           ; 1 bytes @ 0x0
   431                           
   432     0076                     ?_setupADC:	
   433                           ; 1 bytes @ 0x0
   434                           
   435     0076                     ?_setupPWM:	
   436                           ; 1 bytes @ 0x0
   437                           
   438     0076                     ?_setupPWM2:	
   439                           ; 1 bytes @ 0x0
   440                           
   441     0076                     ?_setupTMR0:	
   442                           ; 1 bytes @ 0x0
   443                           
   444     0076                     ?_controlmotores:	
   445                           ; 1 bytes @ 0x0
   446                           
   447     0076                     ?_isr:	
   448                           ; 1 bytes @ 0x0
   449                           
   450     0076                     ?_main:	
   451                           ; 1 bytes @ 0x0
   452                           
   453     0076                     ?_mapeo:	
   454                           ; 1 bytes @ 0x0
   455                           
   456     0076                     writeEEPROM@data:	
   457                           ; 1 bytes @ 0x0
   458                           
   459     0076                     delay@micro:	
   460                           ; 1 bytes @ 0x0
   461                           
   462                           
   463                           ; 2 bytes @ 0x0
   464     0076                     	ds	1
   465     0077                     ??_writeEEPROM:
   466     0077                     writeEEPROM@address:	
   467                           ; 1 bytes @ 0x1
   468                           
   469                           
   470                           ; 1 bytes @ 0x1
   471     0077                     	ds	1
   472     0078                     ??_delay:
   473     0078                     writeEEPROM@gieStatus:	
   474                           ; 1 bytes @ 0x2
   475                           
   476                           
   477                           ; 1 bytes @ 0x2
   478     0078                     	ds	1
   479     0079                     ??_isr:
   480                           
   481                           ; 1 bytes @ 0x3
   482     0079                     	ds	3
   483                           
   484                           	psect	cstackBANK0
   485     0020                     __pcstackBANK0:
   486     0020                     ??_setup:
   487     0020                     ??_setupINTOSC:	
   488                           ; 1 bytes @ 0x0
   489                           
   490     0020                     ??_setupADC:	
   491                           ; 1 bytes @ 0x0
   492                           
   493     0020                     ??_setupPWM:	
   494                           ; 1 bytes @ 0x0
   495                           
   496     0020                     ??_setupPWM2:	
   497                           ; 1 bytes @ 0x0
   498                           
   499     0020                     ??_setupTMR0:	
   500                           ; 1 bytes @ 0x0
   501                           
   502     0020                     ?__Umul8_16:	
   503                           ; 1 bytes @ 0x0
   504                           
   505     0020                     ?___wmul:	
   506                           ; 2 bytes @ 0x0
   507                           
   508     0020                     ?___xxtofl:	
   509                           ; 2 bytes @ 0x0
   510                           
   511     0020                     setupINTOSC@IRCF:	
   512                           ; 4 bytes @ 0x0
   513                           
   514     0020                     __Umul8_16@multiplicand:	
   515                           ; 1 bytes @ 0x0
   516                           
   517     0020                     ___wmul@multiplier:	
   518                           ; 1 bytes @ 0x0
   519                           
   520     0020                     ___xxtofl@val:	
   521                           ; 2 bytes @ 0x0
   522                           
   523                           
   524                           ; 4 bytes @ 0x0
   525     0020                     	ds	2
   526     0022                     ??__Umul8_16:
   527     0022                     ___wmul@multiplicand:	
   528                           ; 1 bytes @ 0x2
   529                           
   530                           
   531                           ; 2 bytes @ 0x2
   532     0022                     	ds	2
   533     0024                     ??___wmul:
   534     0024                     ??___xxtofl:	
   535                           ; 1 bytes @ 0x4
   536                           
   537     0024                     ___wmul@product:	
   538                           ; 1 bytes @ 0x4
   539                           
   540     0024                     __Umul8_16@product:	
   541                           ; 2 bytes @ 0x4
   542                           
   543                           
   544                           ; 2 bytes @ 0x4
   545     0024                     	ds	2
   546     0026                     ?___awdiv:
   547     0026                     ___awdiv@divisor:	
   548                           ; 2 bytes @ 0x6
   549                           
   550     0026                     __Umul8_16@word_mpld:	
   551                           ; 2 bytes @ 0x6
   552                           
   553                           
   554                           ; 2 bytes @ 0x6
   555     0026                     	ds	2
   556     0028                     __Umul8_16@multiplier:
   557     0028                     ___xxtofl@sign:	
   558                           ; 1 bytes @ 0x8
   559                           
   560     0028                     ___awdiv@dividend:	
   561                           ; 1 bytes @ 0x8
   562                           
   563                           
   564                           ; 2 bytes @ 0x8
   565     0028                     	ds	1
   566     0029                     ___xxtofl@exp:
   567                           
   568                           ; 1 bytes @ 0x9
   569     0029                     	ds	1
   570     002A                     ??___awdiv:
   571     002A                     ___xxtofl@arg:	
   572                           ; 1 bytes @ 0xA
   573                           
   574                           
   575                           ; 4 bytes @ 0xA
   576     002A                     	ds	1
   577     002B                     ___awdiv@counter:
   578                           
   579                           ; 1 bytes @ 0xB
   580     002B                     	ds	1
   581     002C                     ___awdiv@sign:
   582                           
   583                           ; 1 bytes @ 0xC
   584     002C                     	ds	1
   585     002D                     ___awdiv@quotient:
   586                           
   587                           ; 2 bytes @ 0xD
   588     002D                     	ds	1
   589     002E                     ?___flmul:
   590     002E                     ___flmul@b:	
   591                           ; 4 bytes @ 0xE
   592                           
   593                           
   594                           ; 4 bytes @ 0xE
   595     002E                     	ds	1
   596     002F                     ?_map:
   597     002F                     map@inputmin:	
   598                           ; 2 bytes @ 0xF
   599                           
   600                           
   601                           ; 2 bytes @ 0xF
   602     002F                     	ds	2
   603     0031                     map@inputmax:
   604                           
   605                           ; 2 bytes @ 0x11
   606     0031                     	ds	1
   607     0032                     ___flmul@a:
   608                           
   609                           ; 4 bytes @ 0x12
   610     0032                     	ds	1
   611     0033                     map@outmin:
   612                           
   613                           ; 2 bytes @ 0x13
   614     0033                     	ds	2
   615     0035                     map@outmax:
   616                           
   617                           ; 2 bytes @ 0x15
   618     0035                     	ds	1
   619     0036                     ??___flmul:
   620                           
   621                           ; 1 bytes @ 0x16
   622     0036                     	ds	1
   623     0037                     ??_map:
   624                           
   625                           ; 1 bytes @ 0x17
   626     0037                     	ds	1
   627     0038                     map@value:
   628                           
   629                           ; 1 bytes @ 0x18
   630     0038                     	ds	3
   631     003B                     ___flmul@sign:
   632                           
   633                           ; 1 bytes @ 0x1B
   634     003B                     	ds	1
   635     003C                     ___flmul@aexp:
   636                           
   637                           ; 1 bytes @ 0x1C
   638     003C                     	ds	1
   639     003D                     ___flmul@grs:
   640                           
   641                           ; 4 bytes @ 0x1D
   642     003D                     	ds	4
   643     0041                     ___flmul@bexp:
   644                           
   645                           ; 1 bytes @ 0x21
   646     0041                     	ds	1
   647     0042                     ___flmul@prod:
   648                           
   649                           ; 4 bytes @ 0x22
   650     0042                     	ds	4
   651     0046                     ___flmul@temp:
   652                           
   653                           ; 2 bytes @ 0x26
   654     0046                     	ds	2
   655     0048                     ?___fladd:
   656     0048                     ___fladd@b:	
   657                           ; 4 bytes @ 0x28
   658                           
   659                           
   660                           ; 4 bytes @ 0x28
   661     0048                     	ds	4
   662     004C                     ___fladd@a:
   663                           
   664                           ; 4 bytes @ 0x2C
   665     004C                     	ds	4
   666     0050                     ??___fladd:
   667                           
   668                           ; 1 bytes @ 0x30
   669     0050                     	ds	8
   670     0058                     ___fladd@signs:
   671                           
   672                           ; 1 bytes @ 0x38
   673     0058                     	ds	1
   674     0059                     ___fladd@aexp:
   675                           
   676                           ; 1 bytes @ 0x39
   677     0059                     	ds	1
   678     005A                     ___fladd@bexp:
   679                           
   680                           ; 1 bytes @ 0x3A
   681     005A                     	ds	1
   682     005B                     ___fladd@grs:
   683                           
   684                           ; 1 bytes @ 0x3B
   685     005B                     	ds	1
   686     005C                     ?___fltol:
   687     005C                     ___fltol@f1:	
   688                           ; 4 bytes @ 0x3C
   689                           
   690                           
   691                           ; 4 bytes @ 0x3C
   692     005C                     	ds	4
   693     0060                     ??___fltol:
   694                           
   695                           ; 1 bytes @ 0x40
   696     0060                     	ds	4
   697     0064                     ___fltol@sign1:
   698                           
   699                           ; 1 bytes @ 0x44
   700     0064                     	ds	1
   701     0065                     ___fltol@exp1:
   702                           
   703                           ; 1 bytes @ 0x45
   704     0065                     	ds	1
   705     0066                     ??_mapeo:
   706                           
   707                           ; 1 bytes @ 0x46
   708     0066                     	ds	5
   709     006B                     ??_controlmotores:
   710                           
   711                           ; 1 bytes @ 0x4B
   712     006B                     	ds	3
   713     006E                     ??_main:
   714                           
   715                           ; 1 bytes @ 0x4E
   716     006E                     	ds	1
   717                           
   718                           	psect	maintext
   719     0E45                     __pmaintext:	
   720 ;;
   721 ;;Main: autosize = 0, tempsize = 1, incstack = 0, save=0
   722 ;;
   723 ;; *************** function _main *****************
   724 ;; Defined at:
   725 ;;		line 102 in file "main.c"
   726 ;; Parameters:    Size  Location     Type
   727 ;;		None
   728 ;; Auto vars:     Size  Location     Type
   729 ;;		None
   730 ;; Return value:  Size  Location     Type
   731 ;;                  1    wreg      void 
   732 ;; Registers used:
   733 ;;		wreg, status,2, status,0, btemp+1, pclath, cstack
   734 ;; Tracked objects:
   735 ;;		On entry : B00/0
   736 ;;		On exit  : 0/0
   737 ;;		Unchanged: 0/0
   738 ;; Data sizes:     COMMON   BANK0   BANK1   BANK3   BANK2
   739 ;;      Params:         0       0       0       0       0
   740 ;;      Locals:         0       0       0       0       0
   741 ;;      Temps:          0       1       0       0       0
   742 ;;      Totals:         0       1       0       0       0
   743 ;;Total ram usage:        1 bytes
   744 ;; Hardware stack levels required when called: 6
   745 ;; This function calls:
   746 ;;		_controlmotores
   747 ;;		_setup
   748 ;;		_setupADC
   749 ;;		_setupINTOSC
   750 ;;		_setupPWM
   751 ;;		_setupPWM2
   752 ;;		_setupTMR0
   753 ;; This function is called by:
   754 ;;		Startup code after reset
   755 ;; This function uses a non-reentrant model
   756 ;;
   757                           
   758     0E45                     _main:	
   759                           ;psect for function _main
   760                           
   761     0E45                     l2588:	
   762                           ;incstack = 0
   763                           ; Regs used in _main: [wreg+status,2+status,0+btemp+1+pclath+cstack]
   764                           
   765                           
   766                           ;main.c: 104:     setup();
   767     0E45  120A  158A  2512  120A  158A  	fcall	_setup
   768                           
   769                           ;main.c: 105:     setupINTOSC(3);
   770     0E4A  3003               	movlw	3
   771     0E4B  120A  158A  25B5  120A  158A  	fcall	_setupINTOSC
   772                           
   773                           ;main.c: 106:     setupADC();
   774     0E50  120A  158A  25E0  120A  158A  	fcall	_setupADC
   775                           
   776                           ;main.c: 107:     setupPWM();
   777     0E55  120A  158A  2546  120A  158A  	fcall	_setupPWM
   778                           
   779                           ;main.c: 108:     setupPWM2();
   780     0E5A  120A  158A  252C  120A  158A  	fcall	_setupPWM2
   781                           
   782                           ;main.c: 109:     setupTMR0();
   783     0E5F  120A  158A  24F1  120A  158A  	fcall	_setupTMR0
   784     0E64                     l2590:
   785                           
   786                           ;main.c: 111:     modo = 0;
   787     0E64  1683               	bsf	3,5	;RP0=1, select bank1
   788     0E65  1303               	bcf	3,6	;RP1=0, select bank1
   789     0E66  01A8               	clrf	_modo^(0+128)
   790     0E67  01A9               	clrf	(_modo+1)^(0+128)
   791     0E68                     l2592:
   792                           
   793                           ;main.c: 114:         if (modo == 0){
   794     0E68  1683               	bsf	3,5	;RP0=1, select bank1
   795     0E69  1303               	bcf	3,6	;RP1=0, select bank1
   796     0E6A  0828               	movf	_modo^(0+128),w
   797     0E6B  0429               	iorwf	(_modo+1)^(0+128),w
   798     0E6C  1D03               	btfss	3,2
   799     0E6D  2E6F               	goto	u3471
   800     0E6E  2E70               	goto	u3470
   801     0E6F                     u3471:
   802     0E6F  2E80               	goto	l2600
   803     0E70                     u3470:
   804     0E70                     l2594:
   805                           
   806                           ;main.c: 115:             controlmotores();
   807     0E70  120A  118A  25C8  120A  158A  	fcall	_controlmotores
   808     0E75                     l2596:
   809                           
   810                           ;main.c: 116:             _delay((unsigned long)((100)*(500000/4000000.0)));
   811     0E75  3003               	movlw	3
   812     0E76  1283               	bcf	3,5	;RP0=0, select bank0
   813     0E77  1303               	bcf	3,6	;RP1=0, select bank0
   814     0E78  00EE               	movwf	??_main
   815     0E79                     u3497:
   816     0E79  0BEE               	decfsz	??_main,f
   817     0E7A  2E79               	goto	u3497
   818     0E7B                     l2598:
   819                           
   820                           ;main.c: 117:             PORTD = 0b00000001;
   821     0E7B  3001               	movlw	1
   822     0E7C  1283               	bcf	3,5	;RP0=0, select bank0
   823     0E7D  1303               	bcf	3,6	;RP1=0, select bank0
   824     0E7E  0088               	movwf	8	;volatile
   825                           
   826                           ;main.c: 118:         }
   827     0E7F  2E68               	goto	l2592
   828     0E80                     l2600:
   829     0E80  0328               	decf	_modo^(0+128),w
   830     0E81  0429               	iorwf	(_modo+1)^(0+128),w
   831     0E82  1D03               	btfss	3,2
   832     0E83  2E85               	goto	u3481
   833     0E84  2E86               	goto	u3480
   834     0E85                     u3481:
   835     0E85  2E68               	goto	l2592
   836     0E86                     u3480:
   837     0E86                     l2602:
   838                           
   839                           ;main.c: 120:             PORTD = 0b00000010;
   840     0E86  3002               	movlw	2
   841     0E87  1283               	bcf	3,5	;RP0=0, select bank0
   842     0E88  1303               	bcf	3,6	;RP1=0, select bank0
   843     0E89  0088               	movwf	8	;volatile
   844     0E8A  2E68               	goto	l2592
   845     0E8B  120A  118A  280C   	ljmp	start
   846     0E8E                     __end_of_main:
   847                           
   848                           	psect	text1
   849     0CF1                     __ptext1:	
   850 ;; *************** function _setupTMR0 *****************
   851 ;; Defined at:
   852 ;;		line 215 in file "main.c"
   853 ;; Parameters:    Size  Location     Type
   854 ;;		None
   855 ;; Auto vars:     Size  Location     Type
   856 ;;		None
   857 ;; Return value:  Size  Location     Type
   858 ;;                  1    wreg      void 
   859 ;; Registers used:
   860 ;;		wreg, status,2, status,0
   861 ;; Tracked objects:
   862 ;;		On entry : 0/0
   863 ;;		On exit  : 0/0
   864 ;;		Unchanged: 0/0
   865 ;; Data sizes:     COMMON   BANK0   BANK1   BANK3   BANK2
   866 ;;      Params:         0       0       0       0       0
   867 ;;      Locals:         0       0       0       0       0
   868 ;;      Temps:          0       0       0       0       0
   869 ;;      Totals:         0       0       0       0       0
   870 ;;Total ram usage:        0 bytes
   871 ;; Hardware stack levels used: 1
   872 ;; Hardware stack levels required when called: 2
   873 ;; This function calls:
   874 ;;		Nothing
   875 ;; This function is called by:
   876 ;;		_main
   877 ;; This function uses a non-reentrant model
   878 ;;
   879                           
   880     0CF1                     _setupTMR0:	
   881                           ;psect for function _setupTMR0
   882                           
   883     0CF1                     l2532:	
   884                           ;incstack = 0
   885                           ; Regs used in _setupTMR0: [wreg+status,2+status,0]
   886                           
   887                           
   888                           ;main.c: 216:     INTCONbits.GIE = 1;
   889     0CF1  178B               	bsf	11,7	;volatile
   890                           
   891                           ;main.c: 217:     INTCONbits.T0IE = 1;
   892     0CF2  168B               	bsf	11,5	;volatile
   893                           
   894                           ;main.c: 218:     INTCONbits.T0IF = 0;
   895     0CF3  110B               	bcf	11,2	;volatile
   896                           
   897                           ;main.c: 220:     OPTION_REGbits.T0CS = 0;
   898     0CF4  1683               	bsf	3,5	;RP0=1, select bank1
   899     0CF5  1303               	bcf	3,6	;RP1=0, select bank1
   900     0CF6  1281               	bcf	1,5	;volatile
   901                           
   902                           ;main.c: 221:     OPTION_REGbits.PSA = 0;
   903     0CF7  1181               	bcf	1,3	;volatile
   904     0CF8                     l2534:
   905                           
   906                           ;main.c: 222:     OPTION_REGbits.PS = 0b011;
   907     0CF8  0801               	movf	1,w	;volatile
   908     0CF9  39F8               	andlw	-8
   909     0CFA  3803               	iorlw	3
   910     0CFB  0081               	movwf	1	;volatile
   911     0CFC                     l2536:
   912                           
   913                           ;main.c: 223:     TMR0 = 240;
   914     0CFC  30F0               	movlw	240
   915     0CFD  1283               	bcf	3,5	;RP0=0, select bank0
   916     0CFE  1303               	bcf	3,6	;RP1=0, select bank0
   917     0CFF  0081               	movwf	1	;volatile
   918     0D00                     l167:
   919     0D00  0008               	return
   920     0D01                     __end_of_setupTMR0:
   921                           
   922                           	psect	text2
   923     0D2C                     __ptext2:	
   924 ;; *************** function _setupPWM2 *****************
   925 ;; Defined at:
   926 ;;		line 195 in file "main.c"
   927 ;; Parameters:    Size  Location     Type
   928 ;;		None
   929 ;; Auto vars:     Size  Location     Type
   930 ;;		None
   931 ;; Return value:  Size  Location     Type
   932 ;;                  1    wreg      void 
   933 ;; Registers used:
   934 ;;		wreg, status,2, status,0
   935 ;; Tracked objects:
   936 ;;		On entry : 0/0
   937 ;;		On exit  : 0/0
   938 ;;		Unchanged: 0/0
   939 ;; Data sizes:     COMMON   BANK0   BANK1   BANK3   BANK2
   940 ;;      Params:         0       0       0       0       0
   941 ;;      Locals:         0       0       0       0       0
   942 ;;      Temps:          0       0       0       0       0
   943 ;;      Totals:         0       0       0       0       0
   944 ;;Total ram usage:        0 bytes
   945 ;; Hardware stack levels used: 1
   946 ;; Hardware stack levels required when called: 2
   947 ;; This function calls:
   948 ;;		Nothing
   949 ;; This function is called by:
   950 ;;		_main
   951 ;; This function uses a non-reentrant model
   952 ;;
   953                           
   954     0D2C                     _setupPWM2:	
   955                           ;psect for function _setupPWM2
   956                           
   957     0D2C                     l2518:	
   958                           ;incstack = 0
   959                           ; Regs used in _setupPWM2: [wreg+status,2+status,0]
   960                           
   961                           
   962                           ;main.c: 197:     TRISCbits.TRISC1 = 1;
   963     0D2C  1683               	bsf	3,5	;RP0=1, select bank1
   964     0D2D  1303               	bcf	3,6	;RP1=0, select bank1
   965     0D2E  1487               	bsf	7,1	;volatile
   966     0D2F                     l2520:
   967                           
   968                           ;main.c: 199:     PR2 = 155;
   969     0D2F  309B               	movlw	155
   970     0D30  0092               	movwf	18	;volatile
   971     0D31                     l2522:
   972                           
   973                           ;main.c: 201:     CCP2CONbits.CCP2M = 0b1111;
   974     0D31  300F               	movlw	15
   975     0D32  1283               	bcf	3,5	;RP0=0, select bank0
   976     0D33  1303               	bcf	3,6	;RP1=0, select bank0
   977     0D34  049D               	iorwf	29,f	;volatile
   978     0D35                     l2524:
   979                           
   980                           ;main.c: 203:     CCP2CONbits.DC2B1 = valDCL;
   981     0D35  0C72               	rrf	_valDCL,w
   982     0D36  1C03               	skipc
   983     0D37  129D               	bcf	29,5	;volatile
   984     0D38  1803               	skipnc
   985     0D39  169D               	bsf	29,5	;volatile
   986     0D3A                     l2526:
   987                           
   988                           ;main.c: 204:     CCP2CONbits.DC2B0 = 0b1;
   989     0D3A  161D               	bsf	29,4	;volatile
   990     0D3B                     l2528:
   991                           
   992                           ;main.c: 205:     CCPR2L = valDCH;
   993     0D3B  0870               	movf	_valDCH,w
   994     0D3C  009B               	movwf	27	;volatile
   995     0D3D                     l2530:
   996                           
   997                           ;main.c: 207:     TMR2IF = 0;
   998     0D3D  108C               	bcf	12,1	;volatile
   999     0D3E                     l161:	
  1000                           ;main.c: 209:     while(!TMR2IF);
  1001                           
  1002     0D3E  1C8C               	btfss	12,1	;volatile
  1003     0D3F  2D41               	goto	u3421
  1004     0D40  2D42               	goto	u3420
  1005     0D41                     u3421:
  1006     0D41  2D3E               	goto	l161
  1007     0D42                     u3420:
  1008     0D42                     l163:
  1009                           
  1010                           ;main.c: 210:     TRISCbits.TRISC1 = 0;
  1011     0D42  1683               	bsf	3,5	;RP0=1, select bank1
  1012     0D43  1303               	bcf	3,6	;RP1=0, select bank1
  1013     0D44  1087               	bcf	7,1	;volatile
  1014     0D45                     l164:
  1015     0D45  0008               	return
  1016     0D46                     __end_of_setupPWM2:
  1017                           
  1018                           	psect	text3
  1019     0D46                     __ptext3:	
  1020 ;; *************** function _setupPWM *****************
  1021 ;; Defined at:
  1022 ;;		line 177 in file "main.c"
  1023 ;; Parameters:    Size  Location     Type
  1024 ;;		None
  1025 ;; Auto vars:     Size  Location     Type
  1026 ;;		None
  1027 ;; Return value:  Size  Location     Type
  1028 ;;                  1    wreg      void 
  1029 ;; Registers used:
  1030 ;;		wreg, status,2, status,0
  1031 ;; Tracked objects:
  1032 ;;		On entry : 0/0
  1033 ;;		On exit  : 0/0
  1034 ;;		Unchanged: 0/0
  1035 ;; Data sizes:     COMMON   BANK0   BANK1   BANK3   BANK2
  1036 ;;      Params:         0       0       0       0       0
  1037 ;;      Locals:         0       0       0       0       0
  1038 ;;      Temps:          0       1       0       0       0
  1039 ;;      Totals:         0       1       0       0       0
  1040 ;;Total ram usage:        1 bytes
  1041 ;; Hardware stack levels used: 1
  1042 ;; Hardware stack levels required when called: 2
  1043 ;; This function calls:
  1044 ;;		Nothing
  1045 ;; This function is called by:
  1046 ;;		_main
  1047 ;; This function uses a non-reentrant model
  1048 ;;
  1049                           
  1050     0D46                     _setupPWM:	
  1051                           ;psect for function _setupPWM
  1052                           
  1053     0D46                     l2506:	
  1054                           ;incstack = 0
  1055                           ; Regs used in _setupPWM: [wreg+status,2+status,0]
  1056                           
  1057                           
  1058                           ;main.c: 179:     TRISCbits.TRISC2 = 1;
  1059     0D46  1683               	bsf	3,5	;RP0=1, select bank1
  1060     0D47  1303               	bcf	3,6	;RP1=0, select bank1
  1061     0D48  1507               	bsf	7,2	;volatile
  1062     0D49                     l2508:
  1063                           
  1064                           ;main.c: 181:     PR2 = 155;
  1065     0D49  309B               	movlw	155
  1066     0D4A  0092               	movwf	18	;volatile
  1067                           
  1068                           ;main.c: 183:     CCP1CON = 0b00001100;
  1069     0D4B  300C               	movlw	12
  1070     0D4C  1283               	bcf	3,5	;RP0=0, select bank0
  1071     0D4D  1303               	bcf	3,6	;RP1=0, select bank0
  1072     0D4E  0097               	movwf	23	;volatile
  1073     0D4F                     l2510:
  1074                           
  1075                           ;main.c: 185:     CCP1CONbits.DC1B = valDCL;
  1076     0D4F  0872               	movf	_valDCL,w
  1077     0D50  00A0               	movwf	??_setupPWM
  1078     0D51  0EA0               	swapf	??_setupPWM,f
  1079     0D52  0817               	movf	23,w	;volatile
  1080     0D53  0620               	xorwf	??_setupPWM,w
  1081     0D54  39CF               	andlw	-49
  1082     0D55  0620               	xorwf	??_setupPWM,w
  1083     0D56  0097               	movwf	23	;volatile
  1084     0D57                     l2512:
  1085                           
  1086                           ;main.c: 186:     CCPR1L = valDCH ;
  1087     0D57  0870               	movf	_valDCH,w
  1088     0D58  0095               	movwf	21	;volatile
  1089     0D59                     l2514:
  1090                           
  1091                           ;main.c: 188:     TMR2IF = 0;
  1092     0D59  108C               	bcf	12,1	;volatile
  1093                           
  1094                           ;main.c: 189:     T2CONbits.T2CKPS = 0b11;
  1095     0D5A  3003               	movlw	3
  1096     0D5B  0492               	iorwf	18,f	;volatile
  1097     0D5C                     l2516:
  1098                           
  1099                           ;main.c: 190:     TMR2ON = 1;
  1100     0D5C  1512               	bsf	18,2	;volatile
  1101     0D5D                     l155:	
  1102                           ;main.c: 192:     while(!TMR2IF);
  1103                           
  1104     0D5D  1C8C               	btfss	12,1	;volatile
  1105     0D5E  2D60               	goto	u3411
  1106     0D5F  2D61               	goto	u3410
  1107     0D60                     u3411:
  1108     0D60  2D5D               	goto	l155
  1109     0D61                     u3410:
  1110     0D61                     l157:
  1111                           
  1112                           ;main.c: 193:     TRISCbits.TRISC2 = 0;
  1113     0D61  1683               	bsf	3,5	;RP0=1, select bank1
  1114     0D62  1303               	bcf	3,6	;RP1=0, select bank1
  1115     0D63  1107               	bcf	7,2	;volatile
  1116     0D64                     l158:
  1117     0D64  0008               	return
  1118     0D65                     __end_of_setupPWM:
  1119                           
  1120                           	psect	text4
  1121     0DB5                     __ptext4:	
  1122 ;; *************** function _setupINTOSC *****************
  1123 ;; Defined at:
  1124 ;;		line 14 in file "oscilador.c"
  1125 ;; Parameters:    Size  Location     Type
  1126 ;;  IRCF            1    wreg     unsigned char 
  1127 ;; Auto vars:     Size  Location     Type
  1128 ;;  IRCF            1    0[BANK0 ] unsigned char 
  1129 ;; Return value:  Size  Location     Type
  1130 ;;                  1    wreg      void 
  1131 ;; Registers used:
  1132 ;;		wreg, status,2, status,0
  1133 ;; Tracked objects:
  1134 ;;		On entry : 0/0
  1135 ;;		On exit  : 0/0
  1136 ;;		Unchanged: 0/0
  1137 ;; Data sizes:     COMMON   BANK0   BANK1   BANK3   BANK2
  1138 ;;      Params:         0       0       0       0       0
  1139 ;;      Locals:         0       1       0       0       0
  1140 ;;      Temps:          0       0       0       0       0
  1141 ;;      Totals:         0       1       0       0       0
  1142 ;;Total ram usage:        1 bytes
  1143 ;; Hardware stack levels used: 1
  1144 ;; Hardware stack levels required when called: 2
  1145 ;; This function calls:
  1146 ;;		Nothing
  1147 ;; This function is called by:
  1148 ;;		_main
  1149 ;; This function uses a non-reentrant model
  1150 ;;
  1151                           
  1152     0DB5                     _setupINTOSC:	
  1153                           ;psect for function _setupINTOSC
  1154                           
  1155                           
  1156                           ;incstack = 0
  1157                           ; Regs used in _setupINTOSC: [wreg+status,2+status,0]
  1158                           ;setupINTOSC@IRCF stored from wreg
  1159     0DB5  1283               	bcf	3,5	;RP0=0, select bank0
  1160     0DB6  1303               	bcf	3,6	;RP1=0, select bank0
  1161     0DB7  00A0               	movwf	setupINTOSC@IRCF
  1162     0DB8                     l2464:
  1163                           
  1164                           ;oscilador.c: 17:     if(IRCF == 7){
  1165     0DB8  3007               	movlw	7
  1166     0DB9  0620               	xorwf	setupINTOSC@IRCF,w
  1167     0DBA  1D03               	btfss	3,2
  1168     0DBB  2DBD               	goto	u3381
  1169     0DBC  2DBE               	goto	u3380
  1170     0DBD                     u3381:
  1171     0DBD  2DC2               	goto	l211
  1172     0DBE                     u3380:
  1173     0DBE                     l2466:
  1174                           
  1175                           ;oscilador.c: 18:         OSCCONbits.IRCF = 0b111;
  1176     0DBE  3070               	movlw	112
  1177     0DBF  1683               	bsf	3,5	;RP0=1, select bank1
  1178     0DC0  1303               	bcf	3,6	;RP1=0, select bank1
  1179     0DC1  048F               	iorwf	15,f	;volatile
  1180     0DC2                     l211:	
  1181                           ;oscilador.c: 19:     }
  1182                           
  1183                           
  1184                           ;oscilador.c: 20:     if(IRCF == 6){
  1185     0DC2  3006               	movlw	6
  1186     0DC3  1283               	bcf	3,5	;RP0=0, select bank0
  1187     0DC4  0620               	xorwf	setupINTOSC@IRCF,w
  1188     0DC5  1D03               	btfss	3,2
  1189     0DC6  2DC8               	goto	u3391
  1190     0DC7  2DC9               	goto	u3390
  1191     0DC8                     u3391:
  1192     0DC8  2DCF               	goto	l212
  1193     0DC9                     u3390:
  1194     0DC9                     l2468:
  1195                           
  1196                           ;oscilador.c: 21:         OSCCONbits.IRCF = 0b110;
  1197     0DC9  1683               	bsf	3,5	;RP0=1, select bank1
  1198     0DCA  1303               	bcf	3,6	;RP1=0, select bank1
  1199     0DCB  080F               	movf	15,w	;volatile
  1200     0DCC  398F               	andlw	-113
  1201     0DCD  3860               	iorlw	96
  1202     0DCE  008F               	movwf	15	;volatile
  1203     0DCF                     l212:	
  1204                           ;oscilador.c: 22:     }
  1205                           
  1206                           
  1207                           ;oscilador.c: 23:     if(IRCF == 3){
  1208     0DCF  3003               	movlw	3
  1209     0DD0  1283               	bcf	3,5	;RP0=0, select bank0
  1210     0DD1  0620               	xorwf	setupINTOSC@IRCF,w
  1211     0DD2  1D03               	btfss	3,2
  1212     0DD3  2DD5               	goto	u3401
  1213     0DD4  2DD6               	goto	u3400
  1214     0DD5                     u3401:
  1215     0DD5  2DDC               	goto	l2472
  1216     0DD6                     u3400:
  1217     0DD6                     l2470:
  1218                           
  1219                           ;oscilador.c: 24:         OSCCONbits.IRCF = 0b011;
  1220     0DD6  1683               	bsf	3,5	;RP0=1, select bank1
  1221     0DD7  1303               	bcf	3,6	;RP1=0, select bank1
  1222     0DD8  080F               	movf	15,w	;volatile
  1223     0DD9  398F               	andlw	-113
  1224     0DDA  3830               	iorlw	48
  1225     0DDB  008F               	movwf	15	;volatile
  1226     0DDC                     l2472:
  1227                           
  1228                           ;oscilador.c: 27:     OSCCONbits.SCS = 1;
  1229     0DDC  1683               	bsf	3,5	;RP0=1, select bank1
  1230     0DDD  1303               	bcf	3,6	;RP1=0, select bank1
  1231     0DDE  140F               	bsf	15,0	;volatile
  1232     0DDF                     l214:
  1233     0DDF  0008               	return
  1234     0DE0                     __end_of_setupINTOSC:
  1235                           
  1236                           	psect	text5
  1237     0DE0                     __ptext5:	
  1238 ;; *************** function _setupADC *****************
  1239 ;; Defined at:
  1240 ;;		line 147 in file "main.c"
  1241 ;; Parameters:    Size  Location     Type
  1242 ;;		None
  1243 ;; Auto vars:     Size  Location     Type
  1244 ;;		None
  1245 ;; Return value:  Size  Location     Type
  1246 ;;                  1    wreg      void 
  1247 ;; Registers used:
  1248 ;;		wreg, status,2
  1249 ;; Tracked objects:
  1250 ;;		On entry : 0/0
  1251 ;;		On exit  : 0/0
  1252 ;;		Unchanged: 0/0
  1253 ;; Data sizes:     COMMON   BANK0   BANK1   BANK3   BANK2
  1254 ;;      Params:         0       0       0       0       0
  1255 ;;      Locals:         0       0       0       0       0
  1256 ;;      Temps:          0       1       0       0       0
  1257 ;;      Totals:         0       1       0       0       0
  1258 ;;Total ram usage:        1 bytes
  1259 ;; Hardware stack levels used: 1
  1260 ;; Hardware stack levels required when called: 2
  1261 ;; This function calls:
  1262 ;;		Nothing
  1263 ;; This function is called by:
  1264 ;;		_main
  1265 ;; This function uses a non-reentrant model
  1266 ;;
  1267                           
  1268     0DE0                     _setupADC:	
  1269                           ;psect for function _setupADC
  1270                           
  1271     0DE0                     l2474:	
  1272                           ;incstack = 0
  1273                           ; Regs used in _setupADC: [wreg+status,2]
  1274                           
  1275                           
  1276                           ;main.c: 150:     ANSELH = 0;
  1277     0DE0  1683               	bsf	3,5	;RP0=1, select bank3
  1278     0DE1  1703               	bsf	3,6	;RP1=1, select bank3
  1279     0DE2  0189               	clrf	9	;volatile
  1280     0DE3                     l2476:
  1281                           
  1282                           ;main.c: 151:     TRISAbits.TRISA0 = 1;
  1283     0DE3  1683               	bsf	3,5	;RP0=1, select bank1
  1284     0DE4  1303               	bcf	3,6	;RP1=0, select bank1
  1285     0DE5  1405               	bsf	5,0	;volatile
  1286     0DE6                     l2478:
  1287                           
  1288                           ;main.c: 152:     ANSELbits.ANS0 = 1;
  1289     0DE6  1683               	bsf	3,5	;RP0=1, select bank3
  1290     0DE7  1703               	bsf	3,6	;RP1=1, select bank3
  1291     0DE8  1408               	bsf	8,0	;volatile
  1292     0DE9                     l2480:
  1293                           
  1294                           ;main.c: 153:     TRISAbits.TRISA1 = 1;
  1295     0DE9  1683               	bsf	3,5	;RP0=1, select bank1
  1296     0DEA  1303               	bcf	3,6	;RP1=0, select bank1
  1297     0DEB  1485               	bsf	5,1	;volatile
  1298     0DEC                     l2482:
  1299                           
  1300                           ;main.c: 154:     ANSELbits.ANS1 = 1;
  1301     0DEC  1683               	bsf	3,5	;RP0=1, select bank3
  1302     0DED  1703               	bsf	3,6	;RP1=1, select bank3
  1303     0DEE  1488               	bsf	8,1	;volatile
  1304     0DEF                     l2484:
  1305                           
  1306                           ;main.c: 155:     TRISAbits.TRISA2 = 1;
  1307     0DEF  1683               	bsf	3,5	;RP0=1, select bank1
  1308     0DF0  1303               	bcf	3,6	;RP1=0, select bank1
  1309     0DF1  1505               	bsf	5,2	;volatile
  1310     0DF2                     l2486:
  1311                           
  1312                           ;main.c: 156:     ANSELbits.ANS2 = 1;
  1313     0DF2  1683               	bsf	3,5	;RP0=1, select bank3
  1314     0DF3  1703               	bsf	3,6	;RP1=1, select bank3
  1315     0DF4  1508               	bsf	8,2	;volatile
  1316     0DF5                     l2488:
  1317                           
  1318                           ;main.c: 157:     TRISAbits.TRISA3 = 1;
  1319     0DF5  1683               	bsf	3,5	;RP0=1, select bank1
  1320     0DF6  1303               	bcf	3,6	;RP1=0, select bank1
  1321     0DF7  1585               	bsf	5,3	;volatile
  1322     0DF8                     l2490:
  1323                           
  1324                           ;main.c: 158:     ANSELbits.ANS3 = 1;
  1325     0DF8  1683               	bsf	3,5	;RP0=1, select bank3
  1326     0DF9  1703               	bsf	3,6	;RP1=1, select bank3
  1327     0DFA  1588               	bsf	8,3	;volatile
  1328     0DFB                     l2492:
  1329                           
  1330                           ;main.c: 163:     ADCON0bits.ADCS1 = 0;
  1331     0DFB  1283               	bcf	3,5	;RP0=0, select bank0
  1332     0DFC  1303               	bcf	3,6	;RP1=0, select bank0
  1333     0DFD  139F               	bcf	31,7	;volatile
  1334     0DFE                     l2494:
  1335                           
  1336                           ;main.c: 164:     ADCON0bits.ADCS0 = 1;
  1337     0DFE  171F               	bsf	31,6	;volatile
  1338     0DFF                     l2496:
  1339                           
  1340                           ;main.c: 166:     ADCON1bits.VCFG1 = 0;
  1341     0DFF  1683               	bsf	3,5	;RP0=1, select bank1
  1342     0E00  1303               	bcf	3,6	;RP1=0, select bank1
  1343     0E01  129F               	bcf	31,5	;volatile
  1344     0E02                     l2498:
  1345                           
  1346                           ;main.c: 167:     ADCON1bits.VCFG0 = 0;
  1347     0E02  121F               	bcf	31,4	;volatile
  1348     0E03                     l2500:
  1349                           
  1350                           ;main.c: 169:     ADCON1bits.ADFM = 0;
  1351     0E03  139F               	bcf	31,7	;volatile
  1352     0E04                     l2502:
  1353                           
  1354                           ;main.c: 171:     ADCON0bits.ADON = 1;
  1355     0E04  1283               	bcf	3,5	;RP0=0, select bank0
  1356     0E05  1303               	bcf	3,6	;RP1=0, select bank0
  1357     0E06  141F               	bsf	31,0	;volatile
  1358     0E07                     l2504:
  1359                           
  1360                           ;main.c: 172:     _delay((unsigned long)((100)*(500000/4000000.0)));
  1361     0E07  3003               	movlw	3
  1362     0E08  1283               	bcf	3,5	;RP0=0, select bank0
  1363     0E09  1303               	bcf	3,6	;RP1=0, select bank0
  1364     0E0A  00A0               	movwf	??_setupADC
  1365     0E0B                     u3507:
  1366     0E0B  0BA0               	decfsz	??_setupADC,f
  1367     0E0C  2E0B               	goto	u3507
  1368     0E0D                     l152:
  1369     0E0D  0008               	return
  1370     0E0E                     __end_of_setupADC:
  1371                           
  1372                           	psect	text6
  1373     0D12                     __ptext6:	
  1374 ;; *************** function _setup *****************
  1375 ;; Defined at:
  1376 ;;		line 128 in file "main.c"
  1377 ;; Parameters:    Size  Location     Type
  1378 ;;		None
  1379 ;; Auto vars:     Size  Location     Type
  1380 ;;		None
  1381 ;; Return value:  Size  Location     Type
  1382 ;;                  1    wreg      void 
  1383 ;; Registers used:
  1384 ;;		wreg, status,2
  1385 ;; Tracked objects:
  1386 ;;		On entry : 0/0
  1387 ;;		On exit  : 0/0
  1388 ;;		Unchanged: 0/0
  1389 ;; Data sizes:     COMMON   BANK0   BANK1   BANK3   BANK2
  1390 ;;      Params:         0       0       0       0       0
  1391 ;;      Locals:         0       0       0       0       0
  1392 ;;      Temps:          0       0       0       0       0
  1393 ;;      Totals:         0       0       0       0       0
  1394 ;;Total ram usage:        0 bytes
  1395 ;; Hardware stack levels used: 1
  1396 ;; Hardware stack levels required when called: 2
  1397 ;; This function calls:
  1398 ;;		Nothing
  1399 ;; This function is called by:
  1400 ;;		_main
  1401 ;; This function uses a non-reentrant model
  1402 ;;
  1403                           
  1404     0D12                     _setup:	
  1405                           ;psect for function _setup
  1406                           
  1407     0D12                     l2448:	
  1408                           ;incstack = 0
  1409                           ; Regs used in _setup: [wreg+status,2]
  1410                           
  1411                           
  1412                           ;main.c: 129:     ANSELH = 0;
  1413     0D12  1683               	bsf	3,5	;RP0=1, select bank3
  1414     0D13  1703               	bsf	3,6	;RP1=1, select bank3
  1415     0D14  0189               	clrf	9	;volatile
  1416                           
  1417                           ;main.c: 130:     PORTA = 0;
  1418     0D15  1283               	bcf	3,5	;RP0=0, select bank0
  1419     0D16  1303               	bcf	3,6	;RP1=0, select bank0
  1420     0D17  0185               	clrf	5	;volatile
  1421                           
  1422                           ;main.c: 131:     PORTC = 0;
  1423     0D18  0187               	clrf	7	;volatile
  1424                           
  1425                           ;main.c: 132:     PORTD = 0;
  1426     0D19  0188               	clrf	8	;volatile
  1427                           
  1428                           ;main.c: 133:     TRISD = 0;
  1429     0D1A  1683               	bsf	3,5	;RP0=1, select bank1
  1430     0D1B  1303               	bcf	3,6	;RP1=0, select bank1
  1431     0D1C  0188               	clrf	8	;volatile
  1432                           
  1433                           ;main.c: 134:     TRISC = 0;
  1434     0D1D  0187               	clrf	7	;volatile
  1435     0D1E                     l2450:
  1436                           
  1437                           ;main.c: 135:     PIE1bits.ADIE = 1;
  1438     0D1E  170C               	bsf	12,6	;volatile
  1439     0D1F                     l2452:
  1440                           
  1441                           ;main.c: 136:     PIR1bits.ADIF = 0;
  1442     0D1F  1283               	bcf	3,5	;RP0=0, select bank0
  1443     0D20  1303               	bcf	3,6	;RP1=0, select bank0
  1444     0D21  130C               	bcf	12,6	;volatile
  1445     0D22                     l2454:
  1446                           
  1447                           ;main.c: 138:     INTCONbits.RBIE = 1;
  1448     0D22  158B               	bsf	11,3	;volatile
  1449     0D23                     l2456:
  1450                           
  1451                           ;main.c: 139:     INTCONbits.RBIF = 0;
  1452     0D23  100B               	bcf	11,0	;volatile
  1453     0D24                     l2458:
  1454                           
  1455                           ;main.c: 140:     IOCB = 0b00000111;
  1456     0D24  3007               	movlw	7
  1457     0D25  1683               	bsf	3,5	;RP0=1, select bank1
  1458     0D26  1303               	bcf	3,6	;RP1=0, select bank1
  1459     0D27  0096               	movwf	22	;volatile
  1460     0D28                     l2460:
  1461                           
  1462                           ;main.c: 141:     WPUB = 0b00000111;
  1463     0D28  3007               	movlw	7
  1464     0D29  0095               	movwf	21	;volatile
  1465     0D2A                     l2462:
  1466                           
  1467                           ;main.c: 142:     OPTION_REGbits.nRBPU = 0;
  1468     0D2A  1381               	bcf	1,7	;volatile
  1469     0D2B                     l149:
  1470     0D2B  0008               	return
  1471     0D2C                     __end_of_setup:
  1472                           
  1473                           	psect	text7
  1474     05C8                     __ptext7:	
  1475 ;; *************** function _controlmotores *****************
  1476 ;; Defined at:
  1477 ;;		line 249 in file "main.c"
  1478 ;; Parameters:    Size  Location     Type
  1479 ;;		None
  1480 ;; Auto vars:     Size  Location     Type
  1481 ;;		None
  1482 ;; Return value:  Size  Location     Type
  1483 ;;                  1    wreg      void 
  1484 ;; Registers used:
  1485 ;;		wreg, status,2, status,0, btemp+1, pclath, cstack
  1486 ;; Tracked objects:
  1487 ;;		On entry : 0/0
  1488 ;;		On exit  : 0/0
  1489 ;;		Unchanged: 0/0
  1490 ;; Data sizes:     COMMON   BANK0   BANK1   BANK3   BANK2
  1491 ;;      Params:         0       0       0       0       0
  1492 ;;      Locals:         0       0       0       0       0
  1493 ;;      Temps:          0       3       0       0       0
  1494 ;;      Totals:         0       3       0       0       0
  1495 ;;Total ram usage:        3 bytes
  1496 ;; Hardware stack levels used: 1
  1497 ;; Hardware stack levels required when called: 5
  1498 ;; This function calls:
  1499 ;;		_map
  1500 ;;		_mapeo
  1501 ;; This function is called by:
  1502 ;;		_main
  1503 ;; This function uses a non-reentrant model
  1504 ;;
  1505                           
  1506     05C8                     _controlmotores:	
  1507                           ;psect for function _controlmotores
  1508                           
  1509     05C8                     l2538:	
  1510                           ;incstack = 0
  1511                           ; Regs used in _controlmotores: [wreg+status,2+status,0+btemp+1+pclath+cstack]
  1512                           
  1513                           
  1514                           ;main.c: 252:     ADCON0bits.CHS = 0b0000;
  1515     05C8  30C3               	movlw	-61
  1516     05C9  1283               	bcf	3,5	;RP0=0, select bank0
  1517     05CA  1303               	bcf	3,6	;RP1=0, select bank0
  1518     05CB  059F               	andwf	31,f	;volatile
  1519     05CC                     l2540:
  1520                           
  1521                           ;main.c: 253:     _delay((unsigned long)((100)*(500000/4000000.0)));
  1522     05CC  3003               	movlw	3
  1523     05CD  1283               	bcf	3,5	;RP0=0, select bank0
  1524     05CE  1303               	bcf	3,6	;RP1=0, select bank0
  1525     05CF  00EB               	movwf	??_controlmotores
  1526     05D0                     u3517:
  1527     05D0  0BEB               	decfsz	??_controlmotores,f
  1528     05D1  2DD0               	goto	u3517
  1529     05D2                     l2542:
  1530                           
  1531                           ;main.c: 254:     ADCON0bits.GO = 1;
  1532     05D2  1283               	bcf	3,5	;RP0=0, select bank0
  1533     05D3  1303               	bcf	3,6	;RP1=0, select bank0
  1534     05D4  149F               	bsf	31,1	;volatile
  1535     05D5                     l182:	
  1536                           ;main.c: 256:     while(ADCON0bits.GO == 1);
  1537                           
  1538     05D5  189F               	btfsc	31,1	;volatile
  1539     05D6  2DD8               	goto	u3431
  1540     05D7  2DD9               	goto	u3430
  1541     05D8                     u3431:
  1542     05D8  2DD5               	goto	l182
  1543     05D9                     u3430:
  1544     05D9                     l184:
  1545                           
  1546                           ;main.c: 257:     ADIF = 0;
  1547     05D9  130C               	bcf	12,6	;volatile
  1548     05DA                     l2544:
  1549                           
  1550                           ;main.c: 258:     mapeo();
  1551     05DA  120A  158A  2761  120A  118A  	fcall	_mapeo
  1552     05DF                     l2546:
  1553                           
  1554                           ;main.c: 259:     CCP1CONbits.DC1B = valDCL;
  1555     05DF  0872               	movf	_valDCL,w
  1556     05E0  1283               	bcf	3,5	;RP0=0, select bank0
  1557     05E1  1303               	bcf	3,6	;RP1=0, select bank0
  1558     05E2  00EB               	movwf	??_controlmotores
  1559     05E3  0EEB               	swapf	??_controlmotores,f
  1560     05E4  0817               	movf	23,w	;volatile
  1561     05E5  066B               	xorwf	??_controlmotores,w
  1562     05E6  39CF               	andlw	-49
  1563     05E7  066B               	xorwf	??_controlmotores,w
  1564     05E8  0097               	movwf	23	;volatile
  1565     05E9                     l2548:
  1566                           
  1567                           ;main.c: 260:     CCPR1L = valDCH;
  1568     05E9  0870               	movf	_valDCH,w
  1569     05EA  0095               	movwf	21	;volatile
  1570     05EB                     l2550:
  1571                           
  1572                           ;main.c: 261:     _delay((unsigned long)((1)*(500000/4000.0)));
  1573     05EB  3028               	movlw	40
  1574     05EC  1283               	bcf	3,5	;RP0=0, select bank0
  1575     05ED  1303               	bcf	3,6	;RP1=0, select bank0
  1576     05EE  00EB               	movwf	??_controlmotores
  1577     05EF                     u3527:
  1578     05EF  0BEB               	decfsz	??_controlmotores,f
  1579     05F0  2DEF               	goto	u3527
  1580     05F1  2DF2               	nop2
  1581     05F2                     l2552:
  1582                           
  1583                           ;main.c: 265:     ADCON0bits.CHS = 0b0001;
  1584     05F2  1283               	bcf	3,5	;RP0=0, select bank0
  1585     05F3  1303               	bcf	3,6	;RP1=0, select bank0
  1586     05F4  081F               	movf	31,w	;volatile
  1587     05F5  39C3               	andlw	-61
  1588     05F6  3804               	iorlw	4
  1589     05F7  009F               	movwf	31	;volatile
  1590     05F8                     l2554:
  1591                           
  1592                           ;main.c: 266:     _delay((unsigned long)((100)*(500000/4000000.0)));
  1593     05F8  3003               	movlw	3
  1594     05F9  1283               	bcf	3,5	;RP0=0, select bank0
  1595     05FA  1303               	bcf	3,6	;RP1=0, select bank0
  1596     05FB  00EB               	movwf	??_controlmotores
  1597     05FC                     u3537:
  1598     05FC  0BEB               	decfsz	??_controlmotores,f
  1599     05FD  2DFC               	goto	u3537
  1600     05FE                     l2556:
  1601                           
  1602                           ;main.c: 267:     ADCON0bits.GO = 1;
  1603     05FE  1283               	bcf	3,5	;RP0=0, select bank0
  1604     05FF  1303               	bcf	3,6	;RP1=0, select bank0
  1605     0600  149F               	bsf	31,1	;volatile
  1606     0601                     l185:	
  1607                           ;main.c: 269:     while(ADCON0bits.GO == 1);
  1608                           
  1609     0601  189F               	btfsc	31,1	;volatile
  1610     0602  2E04               	goto	u3441
  1611     0603  2E05               	goto	u3440
  1612     0604                     u3441:
  1613     0604  2E01               	goto	l185
  1614     0605                     u3440:
  1615     0605                     l187:
  1616                           
  1617                           ;main.c: 270:     ADIF = 0;
  1618     0605  130C               	bcf	12,6	;volatile
  1619     0606                     l2558:
  1620                           
  1621                           ;main.c: 271:     mapeo();
  1622     0606  120A  158A  2761  120A  118A  	fcall	_mapeo
  1623     060B                     l2560:
  1624                           
  1625                           ;main.c: 272:     CCP2CONbits.DC2B0 = valDCL & 0x01;
  1626     060B  0872               	movf	_valDCL,w
  1627     060C  3901               	andlw	1
  1628     060D  1283               	bcf	3,5	;RP0=0, select bank0
  1629     060E  1303               	bcf	3,6	;RP1=0, select bank0
  1630     060F  00EB               	movwf	??_controlmotores
  1631     0610  0EEB               	swapf	??_controlmotores,f
  1632     0611  081D               	movf	29,w	;volatile
  1633     0612  066B               	xorwf	??_controlmotores,w
  1634     0613  39EF               	andlw	-17
  1635     0614  066B               	xorwf	??_controlmotores,w
  1636     0615  009D               	movwf	29	;volatile
  1637     0616                     l2562:
  1638                           
  1639                           ;main.c: 273:     CCP2CONbits.DC2B1 = (valDCL & 0x02) >> 1;
  1640     0616  0873               	movf	_valDCL+1,w
  1641     0617  00EC               	movwf	??_controlmotores+1
  1642     0618  0872               	movf	_valDCL,w
  1643     0619  00EB               	movwf	??_controlmotores
  1644     061A  1003               	clrc
  1645     061B  0CEC               	rrf	??_controlmotores+1,f
  1646     061C  0CEB               	rrf	??_controlmotores,f
  1647     061D  086B               	movf	??_controlmotores,w
  1648     061E  3901               	andlw	1
  1649     061F  00ED               	movwf	??_controlmotores+2
  1650     0620  0EED               	swapf	??_controlmotores+2,f
  1651     0621  0DED               	rlf	??_controlmotores+2,f
  1652     0622  081D               	movf	29,w	;volatile
  1653     0623  066D               	xorwf	??_controlmotores+2,w
  1654     0624  39DF               	andlw	-33
  1655     0625  066D               	xorwf	??_controlmotores+2,w
  1656     0626  009D               	movwf	29	;volatile
  1657     0627                     l2564:
  1658                           
  1659                           ;main.c: 274:     CCPR2L = valDCH;
  1660     0627  0870               	movf	_valDCH,w
  1661     0628  009B               	movwf	27	;volatile
  1662     0629                     l2566:
  1663                           
  1664                           ;main.c: 275:     _delay((unsigned long)((1)*(500000/4000.0)));
  1665     0629  3028               	movlw	40
  1666     062A  1283               	bcf	3,5	;RP0=0, select bank0
  1667     062B  1303               	bcf	3,6	;RP1=0, select bank0
  1668     062C  00EB               	movwf	??_controlmotores
  1669     062D                     u3547:
  1670     062D  0BEB               	decfsz	??_controlmotores,f
  1671     062E  2E2D               	goto	u3547
  1672     062F  2E30               	nop2
  1673     0630                     l2568:
  1674                           
  1675                           ;main.c: 279:     ADCON0bits.CHS = 0b0010;
  1676     0630  1283               	bcf	3,5	;RP0=0, select bank0
  1677     0631  1303               	bcf	3,6	;RP1=0, select bank0
  1678     0632  081F               	movf	31,w	;volatile
  1679     0633  39C3               	andlw	-61
  1680     0634  3808               	iorlw	8
  1681     0635  009F               	movwf	31	;volatile
  1682     0636                     l2570:
  1683                           
  1684                           ;main.c: 280:     _delay((unsigned long)((100)*(500000/4000000.0)));
  1685     0636  3003               	movlw	3
  1686     0637  1283               	bcf	3,5	;RP0=0, select bank0
  1687     0638  1303               	bcf	3,6	;RP1=0, select bank0
  1688     0639  00EB               	movwf	??_controlmotores
  1689     063A                     u3557:
  1690     063A  0BEB               	decfsz	??_controlmotores,f
  1691     063B  2E3A               	goto	u3557
  1692     063C                     l2572:
  1693                           
  1694                           ;main.c: 281:     ADCON0bits.GO = 1;
  1695     063C  1283               	bcf	3,5	;RP0=0, select bank0
  1696     063D  1303               	bcf	3,6	;RP1=0, select bank0
  1697     063E  149F               	bsf	31,1	;volatile
  1698     063F                     l188:	
  1699                           ;main.c: 283:     while(ADCON0bits.GO == 1);
  1700                           
  1701     063F  189F               	btfsc	31,1	;volatile
  1702     0640  2E42               	goto	u3451
  1703     0641  2E43               	goto	u3450
  1704     0642                     u3451:
  1705     0642  2E3F               	goto	l188
  1706     0643                     u3450:
  1707     0643                     l190:
  1708                           
  1709                           ;main.c: 284:     ADIF = 0;
  1710     0643  130C               	bcf	12,6	;volatile
  1711     0644                     l2574:
  1712                           
  1713                           ;main.c: 285:     pot = map(ADRESH, 0, 255, 1, 17);
  1714     0644  3000               	movlw	0
  1715     0645  00AF               	movwf	map@inputmin
  1716     0646  00B0               	movwf	map@inputmin+1
  1717     0647  30FF               	movlw	255
  1718     0648  00B1               	movwf	map@inputmax
  1719     0649  3000               	movlw	0
  1720     064A  00B2               	movwf	map@inputmax+1
  1721     064B  3001               	movlw	1
  1722     064C  00B3               	movwf	map@outmin
  1723     064D  3000               	movlw	0
  1724     064E  00B4               	movwf	map@outmin+1
  1725     064F  3011               	movlw	17
  1726     0650  00B5               	movwf	map@outmax
  1727     0651  3000               	movlw	0
  1728     0652  00B6               	movwf	map@outmax+1
  1729     0653  081E               	movf	30,w	;volatile
  1730     0654  120A  158A  260E  120A  118A  	fcall	_map
  1731     0659  1283               	bcf	3,5	;RP0=0, select bank0
  1732     065A  1303               	bcf	3,6	;RP1=0, select bank0
  1733     065B  0830               	movf	?_map+1,w
  1734     065C  1683               	bsf	3,5	;RP0=1, select bank1
  1735     065D  1303               	bcf	3,6	;RP1=0, select bank1
  1736     065E  00A5               	movwf	(_pot+1)^(0+128)
  1737     065F  1283               	bcf	3,5	;RP0=0, select bank0
  1738     0660  1303               	bcf	3,6	;RP1=0, select bank0
  1739     0661  082F               	movf	?_map,w
  1740     0662  1683               	bsf	3,5	;RP0=1, select bank1
  1741     0663  1303               	bcf	3,6	;RP1=0, select bank1
  1742     0664  00A4               	movwf	_pot^(0+128)
  1743     0665                     l2576:
  1744                           
  1745                           ;main.c: 287:     _delay((unsigned long)((1)*(500000/4000.0)));
  1746     0665  3028               	movlw	40
  1747     0666  1283               	bcf	3,5	;RP0=0, select bank0
  1748     0667  1303               	bcf	3,6	;RP1=0, select bank0
  1749     0668  00EB               	movwf	??_controlmotores
  1750     0669                     u3567:
  1751     0669  0BEB               	decfsz	??_controlmotores,f
  1752     066A  2E69               	goto	u3567
  1753     066B  2E6C               	nop2
  1754     066C                     l2578:
  1755                           
  1756                           ;main.c: 290:     ADCON0bits.CHS = 0b0011;
  1757     066C  1283               	bcf	3,5	;RP0=0, select bank0
  1758     066D  1303               	bcf	3,6	;RP1=0, select bank0
  1759     066E  081F               	movf	31,w	;volatile
  1760     066F  39C3               	andlw	-61
  1761     0670  380C               	iorlw	12
  1762     0671  009F               	movwf	31	;volatile
  1763     0672                     l2580:
  1764                           
  1765                           ;main.c: 291:     _delay((unsigned long)((100)*(500000/4000000.0)));
  1766     0672  3003               	movlw	3
  1767     0673  1283               	bcf	3,5	;RP0=0, select bank0
  1768     0674  1303               	bcf	3,6	;RP1=0, select bank0
  1769     0675  00EB               	movwf	??_controlmotores
  1770     0676                     u3577:
  1771     0676  0BEB               	decfsz	??_controlmotores,f
  1772     0677  2E76               	goto	u3577
  1773     0678                     l2582:
  1774                           
  1775                           ;main.c: 292:     ADCON0bits.GO = 1;
  1776     0678  1283               	bcf	3,5	;RP0=0, select bank0
  1777     0679  1303               	bcf	3,6	;RP1=0, select bank0
  1778     067A  149F               	bsf	31,1	;volatile
  1779     067B                     l191:	
  1780                           ;main.c: 294:     while(ADCON0bits.GO == 1);
  1781                           
  1782     067B  189F               	btfsc	31,1	;volatile
  1783     067C  2E7E               	goto	u3461
  1784     067D  2E7F               	goto	u3460
  1785     067E                     u3461:
  1786     067E  2E7B               	goto	l191
  1787     067F                     u3460:
  1788     067F                     l193:
  1789                           
  1790                           ;main.c: 295:     ADIF = 0;
  1791     067F  130C               	bcf	12,6	;volatile
  1792     0680                     l2584:
  1793                           
  1794                           ;main.c: 296:     pot1 = map(ADRESH, 0, 255, 1, 17);
  1795     0680  3000               	movlw	0
  1796     0681  00AF               	movwf	map@inputmin
  1797     0682  00B0               	movwf	map@inputmin+1
  1798     0683  30FF               	movlw	255
  1799     0684  00B1               	movwf	map@inputmax
  1800     0685  3000               	movlw	0
  1801     0686  00B2               	movwf	map@inputmax+1
  1802     0687  3001               	movlw	1
  1803     0688  00B3               	movwf	map@outmin
  1804     0689  3000               	movlw	0
  1805     068A  00B4               	movwf	map@outmin+1
  1806     068B  3011               	movlw	17
  1807     068C  00B5               	movwf	map@outmax
  1808     068D  3000               	movlw	0
  1809     068E  00B6               	movwf	map@outmax+1
  1810     068F  081E               	movf	30,w	;volatile
  1811     0690  120A  158A  260E  120A  118A  	fcall	_map
  1812     0695  1283               	bcf	3,5	;RP0=0, select bank0
  1813     0696  1303               	bcf	3,6	;RP1=0, select bank0
  1814     0697  0830               	movf	?_map+1,w
  1815     0698  1683               	bsf	3,5	;RP0=1, select bank1
  1816     0699  1303               	bcf	3,6	;RP1=0, select bank1
  1817     069A  00A3               	movwf	(_pot1+1)^(0+128)
  1818     069B  1283               	bcf	3,5	;RP0=0, select bank0
  1819     069C  1303               	bcf	3,6	;RP1=0, select bank0
  1820     069D  082F               	movf	?_map,w
  1821     069E  1683               	bsf	3,5	;RP0=1, select bank1
  1822     069F  1303               	bcf	3,6	;RP1=0, select bank1
  1823     06A0  00A2               	movwf	_pot1^(0+128)
  1824     06A1                     l2586:
  1825                           
  1826                           ;main.c: 298:     _delay((unsigned long)((1)*(500000/4000.0)));
  1827     06A1  3028               	movlw	40
  1828     06A2  1283               	bcf	3,5	;RP0=0, select bank0
  1829     06A3  1303               	bcf	3,6	;RP1=0, select bank0
  1830     06A4  00EB               	movwf	??_controlmotores
  1831     06A5                     u3587:
  1832     06A5  0BEB               	decfsz	??_controlmotores,f
  1833     06A6  2EA5               	goto	u3587
  1834     06A7  2EA8               	nop2
  1835     06A8                     l194:
  1836     06A8  0008               	return
  1837     06A9                     __end_of_controlmotores:
  1838                           
  1839                           	psect	text8
  1840     0F61                     __ptext8:	
  1841 ;; *************** function _mapeo *****************
  1842 ;; Defined at:
  1843 ;;		line 240 in file "main.c"
  1844 ;; Parameters:    Size  Location     Type
  1845 ;;		None
  1846 ;; Auto vars:     Size  Location     Type
  1847 ;;		None
  1848 ;; Return value:  Size  Location     Type
  1849 ;;                  1    wreg      void 
  1850 ;; Registers used:
  1851 ;;		wreg, status,2, status,0, btemp+1, pclath, cstack
  1852 ;; Tracked objects:
  1853 ;;		On entry : 0/0
  1854 ;;		On exit  : 0/0
  1855 ;;		Unchanged: 0/0
  1856 ;; Data sizes:     COMMON   BANK0   BANK1   BANK3   BANK2
  1857 ;;      Params:         0       0       0       0       0
  1858 ;;      Locals:         0       0       0       0       0
  1859 ;;      Temps:          0       5       0       0       0
  1860 ;;      Totals:         0       5       0       0       0
  1861 ;;Total ram usage:        5 bytes
  1862 ;; Hardware stack levels used: 1
  1863 ;; Hardware stack levels required when called: 4
  1864 ;; This function calls:
  1865 ;;		___fladd
  1866 ;;		___flmul
  1867 ;;		___fltol
  1868 ;;		___xxtofl
  1869 ;; This function is called by:
  1870 ;;		_controlmotores
  1871 ;; This function uses a non-reentrant model
  1872 ;;
  1873                           
  1874     0F61                     _mapeo:	
  1875                           ;psect for function _mapeo
  1876                           
  1877     0F61                     l2440:	
  1878                           ;incstack = 0
  1879                           ; Regs used in _mapeo: [wreg+status,2+status,0+btemp+1+pclath+cstack]
  1880                           
  1881                           
  1882                           ;main.c: 241:     ADC_RES = ((ADRESH<<2)+(ADRESL>>6));
  1883     0F61  1683               	bsf	3,5	;RP0=1, select bank1
  1884     0F62  1303               	bcf	3,6	;RP1=0, select bank1
  1885     0F63  081E               	movf	30,w	;volatile
  1886     0F64  1283               	bcf	3,5	;RP0=0, select bank0
  1887     0F65  1303               	bcf	3,6	;RP1=0, select bank0
  1888     0F66  00E6               	movwf	??_mapeo
  1889     0F67  3006               	movlw	6
  1890     0F68                     u3375:
  1891     0F68  1003               	clrc
  1892     0F69  0CE6               	rrf	??_mapeo,f
  1893     0F6A  3EFF               	addlw	-1
  1894     0F6B  1D03               	skipz
  1895     0F6C  2F68               	goto	u3375
  1896     0F6D  081E               	movf	30,w	;volatile
  1897     0F6E  00E7               	movwf	??_mapeo+1
  1898     0F6F  01E8               	clrf	??_mapeo+2
  1899     0F70  1003               	clrc
  1900     0F71  0DE7               	rlf	??_mapeo+1,f
  1901     0F72  0DE8               	rlf	??_mapeo+2,f
  1902     0F73  1003               	clrc
  1903     0F74  0DE7               	rlf	??_mapeo+1,f
  1904     0F75  0DE8               	rlf	??_mapeo+2,f
  1905     0F76  0866               	movf	??_mapeo,w
  1906     0F77  0767               	addwf	??_mapeo+1,w
  1907     0F78  00E9               	movwf	??_mapeo+3
  1908     0F79  3000               	movlw	0
  1909     0F7A  1803               	skipnc
  1910     0F7B  3001               	movlw	1
  1911     0F7C  0768               	addwf	??_mapeo+2,w
  1912     0F7D  00EA               	movwf	??_mapeo+4
  1913     0F7E  0869               	movf	??_mapeo+3,w
  1914     0F7F  1683               	bsf	3,5	;RP0=1, select bank1
  1915     0F80  1303               	bcf	3,6	;RP1=0, select bank1
  1916     0F81  00AB               	movwf	_ADC_RES^(0+128)
  1917     0F82  1283               	bcf	3,5	;RP0=0, select bank0
  1918     0F83  1303               	bcf	3,6	;RP1=0, select bank0
  1919     0F84  086A               	movf	??_mapeo+4,w
  1920     0F85  1683               	bsf	3,5	;RP0=1, select bank1
  1921     0F86  1303               	bcf	3,6	;RP1=0, select bank1
  1922     0F87  00AC               	movwf	(_ADC_RES+1)^(0+128)
  1923     0F88                     l2442:
  1924                           
  1925                           ;main.c: 242:     valDC = (0.033*ADC_RES+32);
  1926     0F88  082B               	movf	_ADC_RES^(0+128),w
  1927     0F89  1283               	bcf	3,5	;RP0=0, select bank0
  1928     0F8A  1303               	bcf	3,6	;RP1=0, select bank0
  1929     0F8B  00A0               	movwf	___xxtofl@val
  1930     0F8C  1683               	bsf	3,5	;RP0=1, select bank1
  1931     0F8D  1303               	bcf	3,6	;RP1=0, select bank1
  1932     0F8E  082C               	movf	(_ADC_RES+1)^(0+128),w
  1933     0F8F  1283               	bcf	3,5	;RP0=0, select bank0
  1934     0F90  1303               	bcf	3,6	;RP1=0, select bank0
  1935     0F91  00A1               	movwf	___xxtofl@val+1
  1936     0F92  01A2               	clrf	___xxtofl@val+2
  1937     0F93  01A3               	clrf	___xxtofl@val+3
  1938     0F94  3000               	movlw	0
  1939     0F95  120A  118A  26A9  120A  158A  	fcall	___xxtofl
  1940     0F9A  1283               	bcf	3,5	;RP0=0, select bank0
  1941     0F9B  1303               	bcf	3,6	;RP1=0, select bank0
  1942     0F9C  0823               	movf	?___xxtofl+3,w
  1943     0F9D  00B5               	movwf	___flmul@a+3
  1944     0F9E  0822               	movf	?___xxtofl+2,w
  1945     0F9F  00B4               	movwf	___flmul@a+2
  1946     0FA0  0821               	movf	?___xxtofl+1,w
  1947     0FA1  00B3               	movwf	___flmul@a+1
  1948     0FA2  0820               	movf	?___xxtofl,w
  1949     0FA3  00B2               	movwf	___flmul@a
  1950     0FA4  303D               	movlw	61
  1951     0FA5  00B1               	movwf	___flmul@b+3
  1952     0FA6  3007               	movlw	7
  1953     0FA7  00B0               	movwf	___flmul@b+2
  1954     0FA8  302B               	movlw	43
  1955     0FA9  00AF               	movwf	___flmul@b+1
  1956     0FAA  3002               	movlw	2
  1957     0FAB  00AE               	movwf	___flmul@b
  1958     0FAC  120A  118A  202B  120A  158A  	fcall	___flmul
  1959     0FB1  1283               	bcf	3,5	;RP0=0, select bank0
  1960     0FB2  1303               	bcf	3,6	;RP1=0, select bank0
  1961     0FB3  0831               	movf	?___flmul+3,w
  1962     0FB4  00CF               	movwf	___fladd@a+3
  1963     0FB5  0830               	movf	?___flmul+2,w
  1964     0FB6  00CE               	movwf	___fladd@a+2
  1965     0FB7  082F               	movf	?___flmul+1,w
  1966     0FB8  00CD               	movwf	___fladd@a+1
  1967     0FB9  082E               	movf	?___flmul,w
  1968     0FBA  00CC               	movwf	___fladd@a
  1969     0FBB  3042               	movlw	66
  1970     0FBC  00CB               	movwf	___fladd@b+3
  1971     0FBD  3000               	movlw	0
  1972     0FBE  00CA               	movwf	___fladd@b+2
  1973     0FBF  3000               	movlw	0
  1974     0FC0  00C9               	movwf	___fladd@b+1
  1975     0FC1  3000               	movlw	0
  1976     0FC2  00C8               	movwf	___fladd@b
  1977     0FC3  120A  118A  2370  120A  158A  	fcall	___fladd
  1978     0FC8  1283               	bcf	3,5	;RP0=0, select bank0
  1979     0FC9  1303               	bcf	3,6	;RP1=0, select bank0
  1980     0FCA  084B               	movf	?___fladd+3,w
  1981     0FCB  00DF               	movwf	___fltol@f1+3
  1982     0FCC  084A               	movf	?___fladd+2,w
  1983     0FCD  00DE               	movwf	___fltol@f1+2
  1984     0FCE  0849               	movf	?___fladd+1,w
  1985     0FCF  00DD               	movwf	___fltol@f1+1
  1986     0FD0  0848               	movf	?___fladd,w
  1987     0FD1  00DC               	movwf	___fltol@f1
  1988     0FD2  120A  118A  2763  120A  158A  	fcall	___fltol
  1989     0FD7  1283               	bcf	3,5	;RP0=0, select bank0
  1990     0FD8  1303               	bcf	3,6	;RP1=0, select bank0
  1991     0FD9  085D               	movf	?___fltol+1,w
  1992     0FDA  1683               	bsf	3,5	;RP0=1, select bank1
  1993     0FDB  1303               	bcf	3,6	;RP1=0, select bank1
  1994     0FDC  00A7               	movwf	(_valDC+1)^(0+128)
  1995     0FDD  1283               	bcf	3,5	;RP0=0, select bank0
  1996     0FDE  1303               	bcf	3,6	;RP1=0, select bank0
  1997     0FDF  085C               	movf	?___fltol,w
  1998     0FE0  1683               	bsf	3,5	;RP0=1, select bank1
  1999     0FE1  1303               	bcf	3,6	;RP1=0, select bank1
  2000     0FE2  00A6               	movwf	_valDC^(0+128)
  2001     0FE3                     l2444:
  2002                           
  2003                           ;main.c: 243:     valDCL = valDC & 0x003;
  2004     0FE3  3003               	movlw	3
  2005     0FE4  0526               	andwf	_valDC^(0+128),w
  2006     0FE5  00F2               	movwf	_valDCL
  2007     0FE6  3000               	movlw	0
  2008     0FE7  0527               	andwf	(_valDC+1)^(0+128),w
  2009     0FE8  00F3               	movwf	_valDCL+1
  2010     0FE9                     l2446:
  2011                           
  2012                           ;main.c: 244:     valDCH = (valDC & 0x3FC) >> 2;
  2013     0FE9  0827               	movf	(_valDC+1)^(0+128),w
  2014     0FEA  1283               	bcf	3,5	;RP0=0, select bank0
  2015     0FEB  1303               	bcf	3,6	;RP1=0, select bank0
  2016     0FEC  00E7               	movwf	??_mapeo+1
  2017     0FED  1683               	bsf	3,5	;RP0=1, select bank1
  2018     0FEE  1303               	bcf	3,6	;RP1=0, select bank1
  2019     0FEF  0826               	movf	_valDC^(0+128),w
  2020     0FF0  1283               	bcf	3,5	;RP0=0, select bank0
  2021     0FF1  1303               	bcf	3,6	;RP1=0, select bank0
  2022     0FF2  00E6               	movwf	??_mapeo
  2023     0FF3  1003               	clrc
  2024     0FF4  0CE7               	rrf	??_mapeo+1,f
  2025     0FF5  0CE6               	rrf	??_mapeo,f
  2026     0FF6  1003               	clrc
  2027     0FF7  0CE7               	rrf	??_mapeo+1,f
  2028     0FF8  0CE6               	rrf	??_mapeo,f
  2029     0FF9  30FF               	movlw	255
  2030     0FFA  0566               	andwf	??_mapeo,w
  2031     0FFB  00F0               	movwf	_valDCH
  2032     0FFC  3000               	movlw	0
  2033     0FFD  0567               	andwf	??_mapeo+1,w
  2034     0FFE  00F1               	movwf	_valDCH+1
  2035     0FFF                     l179:
  2036     0FFF  0008               	return
  2037     1000                     __end_of_mapeo:
  2038                           
  2039                           	psect	text9
  2040     06A9                     __ptext9:	
  2041 ;; *************** function ___xxtofl *****************
  2042 ;; Defined at:
  2043 ;;		line 10 in file "C:\Program Files\Microchip\xc8\v2.40\pic\sources\c90\common\xxtofl.c"
  2044 ;; Parameters:    Size  Location     Type
  2045 ;;  sign            1    wreg     unsigned char 
  2046 ;;  val             4    0[BANK0 ] long 
  2047 ;; Auto vars:     Size  Location     Type
  2048 ;;  sign            1    8[BANK0 ] unsigned char 
  2049 ;;  arg             4   10[BANK0 ] unsigned long 
  2050 ;;  exp             1    9[BANK0 ] unsigned char 
  2051 ;; Return value:  Size  Location     Type
  2052 ;;                  4    0[BANK0 ] unsigned char 
  2053 ;; Registers used:
  2054 ;;		wreg, status,2, status,0
  2055 ;; Tracked objects:
  2056 ;;		On entry : 0/0
  2057 ;;		On exit  : 0/0
  2058 ;;		Unchanged: 0/0
  2059 ;; Data sizes:     COMMON   BANK0   BANK1   BANK3   BANK2
  2060 ;;      Params:         0       4       0       0       0
  2061 ;;      Locals:         0       6       0       0       0
  2062 ;;      Temps:          0       4       0       0       0
  2063 ;;      Totals:         0      14       0       0       0
  2064 ;;Total ram usage:       14 bytes
  2065 ;; Hardware stack levels used: 1
  2066 ;; Hardware stack levels required when called: 2
  2067 ;; This function calls:
  2068 ;;		Nothing
  2069 ;; This function is called by:
  2070 ;;		_mapeo
  2071 ;; This function uses a non-reentrant model
  2072 ;;
  2073                           
  2074     06A9                     ___xxtofl:	
  2075                           ;psect for function ___xxtofl
  2076                           
  2077                           
  2078                           ;incstack = 0
  2079                           ; Regs used in ___xxtofl: [wreg+status,2+status,0]
  2080                           ;___xxtofl@sign stored from wreg
  2081     06A9  1283               	bcf	3,5	;RP0=0, select bank0
  2082     06AA  1303               	bcf	3,6	;RP1=0, select bank0
  2083     06AB  00A8               	movwf	___xxtofl@sign
  2084     06AC                     l1986:
  2085     06AC  0828               	movf	___xxtofl@sign,w
  2086     06AD  1903               	btfsc	3,2
  2087     06AE  2EB0               	goto	u2581
  2088     06AF  2EB1               	goto	u2580
  2089     06B0                     u2581:
  2090     06B0  2EC5               	goto	l1992
  2091     06B1                     u2580:
  2092     06B1                     l1988:
  2093     06B1  1FA3               	btfss	___xxtofl@val+3,7
  2094     06B2  2EB4               	goto	u2591
  2095     06B3  2EB5               	goto	u2590
  2096     06B4                     u2591:
  2097     06B4  2EC5               	goto	l1992
  2098     06B5                     u2590:
  2099     06B5                     l1990:
  2100     06B5  0920               	comf	___xxtofl@val,w
  2101     06B6  00AA               	movwf	___xxtofl@arg
  2102     06B7  0921               	comf	___xxtofl@val+1,w
  2103     06B8  00AB               	movwf	___xxtofl@arg+1
  2104     06B9  0922               	comf	___xxtofl@val+2,w
  2105     06BA  00AC               	movwf	___xxtofl@arg+2
  2106     06BB  0923               	comf	___xxtofl@val+3,w
  2107     06BC  00AD               	movwf	___xxtofl@arg+3
  2108     06BD  0AAA               	incf	___xxtofl@arg,f
  2109     06BE  1903               	skipnz
  2110     06BF  0AAB               	incf	___xxtofl@arg+1,f
  2111     06C0  1903               	skipnz
  2112     06C1  0AAC               	incf	___xxtofl@arg+2,f
  2113     06C2  1903               	skipnz
  2114     06C3  0AAD               	incf	___xxtofl@arg+3,f
  2115     06C4  2ECD               	goto	l733
  2116     06C5                     l1992:
  2117     06C5  0823               	movf	___xxtofl@val+3,w
  2118     06C6  00AD               	movwf	___xxtofl@arg+3
  2119     06C7  0822               	movf	___xxtofl@val+2,w
  2120     06C8  00AC               	movwf	___xxtofl@arg+2
  2121     06C9  0821               	movf	___xxtofl@val+1,w
  2122     06CA  00AB               	movwf	___xxtofl@arg+1
  2123     06CB  0820               	movf	___xxtofl@val,w
  2124     06CC  00AA               	movwf	___xxtofl@arg
  2125     06CD                     l733:
  2126     06CD  0823               	movf	___xxtofl@val+3,w
  2127     06CE  0422               	iorwf	___xxtofl@val+2,w
  2128     06CF  0421               	iorwf	___xxtofl@val+1,w
  2129     06D0  0420               	iorwf	___xxtofl@val,w
  2130     06D1  1D03               	skipz
  2131     06D2  2ED4               	goto	u2601
  2132     06D3  2ED5               	goto	u2600
  2133     06D4                     u2601:
  2134     06D4  2EDE               	goto	l1998
  2135     06D5                     u2600:
  2136     06D5                     l1994:
  2137     06D5  3000               	movlw	0
  2138     06D6  00A3               	movwf	?___xxtofl+3
  2139     06D7  3000               	movlw	0
  2140     06D8  00A2               	movwf	?___xxtofl+2
  2141     06D9  3000               	movlw	0
  2142     06DA  00A1               	movwf	?___xxtofl+1
  2143     06DB  3000               	movlw	0
  2144     06DC  00A0               	movwf	?___xxtofl
  2145     06DD  2F62               	goto	l735
  2146     06DE                     l1998:
  2147     06DE  3096               	movlw	150
  2148     06DF  00A9               	movwf	___xxtofl@exp
  2149     06E0  2EEE               	goto	l2002
  2150     06E1                     l2000:
  2151     06E1  3001               	movlw	1
  2152     06E2  00A4               	movwf	??___xxtofl
  2153     06E3  0824               	movf	??___xxtofl,w
  2154     06E4  07A9               	addwf	___xxtofl@exp,f
  2155     06E5  3001               	movlw	1
  2156     06E6                     u2615:
  2157     06E6  1003               	clrc
  2158     06E7  0CAD               	rrf	___xxtofl@arg+3,f
  2159     06E8  0CAC               	rrf	___xxtofl@arg+2,f
  2160     06E9  0CAB               	rrf	___xxtofl@arg+1,f
  2161     06EA  0CAA               	rrf	___xxtofl@arg,f
  2162     06EB  3EFF               	addlw	-1
  2163     06EC  1D03               	skipz
  2164     06ED  2EE6               	goto	u2615
  2165     06EE                     l2002:
  2166     06EE  30FE               	movlw	254
  2167     06EF  052D               	andwf	___xxtofl@arg+3,w
  2168     06F0  1D03               	btfss	3,2
  2169     06F1  2EF3               	goto	u2621
  2170     06F2  2EF4               	goto	u2620
  2171     06F3                     u2621:
  2172     06F3  2EE1               	goto	l2000
  2173     06F4                     u2620:
  2174     06F4  2F10               	goto	l739
  2175     06F5                     l2004:
  2176     06F5  3001               	movlw	1
  2177     06F6  00A4               	movwf	??___xxtofl
  2178     06F7  0824               	movf	??___xxtofl,w
  2179     06F8  07A9               	addwf	___xxtofl@exp,f
  2180     06F9                     l2006:
  2181     06F9  3001               	movlw	1
  2182     06FA  07AA               	addwf	___xxtofl@arg,f
  2183     06FB  3000               	movlw	0
  2184     06FC  1803               	skipnc
  2185     06FD  3001               	movlw	1
  2186     06FE  07AB               	addwf	___xxtofl@arg+1,f
  2187     06FF  3000               	movlw	0
  2188     0700  1803               	skipnc
  2189     0701  3001               	movlw	1
  2190     0702  07AC               	addwf	___xxtofl@arg+2,f
  2191     0703  3000               	movlw	0
  2192     0704  1803               	skipnc
  2193     0705  3001               	movlw	1
  2194     0706  07AD               	addwf	___xxtofl@arg+3,f
  2195     0707                     l2008:
  2196     0707  3001               	movlw	1
  2197     0708                     u2635:
  2198     0708  1003               	clrc
  2199     0709  0CAD               	rrf	___xxtofl@arg+3,f
  2200     070A  0CAC               	rrf	___xxtofl@arg+2,f
  2201     070B  0CAB               	rrf	___xxtofl@arg+1,f
  2202     070C  0CAA               	rrf	___xxtofl@arg,f
  2203     070D  3EFF               	addlw	-1
  2204     070E  1D03               	skipz
  2205     070F  2F08               	goto	u2635
  2206     0710                     l739:
  2207     0710  30FF               	movlw	255
  2208     0711  052D               	andwf	___xxtofl@arg+3,w
  2209     0712  1D03               	btfss	3,2
  2210     0713  2F15               	goto	u2641
  2211     0714  2F16               	goto	u2640
  2212     0715                     u2641:
  2213     0715  2EF5               	goto	l2004
  2214     0716                     u2640:
  2215     0716  2F22               	goto	l2012
  2216     0717                     l2010:
  2217     0717  3001               	movlw	1
  2218     0718  02A9               	subwf	___xxtofl@exp,f
  2219     0719  3001               	movlw	1
  2220     071A  00A4               	movwf	??___xxtofl
  2221     071B                     u2655:
  2222     071B  1003               	clrc
  2223     071C  0DAA               	rlf	___xxtofl@arg,f
  2224     071D  0DAB               	rlf	___xxtofl@arg+1,f
  2225     071E  0DAC               	rlf	___xxtofl@arg+2,f
  2226     071F  0DAD               	rlf	___xxtofl@arg+3,f
  2227     0720  0BA4               	decfsz	??___xxtofl,f
  2228     0721  2F1B               	goto	u2655
  2229     0722                     l2012:
  2230     0722  1BAC               	btfsc	___xxtofl@arg+2,7
  2231     0723  2F25               	goto	u2661
  2232     0724  2F26               	goto	u2660
  2233     0725                     u2661:
  2234     0725  2F2C               	goto	l746
  2235     0726                     u2660:
  2236     0726                     l2014:
  2237     0726  3002               	movlw	2
  2238     0727  0229               	subwf	___xxtofl@exp,w
  2239     0728  1803               	skipnc
  2240     0729  2F2B               	goto	u2671
  2241     072A  2F2C               	goto	u2670
  2242     072B                     u2671:
  2243     072B  2F17               	goto	l2010
  2244     072C                     u2670:
  2245     072C                     l746:
  2246     072C  1829               	btfsc	___xxtofl@exp,0
  2247     072D  2F2F               	goto	u2681
  2248     072E  2F30               	goto	u2680
  2249     072F                     u2681:
  2250     072F  2F38               	goto	l747
  2251     0730                     u2680:
  2252     0730                     l2016:
  2253     0730  30FF               	movlw	255
  2254     0731  05AA               	andwf	___xxtofl@arg,f
  2255     0732  30FF               	movlw	255
  2256     0733  05AB               	andwf	___xxtofl@arg+1,f
  2257     0734  307F               	movlw	127
  2258     0735  05AC               	andwf	___xxtofl@arg+2,f
  2259     0736  30FF               	movlw	255
  2260     0737  05AD               	andwf	___xxtofl@arg+3,f
  2261     0738                     l747:
  2262     0738  1003               	clrc
  2263     0739  0CA9               	rrf	___xxtofl@exp,f
  2264     073A                     l2018:
  2265     073A  0829               	movf	___xxtofl@exp,w
  2266     073B  00A4               	movwf	??___xxtofl
  2267     073C  01A5               	clrf	??___xxtofl+1
  2268     073D  01A6               	clrf	??___xxtofl+2
  2269     073E  01A7               	clrf	??___xxtofl+3
  2270     073F  3018               	movlw	24
  2271     0740                     u2695:
  2272     0740  1003               	clrc
  2273     0741  0DA4               	rlf	??___xxtofl,f
  2274     0742  0DA5               	rlf	??___xxtofl+1,f
  2275     0743  0DA6               	rlf	??___xxtofl+2,f
  2276     0744  0DA7               	rlf	??___xxtofl+3,f
  2277     0745                     u2690:
  2278     0745  3EFF               	addlw	-1
  2279     0746  1D03               	skipz
  2280     0747  2F40               	goto	u2695
  2281     0748  0824               	movf	??___xxtofl,w
  2282     0749  04AA               	iorwf	___xxtofl@arg,f
  2283     074A  0825               	movf	??___xxtofl+1,w
  2284     074B  04AB               	iorwf	___xxtofl@arg+1,f
  2285     074C  0826               	movf	??___xxtofl+2,w
  2286     074D  04AC               	iorwf	___xxtofl@arg+2,f
  2287     074E  0827               	movf	??___xxtofl+3,w
  2288     074F  04AD               	iorwf	___xxtofl@arg+3,f
  2289     0750                     l2020:
  2290     0750  0828               	movf	___xxtofl@sign,w
  2291     0751  1903               	btfsc	3,2
  2292     0752  2F54               	goto	u2701
  2293     0753  2F55               	goto	u2700
  2294     0754                     u2701:
  2295     0754  2F5A               	goto	l2026
  2296     0755                     u2700:
  2297     0755                     l2022:
  2298     0755  1FA3               	btfss	___xxtofl@val+3,7
  2299     0756  2F58               	goto	u2711
  2300     0757  2F59               	goto	u2710
  2301     0758                     u2711:
  2302     0758  2F5A               	goto	l2026
  2303     0759                     u2710:
  2304     0759                     l2024:
  2305     0759  17AD               	bsf	___xxtofl@arg+3,7
  2306     075A                     l2026:
  2307     075A  082D               	movf	___xxtofl@arg+3,w
  2308     075B  00A3               	movwf	?___xxtofl+3
  2309     075C  082C               	movf	___xxtofl@arg+2,w
  2310     075D  00A2               	movwf	?___xxtofl+2
  2311     075E  082B               	movf	___xxtofl@arg+1,w
  2312     075F  00A1               	movwf	?___xxtofl+1
  2313     0760  082A               	movf	___xxtofl@arg,w
  2314     0761  00A0               	movwf	?___xxtofl
  2315     0762                     l735:
  2316     0762  0008               	return
  2317     0763                     __end_of___xxtofl:
  2318                           
  2319                           	psect	text10
  2320     0763                     __ptext10:	
  2321 ;; *************** function ___fltol *****************
  2322 ;; Defined at:
  2323 ;;		line 43 in file "C:\Program Files\Microchip\xc8\v2.40\pic\sources\c90\common\fltol.c"
  2324 ;; Parameters:    Size  Location     Type
  2325 ;;  f1              4   60[BANK0 ] unsigned char 
  2326 ;; Auto vars:     Size  Location     Type
  2327 ;;  exp1            1   69[BANK0 ] unsigned char 
  2328 ;;  sign1           1   68[BANK0 ] unsigned char 
  2329 ;; Return value:  Size  Location     Type
  2330 ;;                  4   60[BANK0 ] long 
  2331 ;; Registers used:
  2332 ;;		wreg, status,2, status,0
  2333 ;; Tracked objects:
  2334 ;;		On entry : 0/0
  2335 ;;		On exit  : 0/0
  2336 ;;		Unchanged: 0/0
  2337 ;; Data sizes:     COMMON   BANK0   BANK1   BANK3   BANK2
  2338 ;;      Params:         0       4       0       0       0
  2339 ;;      Locals:         0       2       0       0       0
  2340 ;;      Temps:          0       4       0       0       0
  2341 ;;      Totals:         0      10       0       0       0
  2342 ;;Total ram usage:       10 bytes
  2343 ;; Hardware stack levels used: 1
  2344 ;; Hardware stack levels required when called: 2
  2345 ;; This function calls:
  2346 ;;		Nothing
  2347 ;; This function is called by:
  2348 ;;		_mapeo
  2349 ;; This function uses a non-reentrant model
  2350 ;;
  2351                           
  2352     0763                     ___fltol:	
  2353                           ;psect for function ___fltol
  2354                           
  2355     0763                     l1616:	
  2356                           ;incstack = 0
  2357                           ; Regs used in ___fltol: [wreg+status,2+status,0]
  2358                           
  2359     0763  1003               	clrc
  2360     0764  1283               	bcf	3,5	;RP0=0, select bank0
  2361     0765  1303               	bcf	3,6	;RP1=0, select bank0
  2362     0766  0D5E               	rlf	___fltol@f1+2,w
  2363     0767  0D5F               	rlf	___fltol@f1+3,w
  2364     0768  00E5               	movwf	___fltol@exp1
  2365     0769  0865               	movf	___fltol@exp1,w
  2366     076A  1D03               	btfss	3,2
  2367     076B  2F6D               	goto	u1651
  2368     076C  2F6E               	goto	u1650
  2369     076D                     u1651:
  2370     076D  2F77               	goto	l1622
  2371     076E                     u1650:
  2372     076E                     l1618:
  2373     076E  3000               	movlw	0
  2374     076F  00DF               	movwf	?___fltol+3
  2375     0770  3000               	movlw	0
  2376     0771  00DE               	movwf	?___fltol+2
  2377     0772  3000               	movlw	0
  2378     0773  00DD               	movwf	?___fltol+1
  2379     0774  3000               	movlw	0
  2380     0775  00DC               	movwf	?___fltol
  2381     0776  2FDA               	goto	l486
  2382     0777                     l1622:
  2383     0777  085C               	movf	___fltol@f1,w
  2384     0778  00E0               	movwf	??___fltol
  2385     0779  085D               	movf	___fltol@f1+1,w
  2386     077A  00E1               	movwf	??___fltol+1
  2387     077B  085E               	movf	___fltol@f1+2,w
  2388     077C  00E2               	movwf	??___fltol+2
  2389     077D  085F               	movf	___fltol@f1+3,w
  2390     077E  00E3               	movwf	??___fltol+3
  2391     077F  301F               	movlw	31
  2392     0780                     u1665:
  2393     0780  1003               	clrc
  2394     0781  0CE3               	rrf	??___fltol+3,f
  2395     0782  0CE2               	rrf	??___fltol+2,f
  2396     0783  0CE1               	rrf	??___fltol+1,f
  2397     0784  0CE0               	rrf	??___fltol,f
  2398     0785                     u1660:
  2399     0785  3EFF               	addlw	-1
  2400     0786  1D03               	skipz
  2401     0787  2F80               	goto	u1665
  2402     0788  0860               	movf	??___fltol,w
  2403     0789  00E4               	movwf	___fltol@sign1
  2404     078A                     l1624:
  2405     078A  17DE               	bsf	___fltol@f1+2,7
  2406     078B                     l1626:
  2407     078B  30FF               	movlw	255
  2408     078C  05DC               	andwf	___fltol@f1,f
  2409     078D  30FF               	movlw	255
  2410     078E  05DD               	andwf	___fltol@f1+1,f
  2411     078F  30FF               	movlw	255
  2412     0790  05DE               	andwf	___fltol@f1+2,f
  2413     0791  3000               	movlw	0
  2414     0792  05DF               	andwf	___fltol@f1+3,f
  2415     0793                     l1628:
  2416     0793  3096               	movlw	150
  2417     0794  02E5               	subwf	___fltol@exp1,f
  2418     0795                     l1630:
  2419     0795  1FE5               	btfss	___fltol@exp1,7
  2420     0796  2F98               	goto	u1671
  2421     0797  2F99               	goto	u1670
  2422     0798                     u1671:
  2423     0798  2FB3               	goto	l1640
  2424     0799                     u1670:
  2425     0799                     l1632:
  2426     0799  0865               	movf	___fltol@exp1,w
  2427     079A  3A80               	xorlw	128
  2428     079B  3E97               	addlw	151
  2429     079C  1803               	skipnc
  2430     079D  2F9F               	goto	u1681
  2431     079E  2FA0               	goto	u1680
  2432     079F                     u1681:
  2433     079F  2FA1               	goto	l1638
  2434     07A0                     u1680:
  2435     07A0  2F6E               	goto	l1618
  2436     07A1                     l1638:
  2437     07A1  3001               	movlw	1
  2438     07A2                     u1695:
  2439     07A2  1003               	clrc
  2440     07A3  0CDF               	rrf	___fltol@f1+3,f
  2441     07A4  0CDE               	rrf	___fltol@f1+2,f
  2442     07A5  0CDD               	rrf	___fltol@f1+1,f
  2443     07A6  0CDC               	rrf	___fltol@f1,f
  2444     07A7  3EFF               	addlw	-1
  2445     07A8  1D03               	skipz
  2446     07A9  2FA2               	goto	u1695
  2447     07AA  3001               	movlw	1
  2448     07AB  00E0               	movwf	??___fltol
  2449     07AC  0860               	movf	??___fltol,w
  2450     07AD  07E5               	addwf	___fltol@exp1,f
  2451     07AE  1D03               	btfss	3,2
  2452     07AF  2FB1               	goto	u1701
  2453     07B0  2FB2               	goto	u1700
  2454     07B1                     u1701:
  2455     07B1  2FA1               	goto	l1638
  2456     07B2                     u1700:
  2457     07B2  2FCA               	goto	l1648
  2458     07B3                     l1640:
  2459     07B3  3020               	movlw	32
  2460     07B4  0265               	subwf	___fltol@exp1,w
  2461     07B5  1C03               	skipc
  2462     07B6  2FB8               	goto	u1711
  2463     07B7  2FB9               	goto	u1710
  2464     07B8                     u1711:
  2465     07B8  2FC5               	goto	l493
  2466     07B9                     u1710:
  2467     07B9  2F6E               	goto	l1618
  2468     07BA                     l1646:
  2469     07BA  3001               	movlw	1
  2470     07BB  00E0               	movwf	??___fltol
  2471     07BC                     u1725:
  2472     07BC  1003               	clrc
  2473     07BD  0DDC               	rlf	___fltol@f1,f
  2474     07BE  0DDD               	rlf	___fltol@f1+1,f
  2475     07BF  0DDE               	rlf	___fltol@f1+2,f
  2476     07C0  0DDF               	rlf	___fltol@f1+3,f
  2477     07C1  0BE0               	decfsz	??___fltol,f
  2478     07C2  2FBC               	goto	u1725
  2479     07C3  3001               	movlw	1
  2480     07C4  02E5               	subwf	___fltol@exp1,f
  2481     07C5                     l493:
  2482     07C5  0865               	movf	___fltol@exp1,w
  2483     07C6  1D03               	btfss	3,2
  2484     07C7  2FC9               	goto	u1731
  2485     07C8  2FCA               	goto	u1730
  2486     07C9                     u1731:
  2487     07C9  2FBA               	goto	l1646
  2488     07CA                     u1730:
  2489     07CA                     l1648:
  2490     07CA  0864               	movf	___fltol@sign1,w
  2491     07CB  1903               	btfsc	3,2
  2492     07CC  2FCE               	goto	u1741
  2493     07CD  2FCF               	goto	u1740
  2494     07CE                     u1741:
  2495     07CE  2FDA               	goto	l496
  2496     07CF                     u1740:
  2497     07CF                     l1650:
  2498     07CF  09DC               	comf	___fltol@f1,f
  2499     07D0  09DD               	comf	___fltol@f1+1,f
  2500     07D1  09DE               	comf	___fltol@f1+2,f
  2501     07D2  09DF               	comf	___fltol@f1+3,f
  2502     07D3  0ADC               	incf	___fltol@f1,f
  2503     07D4  1903               	skipnz
  2504     07D5  0ADD               	incf	___fltol@f1+1,f
  2505     07D6  1903               	skipnz
  2506     07D7  0ADE               	incf	___fltol@f1+2,f
  2507     07D8  1903               	skipnz
  2508     07D9  0ADF               	incf	___fltol@f1+3,f
  2509     07DA                     l496:
  2510     07DA                     l486:
  2511     07DA  0008               	return
  2512     07DB                     __end_of___fltol:
  2513                           
  2514                           	psect	text11
  2515     002B                     __ptext11:	
  2516 ;; *************** function ___flmul *****************
  2517 ;; Defined at:
  2518 ;;		line 8 in file "C:\Program Files\Microchip\xc8\v2.40\pic\sources\c90\common\sprcmul.c"
  2519 ;; Parameters:    Size  Location     Type
  2520 ;;  b               4   14[BANK0 ] long 
  2521 ;;  a               4   18[BANK0 ] long 
  2522 ;; Auto vars:     Size  Location     Type
  2523 ;;  prod            4   34[BANK0 ] struct .
  2524 ;;  grs             4   29[BANK0 ] unsigned long 
  2525 ;;  temp            2   38[BANK0 ] struct .
  2526 ;;  bexp            1   33[BANK0 ] unsigned char 
  2527 ;;  aexp            1   28[BANK0 ] unsigned char 
  2528 ;;  sign            1   27[BANK0 ] unsigned char 
  2529 ;; Return value:  Size  Location     Type
  2530 ;;                  4   14[BANK0 ] unsigned char 
  2531 ;; Registers used:
  2532 ;;		wreg, status,2, status,0, btemp+1, pclath, cstack
  2533 ;; Tracked objects:
  2534 ;;		On entry : 0/0
  2535 ;;		On exit  : 0/0
  2536 ;;		Unchanged: 0/0
  2537 ;; Data sizes:     COMMON   BANK0   BANK1   BANK3   BANK2
  2538 ;;      Params:         0       8       0       0       0
  2539 ;;      Locals:         0      13       0       0       0
  2540 ;;      Temps:          0       5       0       0       0
  2541 ;;      Totals:         0      26       0       0       0
  2542 ;;Total ram usage:       26 bytes
  2543 ;; Hardware stack levels used: 1
  2544 ;; Hardware stack levels required when called: 3
  2545 ;; This function calls:
  2546 ;;		__Umul8_16
  2547 ;; This function is called by:
  2548 ;;		_mapeo
  2549 ;; This function uses a non-reentrant model
  2550 ;;
  2551                           
  2552     002B                     ___flmul:	
  2553                           ;psect for function ___flmul
  2554                           
  2555     002B                     l2296:	
  2556                           ;incstack = 0
  2557                           ; Regs used in ___flmul: [wreg+status,2+status,0+btemp+1+pclath+cstack]
  2558                           
  2559     002B  1283               	bcf	3,5	;RP0=0, select bank0
  2560     002C  1303               	bcf	3,6	;RP1=0, select bank0
  2561     002D  0831               	movf	___flmul@b+3,w
  2562     002E  3980               	andlw	128
  2563     002F  00BB               	movwf	___flmul@sign
  2564     0030                     l2298:
  2565     0030  0831               	movf	___flmul@b+3,w
  2566     0031  00B6               	movwf	??___flmul
  2567     0032  0736               	addwf	??___flmul,w
  2568     0033  00C1               	movwf	___flmul@bexp
  2569     0034                     l2300:
  2570     0034  1FB0               	btfss	___flmul@b+2,7
  2571     0035  2837               	goto	u3001
  2572     0036  2838               	goto	u3000
  2573     0037                     u3001:
  2574     0037  2839               	goto	l2304
  2575     0038                     u3000:
  2576     0038                     l2302:
  2577     0038  1441               	bsf	___flmul@bexp,0
  2578     0039                     l2304:
  2579     0039  0841               	movf	___flmul@bexp,w
  2580     003A  1903               	btfsc	3,2
  2581     003B  283D               	goto	u3011
  2582     003C  283E               	goto	u3010
  2583     003D                     u3011:
  2584     003D  284D               	goto	l2312
  2585     003E                     u3010:
  2586     003E                     l2306:
  2587     003E  0A41               	incf	___flmul@bexp,w
  2588     003F  1D03               	btfss	3,2
  2589     0040  2842               	goto	u3021
  2590     0041  2843               	goto	u3020
  2591     0042                     u3021:
  2592     0042  284B               	goto	l2310
  2593     0043                     u3020:
  2594     0043                     l2308:
  2595     0043  3000               	movlw	0
  2596     0044  00B1               	movwf	___flmul@b+3
  2597     0045  3000               	movlw	0
  2598     0046  00B0               	movwf	___flmul@b+2
  2599     0047  3000               	movlw	0
  2600     0048  00AF               	movwf	___flmul@b+1
  2601     0049  3000               	movlw	0
  2602     004A  00AE               	movwf	___flmul@b
  2603     004B                     l2310:
  2604     004B  17B0               	bsf	___flmul@b+2,7
  2605     004C  2855               	goto	l2314
  2606     004D                     l2312:
  2607     004D  3000               	movlw	0
  2608     004E  00B1               	movwf	___flmul@b+3
  2609     004F  3000               	movlw	0
  2610     0050  00B0               	movwf	___flmul@b+2
  2611     0051  3000               	movlw	0
  2612     0052  00AF               	movwf	___flmul@b+1
  2613     0053  3000               	movlw	0
  2614     0054  00AE               	movwf	___flmul@b
  2615     0055                     l2314:
  2616     0055  0835               	movf	___flmul@a+3,w
  2617     0056  3980               	andlw	128
  2618     0057  00B6               	movwf	??___flmul
  2619     0058  0836               	movf	??___flmul,w
  2620     0059  06BB               	xorwf	___flmul@sign,f
  2621     005A                     l2316:
  2622     005A  0835               	movf	___flmul@a+3,w
  2623     005B  00B6               	movwf	??___flmul
  2624     005C  0736               	addwf	??___flmul,w
  2625     005D  00BC               	movwf	___flmul@aexp
  2626     005E                     l2318:
  2627     005E  1FB4               	btfss	___flmul@a+2,7
  2628     005F  2861               	goto	u3031
  2629     0060  2862               	goto	u3030
  2630     0061                     u3031:
  2631     0061  2863               	goto	l2322
  2632     0062                     u3030:
  2633     0062                     l2320:
  2634     0062  143C               	bsf	___flmul@aexp,0
  2635     0063                     l2322:
  2636     0063  083C               	movf	___flmul@aexp,w
  2637     0064  1903               	btfsc	3,2
  2638     0065  2867               	goto	u3041
  2639     0066  2868               	goto	u3040
  2640     0067                     u3041:
  2641     0067  2877               	goto	l2330
  2642     0068                     u3040:
  2643     0068                     l2324:
  2644     0068  0A3C               	incf	___flmul@aexp,w
  2645     0069  1D03               	btfss	3,2
  2646     006A  286C               	goto	u3051
  2647     006B  286D               	goto	u3050
  2648     006C                     u3051:
  2649     006C  2875               	goto	l2328
  2650     006D                     u3050:
  2651     006D                     l2326:
  2652     006D  3000               	movlw	0
  2653     006E  00B5               	movwf	___flmul@a+3
  2654     006F  3000               	movlw	0
  2655     0070  00B4               	movwf	___flmul@a+2
  2656     0071  3000               	movlw	0
  2657     0072  00B3               	movwf	___flmul@a+1
  2658     0073  3000               	movlw	0
  2659     0074  00B2               	movwf	___flmul@a
  2660     0075                     l2328:
  2661     0075  17B4               	bsf	___flmul@a+2,7
  2662     0076  287F               	goto	l2332
  2663     0077                     l2330:
  2664     0077  3000               	movlw	0
  2665     0078  00B5               	movwf	___flmul@a+3
  2666     0079  3000               	movlw	0
  2667     007A  00B4               	movwf	___flmul@a+2
  2668     007B  3000               	movlw	0
  2669     007C  00B3               	movwf	___flmul@a+1
  2670     007D  3000               	movlw	0
  2671     007E  00B2               	movwf	___flmul@a
  2672     007F                     l2332:
  2673     007F  083C               	movf	___flmul@aexp,w
  2674     0080  1903               	btfsc	3,2
  2675     0081  2883               	goto	u3061
  2676     0082  2884               	goto	u3060
  2677     0083                     u3061:
  2678     0083  2889               	goto	l2336
  2679     0084                     u3060:
  2680     0084                     l2334:
  2681     0084  0841               	movf	___flmul@bexp,w
  2682     0085  1D03               	btfss	3,2
  2683     0086  2888               	goto	u3071
  2684     0087  2889               	goto	u3070
  2685     0088                     u3071:
  2686     0088  2892               	goto	l2340
  2687     0089                     u3070:
  2688     0089                     l2336:
  2689     0089  3000               	movlw	0
  2690     008A  00B1               	movwf	?___flmul+3
  2691     008B  3000               	movlw	0
  2692     008C  00B0               	movwf	?___flmul+2
  2693     008D  3000               	movlw	0
  2694     008E  00AF               	movwf	?___flmul+1
  2695     008F  3000               	movlw	0
  2696     0090  00AE               	movwf	?___flmul
  2697     0091  2B6F               	goto	l689
  2698     0092                     l2340:
  2699     0092  082E               	movf	___flmul@b,w
  2700     0093  00A0               	movwf	__Umul8_16@multiplicand
  2701     0094  0834               	movf	___flmul@a+2,w
  2702     0095  120A  158A  258C  120A  118A  	fcall	__Umul8_16
  2703     009A  1283               	bcf	3,5	;RP0=0, select bank0
  2704     009B  1303               	bcf	3,6	;RP1=0, select bank0
  2705     009C  0821               	movf	?__Umul8_16+1,w
  2706     009D  00C7               	movwf	___flmul@temp+1
  2707     009E  0820               	movf	?__Umul8_16,w
  2708     009F  00C6               	movwf	___flmul@temp
  2709     00A0                     l2342:
  2710     00A0  0846               	movf	___flmul@temp,w
  2711     00A1  00B6               	movwf	??___flmul
  2712     00A2  01B7               	clrf	??___flmul+1
  2713     00A3  01B8               	clrf	??___flmul+2
  2714     00A4  01B9               	clrf	??___flmul+3
  2715     00A5  0839               	movf	??___flmul+3,w
  2716     00A6  00C0               	movwf	___flmul@grs+3
  2717     00A7  0838               	movf	??___flmul+2,w
  2718     00A8  00BF               	movwf	___flmul@grs+2
  2719     00A9  0837               	movf	??___flmul+1,w
  2720     00AA  00BE               	movwf	___flmul@grs+1
  2721     00AB  0836               	movf	??___flmul,w
  2722     00AC  00BD               	movwf	___flmul@grs
  2723     00AD                     l2344:
  2724     00AD  0847               	movf	___flmul@temp+1,w
  2725     00AE  00B6               	movwf	??___flmul
  2726     00AF  01B7               	clrf	??___flmul+1
  2727     00B0  01B8               	clrf	??___flmul+2
  2728     00B1  01B9               	clrf	??___flmul+3
  2729     00B2  0839               	movf	??___flmul+3,w
  2730     00B3  00C5               	movwf	___flmul@prod+3
  2731     00B4  0838               	movf	??___flmul+2,w
  2732     00B5  00C4               	movwf	___flmul@prod+2
  2733     00B6  0837               	movf	??___flmul+1,w
  2734     00B7  00C3               	movwf	___flmul@prod+1
  2735     00B8  0836               	movf	??___flmul,w
  2736     00B9  00C2               	movwf	___flmul@prod
  2737     00BA  082F               	movf	___flmul@b+1,w
  2738     00BB  00A0               	movwf	__Umul8_16@multiplicand
  2739     00BC  0833               	movf	___flmul@a+1,w
  2740     00BD  120A  158A  258C  120A  118A  	fcall	__Umul8_16
  2741     00C2  1283               	bcf	3,5	;RP0=0, select bank0
  2742     00C3  1303               	bcf	3,6	;RP1=0, select bank0
  2743     00C4  0821               	movf	?__Umul8_16+1,w
  2744     00C5  00C7               	movwf	___flmul@temp+1
  2745     00C6  0820               	movf	?__Umul8_16,w
  2746     00C7  00C6               	movwf	___flmul@temp
  2747     00C8                     l2346:
  2748     00C8  0846               	movf	___flmul@temp,w
  2749     00C9  00B6               	movwf	??___flmul
  2750     00CA  01B7               	clrf	??___flmul+1
  2751     00CB  01B8               	clrf	??___flmul+2
  2752     00CC  01B9               	clrf	??___flmul+3
  2753     00CD  0836               	movf	??___flmul,w
  2754     00CE  07BD               	addwf	___flmul@grs,f
  2755     00CF  0837               	movf	??___flmul+1,w
  2756     00D0  1103               	clrz
  2757     00D1  1803               	skipnc
  2758     00D2  3E01               	addlw	1
  2759     00D3  1903               	skipnz
  2760     00D4  28D6               	goto	u3081
  2761     00D5  07BE               	addwf	___flmul@grs+1,f
  2762     00D6                     u3081:
  2763     00D6  0838               	movf	??___flmul+2,w
  2764     00D7  1103               	clrz
  2765     00D8  1803               	skipnc
  2766     00D9  3E01               	addlw	1
  2767     00DA  1903               	skipnz
  2768     00DB  28DD               	goto	u3082
  2769     00DC  07BF               	addwf	___flmul@grs+2,f
  2770     00DD                     u3082:
  2771     00DD  0839               	movf	??___flmul+3,w
  2772     00DE  1103               	clrz
  2773     00DF  1803               	skipnc
  2774     00E0  3E01               	addlw	1
  2775     00E1  1903               	skipnz
  2776     00E2  28E4               	goto	u3083
  2777     00E3  07C0               	addwf	___flmul@grs+3,f
  2778     00E4                     u3083:
  2779     00E4                     l2348:
  2780     00E4  0847               	movf	___flmul@temp+1,w
  2781     00E5  00B6               	movwf	??___flmul
  2782     00E6  01B7               	clrf	??___flmul+1
  2783     00E7  01B8               	clrf	??___flmul+2
  2784     00E8  01B9               	clrf	??___flmul+3
  2785     00E9  0836               	movf	??___flmul,w
  2786     00EA  07C2               	addwf	___flmul@prod,f
  2787     00EB  0837               	movf	??___flmul+1,w
  2788     00EC  1103               	clrz
  2789     00ED  1803               	skipnc
  2790     00EE  3E01               	addlw	1
  2791     00EF  1903               	skipnz
  2792     00F0  28F2               	goto	u3091
  2793     00F1  07C3               	addwf	___flmul@prod+1,f
  2794     00F2                     u3091:
  2795     00F2  0838               	movf	??___flmul+2,w
  2796     00F3  1103               	clrz
  2797     00F4  1803               	skipnc
  2798     00F5  3E01               	addlw	1
  2799     00F6  1903               	skipnz
  2800     00F7  28F9               	goto	u3092
  2801     00F8  07C4               	addwf	___flmul@prod+2,f
  2802     00F9                     u3092:
  2803     00F9  0839               	movf	??___flmul+3,w
  2804     00FA  1103               	clrz
  2805     00FB  1803               	skipnc
  2806     00FC  3E01               	addlw	1
  2807     00FD  1903               	skipnz
  2808     00FE  2900               	goto	u3093
  2809     00FF  07C5               	addwf	___flmul@prod+3,f
  2810     0100                     u3093:
  2811     0100  0830               	movf	___flmul@b+2,w
  2812     0101  00A0               	movwf	__Umul8_16@multiplicand
  2813     0102  0832               	movf	___flmul@a,w
  2814     0103  120A  158A  258C  120A  118A  	fcall	__Umul8_16
  2815     0108  1283               	bcf	3,5	;RP0=0, select bank0
  2816     0109  1303               	bcf	3,6	;RP1=0, select bank0
  2817     010A  0821               	movf	?__Umul8_16+1,w
  2818     010B  00C7               	movwf	___flmul@temp+1
  2819     010C  0820               	movf	?__Umul8_16,w
  2820     010D  00C6               	movwf	___flmul@temp
  2821     010E                     l2350:
  2822     010E  0846               	movf	___flmul@temp,w
  2823     010F  00B6               	movwf	??___flmul
  2824     0110  01B7               	clrf	??___flmul+1
  2825     0111  01B8               	clrf	??___flmul+2
  2826     0112  01B9               	clrf	??___flmul+3
  2827     0113  0836               	movf	??___flmul,w
  2828     0114  07BD               	addwf	___flmul@grs,f
  2829     0115  0837               	movf	??___flmul+1,w
  2830     0116  1103               	clrz
  2831     0117  1803               	skipnc
  2832     0118  3E01               	addlw	1
  2833     0119  1903               	skipnz
  2834     011A  291C               	goto	u3101
  2835     011B  07BE               	addwf	___flmul@grs+1,f
  2836     011C                     u3101:
  2837     011C  0838               	movf	??___flmul+2,w
  2838     011D  1103               	clrz
  2839     011E  1803               	skipnc
  2840     011F  3E01               	addlw	1
  2841     0120  1903               	skipnz
  2842     0121  2923               	goto	u3102
  2843     0122  07BF               	addwf	___flmul@grs+2,f
  2844     0123                     u3102:
  2845     0123  0839               	movf	??___flmul+3,w
  2846     0124  1103               	clrz
  2847     0125  1803               	skipnc
  2848     0126  3E01               	addlw	1
  2849     0127  1903               	skipnz
  2850     0128  292A               	goto	u3103
  2851     0129  07C0               	addwf	___flmul@grs+3,f
  2852     012A                     u3103:
  2853     012A                     l2352:
  2854     012A  0847               	movf	___flmul@temp+1,w
  2855     012B  00B6               	movwf	??___flmul
  2856     012C  01B7               	clrf	??___flmul+1
  2857     012D  01B8               	clrf	??___flmul+2
  2858     012E  01B9               	clrf	??___flmul+3
  2859     012F  0836               	movf	??___flmul,w
  2860     0130  07C2               	addwf	___flmul@prod,f
  2861     0131  0837               	movf	??___flmul+1,w
  2862     0132  1103               	clrz
  2863     0133  1803               	skipnc
  2864     0134  3E01               	addlw	1
  2865     0135  1903               	skipnz
  2866     0136  2938               	goto	u3111
  2867     0137  07C3               	addwf	___flmul@prod+1,f
  2868     0138                     u3111:
  2869     0138  0838               	movf	??___flmul+2,w
  2870     0139  1103               	clrz
  2871     013A  1803               	skipnc
  2872     013B  3E01               	addlw	1
  2873     013C  1903               	skipnz
  2874     013D  293F               	goto	u3112
  2875     013E  07C4               	addwf	___flmul@prod+2,f
  2876     013F                     u3112:
  2877     013F  0839               	movf	??___flmul+3,w
  2878     0140  1103               	clrz
  2879     0141  1803               	skipnc
  2880     0142  3E01               	addlw	1
  2881     0143  1903               	skipnz
  2882     0144  2946               	goto	u3113
  2883     0145  07C5               	addwf	___flmul@prod+3,f
  2884     0146                     u3113:
  2885     0146                     l2354:
  2886     0146  3008               	movlw	8
  2887     0147  00B6               	movwf	??___flmul
  2888     0148                     u3125:
  2889     0148  1003               	clrc
  2890     0149  0DBD               	rlf	___flmul@grs,f
  2891     014A  0DBE               	rlf	___flmul@grs+1,f
  2892     014B  0DBF               	rlf	___flmul@grs+2,f
  2893     014C  0DC0               	rlf	___flmul@grs+3,f
  2894     014D  0BB6               	decfsz	??___flmul,f
  2895     014E  2948               	goto	u3125
  2896     014F                     l2356:
  2897     014F  082F               	movf	___flmul@b+1,w
  2898     0150  00A0               	movwf	__Umul8_16@multiplicand
  2899     0151  0832               	movf	___flmul@a,w
  2900     0152  120A  158A  258C  120A  118A  	fcall	__Umul8_16
  2901     0157  1283               	bcf	3,5	;RP0=0, select bank0
  2902     0158  1303               	bcf	3,6	;RP1=0, select bank0
  2903     0159  0821               	movf	?__Umul8_16+1,w
  2904     015A  00C7               	movwf	___flmul@temp+1
  2905     015B  0820               	movf	?__Umul8_16,w
  2906     015C  00C6               	movwf	___flmul@temp
  2907     015D                     l2358:
  2908     015D  0846               	movf	___flmul@temp,w
  2909     015E  00B6               	movwf	??___flmul
  2910     015F  0847               	movf	___flmul@temp+1,w
  2911     0160  00B7               	movwf	??___flmul+1
  2912     0161  01B8               	clrf	??___flmul+2
  2913     0162  01B9               	clrf	??___flmul+3
  2914     0163  0836               	movf	??___flmul,w
  2915     0164  07BD               	addwf	___flmul@grs,f
  2916     0165  0837               	movf	??___flmul+1,w
  2917     0166  1103               	clrz
  2918     0167  1803               	skipnc
  2919     0168  3E01               	addlw	1
  2920     0169  1903               	skipnz
  2921     016A  296C               	goto	u3131
  2922     016B  07BE               	addwf	___flmul@grs+1,f
  2923     016C                     u3131:
  2924     016C  0838               	movf	??___flmul+2,w
  2925     016D  1103               	clrz
  2926     016E  1803               	skipnc
  2927     016F  3E01               	addlw	1
  2928     0170  1903               	skipnz
  2929     0171  2973               	goto	u3132
  2930     0172  07BF               	addwf	___flmul@grs+2,f
  2931     0173                     u3132:
  2932     0173  0839               	movf	??___flmul+3,w
  2933     0174  1103               	clrz
  2934     0175  1803               	skipnc
  2935     0176  3E01               	addlw	1
  2936     0177  1903               	skipnz
  2937     0178  297A               	goto	u3133
  2938     0179  07C0               	addwf	___flmul@grs+3,f
  2939     017A                     u3133:
  2940     017A                     l2360:
  2941     017A  082E               	movf	___flmul@b,w
  2942     017B  00A0               	movwf	__Umul8_16@multiplicand
  2943     017C  0833               	movf	___flmul@a+1,w
  2944     017D  120A  158A  258C  120A  118A  	fcall	__Umul8_16
  2945     0182  1283               	bcf	3,5	;RP0=0, select bank0
  2946     0183  1303               	bcf	3,6	;RP1=0, select bank0
  2947     0184  0821               	movf	?__Umul8_16+1,w
  2948     0185  00C7               	movwf	___flmul@temp+1
  2949     0186  0820               	movf	?__Umul8_16,w
  2950     0187  00C6               	movwf	___flmul@temp
  2951     0188                     l2362:
  2952     0188  0846               	movf	___flmul@temp,w
  2953     0189  00B6               	movwf	??___flmul
  2954     018A  0847               	movf	___flmul@temp+1,w
  2955     018B  00B7               	movwf	??___flmul+1
  2956     018C  01B8               	clrf	??___flmul+2
  2957     018D  01B9               	clrf	??___flmul+3
  2958     018E  0836               	movf	??___flmul,w
  2959     018F  07BD               	addwf	___flmul@grs,f
  2960     0190  0837               	movf	??___flmul+1,w
  2961     0191  1103               	clrz
  2962     0192  1803               	skipnc
  2963     0193  3E01               	addlw	1
  2964     0194  1903               	skipnz
  2965     0195  2997               	goto	u3141
  2966     0196  07BE               	addwf	___flmul@grs+1,f
  2967     0197                     u3141:
  2968     0197  0838               	movf	??___flmul+2,w
  2969     0198  1103               	clrz
  2970     0199  1803               	skipnc
  2971     019A  3E01               	addlw	1
  2972     019B  1903               	skipnz
  2973     019C  299E               	goto	u3142
  2974     019D  07BF               	addwf	___flmul@grs+2,f
  2975     019E                     u3142:
  2976     019E  0839               	movf	??___flmul+3,w
  2977     019F  1103               	clrz
  2978     01A0  1803               	skipnc
  2979     01A1  3E01               	addlw	1
  2980     01A2  1903               	skipnz
  2981     01A3  29A5               	goto	u3143
  2982     01A4  07C0               	addwf	___flmul@grs+3,f
  2983     01A5                     u3143:
  2984     01A5                     l2364:
  2985     01A5  3008               	movlw	8
  2986     01A6  00B6               	movwf	??___flmul
  2987     01A7                     u3155:
  2988     01A7  1003               	clrc
  2989     01A8  0DBD               	rlf	___flmul@grs,f
  2990     01A9  0DBE               	rlf	___flmul@grs+1,f
  2991     01AA  0DBF               	rlf	___flmul@grs+2,f
  2992     01AB  0DC0               	rlf	___flmul@grs+3,f
  2993     01AC  0BB6               	decfsz	??___flmul,f
  2994     01AD  29A7               	goto	u3155
  2995     01AE  082E               	movf	___flmul@b,w
  2996     01AF  00A0               	movwf	__Umul8_16@multiplicand
  2997     01B0  0832               	movf	___flmul@a,w
  2998     01B1  120A  158A  258C  120A  118A  	fcall	__Umul8_16
  2999     01B6  1283               	bcf	3,5	;RP0=0, select bank0
  3000     01B7  1303               	bcf	3,6	;RP1=0, select bank0
  3001     01B8  0821               	movf	?__Umul8_16+1,w
  3002     01B9  00C7               	movwf	___flmul@temp+1
  3003     01BA  0820               	movf	?__Umul8_16,w
  3004     01BB  00C6               	movwf	___flmul@temp
  3005     01BC                     l2366:
  3006     01BC  0846               	movf	___flmul@temp,w
  3007     01BD  00B6               	movwf	??___flmul
  3008     01BE  0847               	movf	___flmul@temp+1,w
  3009     01BF  00B7               	movwf	??___flmul+1
  3010     01C0  01B8               	clrf	??___flmul+2
  3011     01C1  01B9               	clrf	??___flmul+3
  3012     01C2  0836               	movf	??___flmul,w
  3013     01C3  07BD               	addwf	___flmul@grs,f
  3014     01C4  0837               	movf	??___flmul+1,w
  3015     01C5  1103               	clrz
  3016     01C6  1803               	skipnc
  3017     01C7  3E01               	addlw	1
  3018     01C8  1903               	skipnz
  3019     01C9  29CB               	goto	u3161
  3020     01CA  07BE               	addwf	___flmul@grs+1,f
  3021     01CB                     u3161:
  3022     01CB  0838               	movf	??___flmul+2,w
  3023     01CC  1103               	clrz
  3024     01CD  1803               	skipnc
  3025     01CE  3E01               	addlw	1
  3026     01CF  1903               	skipnz
  3027     01D0  29D2               	goto	u3162
  3028     01D1  07BF               	addwf	___flmul@grs+2,f
  3029     01D2                     u3162:
  3030     01D2  0839               	movf	??___flmul+3,w
  3031     01D3  1103               	clrz
  3032     01D4  1803               	skipnc
  3033     01D5  3E01               	addlw	1
  3034     01D6  1903               	skipnz
  3035     01D7  29D9               	goto	u3163
  3036     01D8  07C0               	addwf	___flmul@grs+3,f
  3037     01D9                     u3163:
  3038     01D9                     l2368:
  3039     01D9  082F               	movf	___flmul@b+1,w
  3040     01DA  00A0               	movwf	__Umul8_16@multiplicand
  3041     01DB  0834               	movf	___flmul@a+2,w
  3042     01DC  120A  158A  258C  120A  118A  	fcall	__Umul8_16
  3043     01E1  1283               	bcf	3,5	;RP0=0, select bank0
  3044     01E2  1303               	bcf	3,6	;RP1=0, select bank0
  3045     01E3  0821               	movf	?__Umul8_16+1,w
  3046     01E4  00C7               	movwf	___flmul@temp+1
  3047     01E5  0820               	movf	?__Umul8_16,w
  3048     01E6  00C6               	movwf	___flmul@temp
  3049     01E7  0846               	movf	___flmul@temp,w
  3050     01E8  00B6               	movwf	??___flmul
  3051     01E9  0847               	movf	___flmul@temp+1,w
  3052     01EA  00B7               	movwf	??___flmul+1
  3053     01EB  01B8               	clrf	??___flmul+2
  3054     01EC  01B9               	clrf	??___flmul+3
  3055     01ED  0836               	movf	??___flmul,w
  3056     01EE  07C2               	addwf	___flmul@prod,f
  3057     01EF  0837               	movf	??___flmul+1,w
  3058     01F0  1103               	clrz
  3059     01F1  1803               	skipnc
  3060     01F2  3E01               	addlw	1
  3061     01F3  1903               	skipnz
  3062     01F4  29F6               	goto	u3171
  3063     01F5  07C3               	addwf	___flmul@prod+1,f
  3064     01F6                     u3171:
  3065     01F6  0838               	movf	??___flmul+2,w
  3066     01F7  1103               	clrz
  3067     01F8  1803               	skipnc
  3068     01F9  3E01               	addlw	1
  3069     01FA  1903               	skipnz
  3070     01FB  29FD               	goto	u3172
  3071     01FC  07C4               	addwf	___flmul@prod+2,f
  3072     01FD                     u3172:
  3073     01FD  0839               	movf	??___flmul+3,w
  3074     01FE  1103               	clrz
  3075     01FF  1803               	skipnc
  3076     0200  3E01               	addlw	1
  3077     0201  1903               	skipnz
  3078     0202  2A04               	goto	u3173
  3079     0203  07C5               	addwf	___flmul@prod+3,f
  3080     0204                     u3173:
  3081     0204                     l2370:
  3082     0204  0830               	movf	___flmul@b+2,w
  3083     0205  00A0               	movwf	__Umul8_16@multiplicand
  3084     0206  0833               	movf	___flmul@a+1,w
  3085     0207  120A  158A  258C  120A  118A  	fcall	__Umul8_16
  3086     020C  1283               	bcf	3,5	;RP0=0, select bank0
  3087     020D  1303               	bcf	3,6	;RP1=0, select bank0
  3088     020E  0821               	movf	?__Umul8_16+1,w
  3089     020F  00C7               	movwf	___flmul@temp+1
  3090     0210  0820               	movf	?__Umul8_16,w
  3091     0211  00C6               	movwf	___flmul@temp
  3092     0212                     l2372:
  3093     0212  0846               	movf	___flmul@temp,w
  3094     0213  00B6               	movwf	??___flmul
  3095     0214  0847               	movf	___flmul@temp+1,w
  3096     0215  00B7               	movwf	??___flmul+1
  3097     0216  01B8               	clrf	??___flmul+2
  3098     0217  01B9               	clrf	??___flmul+3
  3099     0218  0836               	movf	??___flmul,w
  3100     0219  07C2               	addwf	___flmul@prod,f
  3101     021A  0837               	movf	??___flmul+1,w
  3102     021B  1103               	clrz
  3103     021C  1803               	skipnc
  3104     021D  3E01               	addlw	1
  3105     021E  1903               	skipnz
  3106     021F  2A21               	goto	u3181
  3107     0220  07C3               	addwf	___flmul@prod+1,f
  3108     0221                     u3181:
  3109     0221  0838               	movf	??___flmul+2,w
  3110     0222  1103               	clrz
  3111     0223  1803               	skipnc
  3112     0224  3E01               	addlw	1
  3113     0225  1903               	skipnz
  3114     0226  2A28               	goto	u3182
  3115     0227  07C4               	addwf	___flmul@prod+2,f
  3116     0228                     u3182:
  3117     0228  0839               	movf	??___flmul+3,w
  3118     0229  1103               	clrz
  3119     022A  1803               	skipnc
  3120     022B  3E01               	addlw	1
  3121     022C  1903               	skipnz
  3122     022D  2A2F               	goto	u3183
  3123     022E  07C5               	addwf	___flmul@prod+3,f
  3124     022F                     u3183:
  3125     022F  0830               	movf	___flmul@b+2,w
  3126     0230  00A0               	movwf	__Umul8_16@multiplicand
  3127     0231  0834               	movf	___flmul@a+2,w
  3128     0232  120A  158A  258C  120A  118A  	fcall	__Umul8_16
  3129     0237  1283               	bcf	3,5	;RP0=0, select bank0
  3130     0238  1303               	bcf	3,6	;RP1=0, select bank0
  3131     0239  0821               	movf	?__Umul8_16+1,w
  3132     023A  00C7               	movwf	___flmul@temp+1
  3133     023B  0820               	movf	?__Umul8_16,w
  3134     023C  00C6               	movwf	___flmul@temp
  3135     023D                     l2374:
  3136     023D  0846               	movf	___flmul@temp,w
  3137     023E  00B6               	movwf	??___flmul
  3138     023F  0847               	movf	___flmul@temp+1,w
  3139     0240  00B7               	movwf	??___flmul+1
  3140     0241  01B8               	clrf	??___flmul+2
  3141     0242  01B9               	clrf	??___flmul+3
  3142     0243  3008               	movlw	8
  3143     0244                     u3195:
  3144     0244  1003               	clrc
  3145     0245  0DB6               	rlf	??___flmul,f
  3146     0246  0DB7               	rlf	??___flmul+1,f
  3147     0247  0DB8               	rlf	??___flmul+2,f
  3148     0248  0DB9               	rlf	??___flmul+3,f
  3149     0249                     u3190:
  3150     0249  3EFF               	addlw	-1
  3151     024A  1D03               	skipz
  3152     024B  2A44               	goto	u3195
  3153     024C  0836               	movf	??___flmul,w
  3154     024D  07C2               	addwf	___flmul@prod,f
  3155     024E  0837               	movf	??___flmul+1,w
  3156     024F  1103               	clrz
  3157     0250  1803               	skipnc
  3158     0251  3E01               	addlw	1
  3159     0252  1903               	skipnz
  3160     0253  2A55               	goto	u3201
  3161     0254  07C3               	addwf	___flmul@prod+1,f
  3162     0255                     u3201:
  3163     0255  0838               	movf	??___flmul+2,w
  3164     0256  1103               	clrz
  3165     0257  1803               	skipnc
  3166     0258  3E01               	addlw	1
  3167     0259  1903               	skipnz
  3168     025A  2A5C               	goto	u3202
  3169     025B  07C4               	addwf	___flmul@prod+2,f
  3170     025C                     u3202:
  3171     025C  0839               	movf	??___flmul+3,w
  3172     025D  1103               	clrz
  3173     025E  1803               	skipnc
  3174     025F  3E01               	addlw	1
  3175     0260  1903               	skipnz
  3176     0261  2A63               	goto	u3203
  3177     0262  07C5               	addwf	___flmul@prod+3,f
  3178     0263                     u3203:
  3179     0263                     l2376:
  3180     0263  083D               	movf	___flmul@grs,w
  3181     0264  00B6               	movwf	??___flmul
  3182     0265  083E               	movf	___flmul@grs+1,w
  3183     0266  00B7               	movwf	??___flmul+1
  3184     0267  083F               	movf	___flmul@grs+2,w
  3185     0268  00B8               	movwf	??___flmul+2
  3186     0269  0840               	movf	___flmul@grs+3,w
  3187     026A  00B9               	movwf	??___flmul+3
  3188     026B  3018               	movlw	24
  3189     026C                     u3215:
  3190     026C  1003               	clrc
  3191     026D  0CB9               	rrf	??___flmul+3,f
  3192     026E  0CB8               	rrf	??___flmul+2,f
  3193     026F  0CB7               	rrf	??___flmul+1,f
  3194     0270  0CB6               	rrf	??___flmul,f
  3195     0271                     u3210:
  3196     0271  3EFF               	addlw	-1
  3197     0272  1D03               	skipz
  3198     0273  2A6C               	goto	u3215
  3199     0274  0836               	movf	??___flmul,w
  3200     0275  07C2               	addwf	___flmul@prod,f
  3201     0276  0837               	movf	??___flmul+1,w
  3202     0277  1103               	clrz
  3203     0278  1803               	skipnc
  3204     0279  3E01               	addlw	1
  3205     027A  1903               	skipnz
  3206     027B  2A7D               	goto	u3221
  3207     027C  07C3               	addwf	___flmul@prod+1,f
  3208     027D                     u3221:
  3209     027D  0838               	movf	??___flmul+2,w
  3210     027E  1103               	clrz
  3211     027F  1803               	skipnc
  3212     0280  3E01               	addlw	1
  3213     0281  1903               	skipnz
  3214     0282  2A84               	goto	u3222
  3215     0283  07C4               	addwf	___flmul@prod+2,f
  3216     0284                     u3222:
  3217     0284  0839               	movf	??___flmul+3,w
  3218     0285  1103               	clrz
  3219     0286  1803               	skipnc
  3220     0287  3E01               	addlw	1
  3221     0288  1903               	skipnz
  3222     0289  2A8B               	goto	u3223
  3223     028A  07C5               	addwf	___flmul@prod+3,f
  3224     028B                     u3223:
  3225     028B                     l2378:
  3226     028B  3008               	movlw	8
  3227     028C  00B6               	movwf	??___flmul
  3228     028D                     u3235:
  3229     028D  1003               	clrc
  3230     028E  0DBD               	rlf	___flmul@grs,f
  3231     028F  0DBE               	rlf	___flmul@grs+1,f
  3232     0290  0DBF               	rlf	___flmul@grs+2,f
  3233     0291  0DC0               	rlf	___flmul@grs+3,f
  3234     0292  0BB6               	decfsz	??___flmul,f
  3235     0293  2A8D               	goto	u3235
  3236     0294                     l2380:
  3237     0294  0841               	movf	___flmul@bexp,w
  3238     0295  073C               	addwf	___flmul@aexp,w
  3239     0296  00B6               	movwf	??___flmul
  3240     0297  01B7               	clrf	??___flmul+1
  3241     0298  0DB7               	rlf	??___flmul+1,f
  3242     0299  0836               	movf	??___flmul,w
  3243     029A  3E82               	addlw	130
  3244     029B  00C6               	movwf	___flmul@temp
  3245     029C  0837               	movf	??___flmul+1,w
  3246     029D  1803               	skipnc
  3247     029E  3E01               	addlw	1
  3248     029F  3EFF               	addlw	255
  3249     02A0  00C7               	movwf	___flmul@temp+1
  3250     02A1  2ABF               	goto	l2392
  3251     02A2                     l2382:
  3252     02A2  3001               	movlw	1
  3253     02A3  00B6               	movwf	??___flmul
  3254     02A4                     u3245:
  3255     02A4  1003               	clrc
  3256     02A5  0DC2               	rlf	___flmul@prod,f
  3257     02A6  0DC3               	rlf	___flmul@prod+1,f
  3258     02A7  0DC4               	rlf	___flmul@prod+2,f
  3259     02A8  0DC5               	rlf	___flmul@prod+3,f
  3260     02A9  0BB6               	decfsz	??___flmul,f
  3261     02AA  2AA4               	goto	u3245
  3262     02AB                     l2384:
  3263     02AB  1FC0               	btfss	___flmul@grs+3,7
  3264     02AC  2AAE               	goto	u3251
  3265     02AD  2AAF               	goto	u3250
  3266     02AE                     u3251:
  3267     02AE  2AB0               	goto	l2388
  3268     02AF                     u3250:
  3269     02AF                     l2386:
  3270     02AF  1442               	bsf	___flmul@prod,0
  3271     02B0                     l2388:
  3272     02B0  3001               	movlw	1
  3273     02B1  00B6               	movwf	??___flmul
  3274     02B2                     u3265:
  3275     02B2  1003               	clrc
  3276     02B3  0DBD               	rlf	___flmul@grs,f
  3277     02B4  0DBE               	rlf	___flmul@grs+1,f
  3278     02B5  0DBF               	rlf	___flmul@grs+2,f
  3279     02B6  0DC0               	rlf	___flmul@grs+3,f
  3280     02B7  0BB6               	decfsz	??___flmul,f
  3281     02B8  2AB2               	goto	u3265
  3282     02B9                     l2390:
  3283     02B9  30FF               	movlw	255
  3284     02BA  07C6               	addwf	___flmul@temp,f
  3285     02BB  1803               	skipnc
  3286     02BC  0AC7               	incf	___flmul@temp+1,f
  3287     02BD  30FF               	movlw	255
  3288     02BE  07C7               	addwf	___flmul@temp+1,f
  3289     02BF                     l2392:
  3290     02BF  1FC4               	btfss	___flmul@prod+2,7
  3291     02C0  2AC2               	goto	u3271
  3292     02C1  2AC3               	goto	u3270
  3293     02C2                     u3271:
  3294     02C2  2AA2               	goto	l2382
  3295     02C3                     u3270:
  3296     02C3                     l2394:
  3297     02C3  01BC               	clrf	___flmul@aexp
  3298     02C4                     l2396:
  3299     02C4  1FC0               	btfss	___flmul@grs+3,7
  3300     02C5  2AC7               	goto	u3281
  3301     02C6  2AC8               	goto	u3280
  3302     02C7                     u3281:
  3303     02C7  2AE4               	goto	l2404
  3304     02C8                     u3280:
  3305     02C8                     l2398:
  3306     02C8  30FF               	movlw	255
  3307     02C9  053D               	andwf	___flmul@grs,w
  3308     02CA  00B6               	movwf	??___flmul
  3309     02CB  30FF               	movlw	255
  3310     02CC  053E               	andwf	___flmul@grs+1,w
  3311     02CD  00B7               	movwf	??___flmul+1
  3312     02CE  30FF               	movlw	255
  3313     02CF  053F               	andwf	___flmul@grs+2,w
  3314     02D0  00B8               	movwf	??___flmul+2
  3315     02D1  307F               	movlw	127
  3316     02D2  0540               	andwf	___flmul@grs+3,w
  3317     02D3  00B9               	movwf	??___flmul+3
  3318     02D4  0839               	movf	??___flmul+3,w
  3319     02D5  0438               	iorwf	??___flmul+2,w
  3320     02D6  0437               	iorwf	??___flmul+1,w
  3321     02D7  0436               	iorwf	??___flmul,w
  3322     02D8  1903               	skipnz
  3323     02D9  2ADB               	goto	u3291
  3324     02DA  2ADC               	goto	u3290
  3325     02DB                     u3291:
  3326     02DB  2ADF               	goto	l695
  3327     02DC                     u3290:
  3328     02DC                     l2400:
  3329     02DC  01BC               	clrf	___flmul@aexp
  3330     02DD  0ABC               	incf	___flmul@aexp,f
  3331     02DE  2AE4               	goto	l2404
  3332     02DF                     l695:
  3333     02DF  1C42               	btfss	___flmul@prod,0
  3334     02E0  2AE2               	goto	u3301
  3335     02E1  2AE3               	goto	u3300
  3336     02E2                     u3301:
  3337     02E2  2AE4               	goto	l2404
  3338     02E3                     u3300:
  3339     02E3  2ADC               	goto	l2400
  3340     02E4                     l2404:
  3341     02E4  083C               	movf	___flmul@aexp,w
  3342     02E5  1903               	btfsc	3,2
  3343     02E6  2AE8               	goto	u3311
  3344     02E7  2AE9               	goto	u3310
  3345     02E8                     u3311:
  3346     02E8  2B1A               	goto	l2414
  3347     02E9                     u3310:
  3348     02E9                     l2406:
  3349     02E9  3001               	movlw	1
  3350     02EA  07C2               	addwf	___flmul@prod,f
  3351     02EB  3000               	movlw	0
  3352     02EC  1803               	skipnc
  3353     02ED  3001               	movlw	1
  3354     02EE  07C3               	addwf	___flmul@prod+1,f
  3355     02EF  3000               	movlw	0
  3356     02F0  1803               	skipnc
  3357     02F1  3001               	movlw	1
  3358     02F2  07C4               	addwf	___flmul@prod+2,f
  3359     02F3  3000               	movlw	0
  3360     02F4  1803               	skipnc
  3361     02F5  3001               	movlw	1
  3362     02F6  07C5               	addwf	___flmul@prod+3,f
  3363     02F7                     l2408:
  3364     02F7  1C45               	btfss	___flmul@prod+3,0
  3365     02F8  2AFA               	goto	u3321
  3366     02F9  2AFB               	goto	u3320
  3367     02FA                     u3321:
  3368     02FA  2B1A               	goto	l2414
  3369     02FB                     u3320:
  3370     02FB                     l2410:
  3371     02FB  0842               	movf	___flmul@prod,w
  3372     02FC  00B6               	movwf	??___flmul
  3373     02FD  0843               	movf	___flmul@prod+1,w
  3374     02FE  00B7               	movwf	??___flmul+1
  3375     02FF  0844               	movf	___flmul@prod+2,w
  3376     0300  00B8               	movwf	??___flmul+2
  3377     0301  0845               	movf	___flmul@prod+3,w
  3378     0302  00B9               	movwf	??___flmul+3
  3379     0303  3001               	movlw	1
  3380     0304  00BA               	movwf	??___flmul+4
  3381     0305                     u3335:
  3382     0305  0D39               	rlf	??___flmul+3,w
  3383     0306  0CB9               	rrf	??___flmul+3,f
  3384     0307  0CB8               	rrf	??___flmul+2,f
  3385     0308  0CB7               	rrf	??___flmul+1,f
  3386     0309  0CB6               	rrf	??___flmul,f
  3387     030A                     u3330:
  3388     030A  0BBA               	decfsz	??___flmul+4,f
  3389     030B  2B05               	goto	u3335
  3390     030C  0839               	movf	??___flmul+3,w
  3391     030D  00C5               	movwf	___flmul@prod+3
  3392     030E  0838               	movf	??___flmul+2,w
  3393     030F  00C4               	movwf	___flmul@prod+2
  3394     0310  0837               	movf	??___flmul+1,w
  3395     0311  00C3               	movwf	___flmul@prod+1
  3396     0312  0836               	movf	??___flmul,w
  3397     0313  00C2               	movwf	___flmul@prod
  3398     0314                     l2412:
  3399     0314  3001               	movlw	1
  3400     0315  07C6               	addwf	___flmul@temp,f
  3401     0316  1803               	skipnc
  3402     0317  0AC7               	incf	___flmul@temp+1,f
  3403     0318  3000               	movlw	0
  3404     0319  07C7               	addwf	___flmul@temp+1,f
  3405     031A                     l2414:
  3406     031A  0847               	movf	___flmul@temp+1,w
  3407     031B  3A80               	xorlw	128
  3408     031C  00FF               	movwf	btemp+1
  3409     031D  3080               	movlw	128
  3410     031E  027F               	subwf	btemp+1,w
  3411     031F  1D03               	skipz
  3412     0320  2B23               	goto	u3345
  3413     0321  30FF               	movlw	255
  3414     0322  0246               	subwf	___flmul@temp,w
  3415     0323                     u3345:
  3416     0323  1C03               	skipc
  3417     0324  2B26               	goto	u3341
  3418     0325  2B27               	goto	u3340
  3419     0326                     u3341:
  3420     0326  2B32               	goto	l2418
  3421     0327                     u3340:
  3422     0327                     l2416:
  3423     0327  307F               	movlw	127
  3424     0328  1283               	bcf	3,5	;RP0=0, select bank0
  3425     0329  1303               	bcf	3,6	;RP1=0, select bank0
  3426     032A  00C5               	movwf	___flmul@prod+3
  3427     032B  3080               	movlw	128
  3428     032C  00C4               	movwf	___flmul@prod+2
  3429     032D  3000               	movlw	0
  3430     032E  00C3               	movwf	___flmul@prod+1
  3431     032F  3000               	movlw	0
  3432     0330  00C2               	movwf	___flmul@prod
  3433     0331  2B63               	goto	l701
  3434     0332                     l2418:
  3435     0332  1283               	bcf	3,5	;RP0=0, select bank0
  3436     0333  1303               	bcf	3,6	;RP1=0, select bank0
  3437     0334  0847               	movf	___flmul@temp+1,w
  3438     0335  3A80               	xorlw	128
  3439     0336  00FF               	movwf	btemp+1
  3440     0337  3080               	movlw	128
  3441     0338  027F               	subwf	btemp+1,w
  3442     0339  1D03               	skipz
  3443     033A  2B3D               	goto	u3355
  3444     033B  3001               	movlw	1
  3445     033C  0246               	subwf	___flmul@temp,w
  3446     033D                     u3355:
  3447     033D  1803               	skipnc
  3448     033E  2B40               	goto	u3351
  3449     033F  2B41               	goto	u3350
  3450     0340                     u3351:
  3451     0340  2B4D               	goto	l2424
  3452     0341                     u3350:
  3453     0341                     l2420:
  3454     0341  3000               	movlw	0
  3455     0342  1283               	bcf	3,5	;RP0=0, select bank0
  3456     0343  1303               	bcf	3,6	;RP1=0, select bank0
  3457     0344  00C5               	movwf	___flmul@prod+3
  3458     0345  3000               	movlw	0
  3459     0346  00C4               	movwf	___flmul@prod+2
  3460     0347  3000               	movlw	0
  3461     0348  00C3               	movwf	___flmul@prod+1
  3462     0349  3000               	movlw	0
  3463     034A  00C2               	movwf	___flmul@prod
  3464     034B                     l2422:
  3465     034B  01BB               	clrf	___flmul@sign
  3466     034C  2B63               	goto	l701
  3467     034D                     l2424:
  3468     034D  1283               	bcf	3,5	;RP0=0, select bank0
  3469     034E  1303               	bcf	3,6	;RP1=0, select bank0
  3470     034F  0846               	movf	___flmul@temp,w
  3471     0350  00C1               	movwf	___flmul@bexp
  3472     0351  30FF               	movlw	255
  3473     0352  05C2               	andwf	___flmul@prod,f
  3474     0353  30FF               	movlw	255
  3475     0354  05C3               	andwf	___flmul@prod+1,f
  3476     0355  307F               	movlw	127
  3477     0356  05C4               	andwf	___flmul@prod+2,f
  3478     0357  3000               	movlw	0
  3479     0358  05C5               	andwf	___flmul@prod+3,f
  3480     0359                     l2426:
  3481     0359  1C41               	btfss	___flmul@bexp,0
  3482     035A  2B5C               	goto	u3361
  3483     035B  2B5D               	goto	u3360
  3484     035C                     u3361:
  3485     035C  2B5E               	goto	l2430
  3486     035D                     u3360:
  3487     035D                     l2428:
  3488     035D  17C4               	bsf	___flmul@prod+2,7
  3489     035E                     l2430:
  3490     035E  0841               	movf	___flmul@bexp,w
  3491     035F  00B6               	movwf	??___flmul
  3492     0360  1003               	clrc
  3493     0361  0C36               	rrf	??___flmul,w
  3494     0362  00C5               	movwf	___flmul@prod+3
  3495     0363                     l701:
  3496     0363  083B               	movf	___flmul@sign,w
  3497     0364  00B6               	movwf	??___flmul
  3498     0365  0836               	movf	??___flmul,w
  3499     0366  04C5               	iorwf	___flmul@prod+3,f
  3500     0367                     l2432:
  3501     0367  0845               	movf	___flmul@prod+3,w
  3502     0368  00B1               	movwf	?___flmul+3
  3503     0369  0844               	movf	___flmul@prod+2,w
  3504     036A  00B0               	movwf	?___flmul+2
  3505     036B  0843               	movf	___flmul@prod+1,w
  3506     036C  00AF               	movwf	?___flmul+1
  3507     036D  0842               	movf	___flmul@prod,w
  3508     036E  00AE               	movwf	?___flmul
  3509     036F                     l689:
  3510     036F  0008               	return
  3511     0370                     __end_of___flmul:
  3512                           
  3513                           	psect	text12
  3514     0D8C                     __ptext12:	
  3515 ;; *************** function __Umul8_16 *****************
  3516 ;; Defined at:
  3517 ;;		line 4 in file "C:\Program Files\Microchip\xc8\v2.40\pic\sources\c90\common\Umul8_16.c"
  3518 ;; Parameters:    Size  Location     Type
  3519 ;;  multiplier      1    wreg     unsigned char 
  3520 ;;  multiplicand    1    0[BANK0 ] unsigned char 
  3521 ;; Auto vars:     Size  Location     Type
  3522 ;;  multiplier      1    8[BANK0 ] unsigned char 
  3523 ;;  word_mpld       2    6[BANK0 ] unsigned int 
  3524 ;;  product         2    4[BANK0 ] unsigned int 
  3525 ;; Return value:  Size  Location     Type
  3526 ;;                  2    0[BANK0 ] unsigned int 
  3527 ;; Registers used:
  3528 ;;		wreg, status,2, status,0
  3529 ;; Tracked objects:
  3530 ;;		On entry : 0/0
  3531 ;;		On exit  : 0/0
  3532 ;;		Unchanged: 0/0
  3533 ;; Data sizes:     COMMON   BANK0   BANK1   BANK3   BANK2
  3534 ;;      Params:         0       2       0       0       0
  3535 ;;      Locals:         0       5       0       0       0
  3536 ;;      Temps:          0       2       0       0       0
  3537 ;;      Totals:         0       9       0       0       0
  3538 ;;Total ram usage:        9 bytes
  3539 ;; Hardware stack levels used: 1
  3540 ;; Hardware stack levels required when called: 2
  3541 ;; This function calls:
  3542 ;;		Nothing
  3543 ;; This function is called by:
  3544 ;;		___flmul
  3545 ;; This function uses a non-reentrant model
  3546 ;;
  3547                           
  3548     0D8C                     __Umul8_16:	
  3549                           ;psect for function __Umul8_16
  3550                           
  3551                           
  3552                           ;incstack = 0
  3553                           ; Regs used in __Umul8_16: [wreg+status,2+status,0]
  3554                           ;__Umul8_16@multiplier stored from wreg
  3555     0D8C  1283               	bcf	3,5	;RP0=0, select bank0
  3556     0D8D  1303               	bcf	3,6	;RP1=0, select bank0
  3557     0D8E  00A8               	movwf	__Umul8_16@multiplier
  3558     0D8F                     l2268:
  3559     0D8F  01A4               	clrf	__Umul8_16@product
  3560     0D90  01A5               	clrf	__Umul8_16@product+1
  3561     0D91                     l2270:
  3562     0D91  0820               	movf	__Umul8_16@multiplicand,w
  3563     0D92  00A2               	movwf	??__Umul8_16
  3564     0D93  01A3               	clrf	??__Umul8_16+1
  3565     0D94  0822               	movf	??__Umul8_16,w
  3566     0D95  00A6               	movwf	__Umul8_16@word_mpld
  3567     0D96  0823               	movf	??__Umul8_16+1,w
  3568     0D97  00A7               	movwf	__Umul8_16@word_mpld+1
  3569     0D98                     l2272:
  3570     0D98  1C28               	btfss	__Umul8_16@multiplier,0
  3571     0D99  2D9B               	goto	u2931
  3572     0D9A  2D9C               	goto	u2930
  3573     0D9B                     u2931:
  3574     0D9B  2DA2               	goto	l708
  3575     0D9C                     u2930:
  3576     0D9C                     l2274:
  3577     0D9C  0826               	movf	__Umul8_16@word_mpld,w
  3578     0D9D  07A4               	addwf	__Umul8_16@product,f
  3579     0D9E  1803               	skipnc
  3580     0D9F  0AA5               	incf	__Umul8_16@product+1,f
  3581     0DA0  0827               	movf	__Umul8_16@word_mpld+1,w
  3582     0DA1  07A5               	addwf	__Umul8_16@product+1,f
  3583     0DA2                     l708:
  3584     0DA2  3001               	movlw	1
  3585     0DA3                     u2945:
  3586     0DA3  1003               	clrc
  3587     0DA4  0DA6               	rlf	__Umul8_16@word_mpld,f
  3588     0DA5  0DA7               	rlf	__Umul8_16@word_mpld+1,f
  3589     0DA6  3EFF               	addlw	-1
  3590     0DA7  1D03               	skipz
  3591     0DA8  2DA3               	goto	u2945
  3592     0DA9  1003               	clrc
  3593     0DAA  0CA8               	rrf	__Umul8_16@multiplier,f
  3594     0DAB                     l2276:
  3595     0DAB  0828               	movf	__Umul8_16@multiplier,w
  3596     0DAC  1D03               	btfss	3,2
  3597     0DAD  2DAF               	goto	u2951
  3598     0DAE  2DB0               	goto	u2950
  3599     0DAF                     u2951:
  3600     0DAF  2D98               	goto	l2272
  3601     0DB0                     u2950:
  3602     0DB0                     l2278:
  3603     0DB0  0825               	movf	__Umul8_16@product+1,w
  3604     0DB1  00A1               	movwf	?__Umul8_16+1
  3605     0DB2  0824               	movf	__Umul8_16@product,w
  3606     0DB3  00A0               	movwf	?__Umul8_16
  3607     0DB4                     l710:
  3608     0DB4  0008               	return
  3609     0DB5                     __end_of__Umul8_16:
  3610                           
  3611                           	psect	text13
  3612     0370                     __ptext13:	
  3613 ;; *************** function ___fladd *****************
  3614 ;; Defined at:
  3615 ;;		line 10 in file "C:\Program Files\Microchip\xc8\v2.40\pic\sources\c90\common\sprcadd.c"
  3616 ;; Parameters:    Size  Location     Type
  3617 ;;  b               4   40[BANK0 ] unsigned int 
  3618 ;;  a               4   44[BANK0 ] unsigned int 
  3619 ;; Auto vars:     Size  Location     Type
  3620 ;;  grs             1   59[BANK0 ] unsigned char 
  3621 ;;  bexp            1   58[BANK0 ] unsigned char 
  3622 ;;  aexp            1   57[BANK0 ] unsigned char 
  3623 ;;  signs           1   56[BANK0 ] unsigned char 
  3624 ;; Return value:  Size  Location     Type
  3625 ;;                  4   40[BANK0 ] unsigned char 
  3626 ;; Registers used:
  3627 ;;		wreg, status,2, status,0, btemp+1
  3628 ;; Tracked objects:
  3629 ;;		On entry : 0/0
  3630 ;;		On exit  : 0/0
  3631 ;;		Unchanged: 0/0
  3632 ;; Data sizes:     COMMON   BANK0   BANK1   BANK3   BANK2
  3633 ;;      Params:         0       8       0       0       0
  3634 ;;      Locals:         0       4       0       0       0
  3635 ;;      Temps:          0       8       0       0       0
  3636 ;;      Totals:         0      20       0       0       0
  3637 ;;Total ram usage:       20 bytes
  3638 ;; Hardware stack levels used: 1
  3639 ;; Hardware stack levels required when called: 2
  3640 ;; This function calls:
  3641 ;;		Nothing
  3642 ;; This function is called by:
  3643 ;;		_mapeo
  3644 ;; This function uses a non-reentrant model
  3645 ;;
  3646                           
  3647     0370                     ___fladd:	
  3648                           ;psect for function ___fladd
  3649                           
  3650     0370                     l1652:	
  3651                           ;incstack = 0
  3652                           ; Regs used in ___fladd: [wreg+status,2+status,0+btemp+1]
  3653                           
  3654     0370  1283               	bcf	3,5	;RP0=0, select bank0
  3655     0371  1303               	bcf	3,6	;RP1=0, select bank0
  3656     0372  084B               	movf	___fladd@b+3,w
  3657     0373  3980               	andlw	128
  3658     0374  00D8               	movwf	___fladd@signs
  3659     0375                     l1654:
  3660     0375  084B               	movf	___fladd@b+3,w
  3661     0376  00D0               	movwf	??___fladd
  3662     0377  0750               	addwf	??___fladd,w
  3663     0378  00DA               	movwf	___fladd@bexp
  3664     0379                     l1656:
  3665     0379  1FCA               	btfss	___fladd@b+2,7
  3666     037A  2B7C               	goto	u1751
  3667     037B  2B7D               	goto	u1750
  3668     037C                     u1751:
  3669     037C  2B7E               	goto	l1660
  3670     037D                     u1750:
  3671     037D                     l1658:
  3672     037D  145A               	bsf	___fladd@bexp,0
  3673     037E                     l1660:
  3674     037E  085A               	movf	___fladd@bexp,w
  3675     037F  1903               	btfsc	3,2
  3676     0380  2B82               	goto	u1761
  3677     0381  2B83               	goto	u1760
  3678     0382                     u1761:
  3679     0382  2B93               	goto	l1670
  3680     0383                     u1760:
  3681     0383                     l1662:
  3682     0383  0A5A               	incf	___fladd@bexp,w
  3683     0384  1D03               	btfss	3,2
  3684     0385  2B87               	goto	u1771
  3685     0386  2B88               	goto	u1770
  3686     0387                     u1771:
  3687     0387  2B90               	goto	l1666
  3688     0388                     u1770:
  3689     0388                     l1664:
  3690     0388  3000               	movlw	0
  3691     0389  00CB               	movwf	___fladd@b+3
  3692     038A  3000               	movlw	0
  3693     038B  00CA               	movwf	___fladd@b+2
  3694     038C  3000               	movlw	0
  3695     038D  00C9               	movwf	___fladd@b+1
  3696     038E  3000               	movlw	0
  3697     038F  00C8               	movwf	___fladd@b
  3698     0390                     l1666:
  3699     0390  17CA               	bsf	___fladd@b+2,7
  3700     0391                     l1668:
  3701     0391  01CB               	clrf	___fladd@b+3
  3702     0392  2B9B               	goto	l1672
  3703     0393                     l1670:
  3704     0393  3000               	movlw	0
  3705     0394  00CB               	movwf	___fladd@b+3
  3706     0395  3000               	movlw	0
  3707     0396  00CA               	movwf	___fladd@b+2
  3708     0397  3000               	movlw	0
  3709     0398  00C9               	movwf	___fladd@b+1
  3710     0399  3000               	movlw	0
  3711     039A  00C8               	movwf	___fladd@b
  3712     039B                     l1672:
  3713     039B  084F               	movf	___fladd@a+3,w
  3714     039C  3980               	andlw	128
  3715     039D  00D9               	movwf	___fladd@aexp
  3716     039E                     l1674:
  3717     039E  0859               	movf	___fladd@aexp,w
  3718     039F  0658               	xorwf	___fladd@signs,w
  3719     03A0  1903               	skipnz
  3720     03A1  2BA3               	goto	u1781
  3721     03A2  2BA4               	goto	u1780
  3722     03A3                     u1781:
  3723     03A3  2BA5               	goto	l1678
  3724     03A4                     u1780:
  3725     03A4                     l1676:
  3726     03A4  1758               	bsf	___fladd@signs,6
  3727     03A5                     l1678:
  3728     03A5  084F               	movf	___fladd@a+3,w
  3729     03A6  00D0               	movwf	??___fladd
  3730     03A7  0750               	addwf	??___fladd,w
  3731     03A8  00D9               	movwf	___fladd@aexp
  3732     03A9                     l1680:
  3733     03A9  1FCE               	btfss	___fladd@a+2,7
  3734     03AA  2BAC               	goto	u1791
  3735     03AB  2BAD               	goto	u1790
  3736     03AC                     u1791:
  3737     03AC  2BAE               	goto	l1684
  3738     03AD                     u1790:
  3739     03AD                     l1682:
  3740     03AD  1459               	bsf	___fladd@aexp,0
  3741     03AE                     l1684:
  3742     03AE  0859               	movf	___fladd@aexp,w
  3743     03AF  1903               	btfsc	3,2
  3744     03B0  2BB2               	goto	u1801
  3745     03B1  2BB3               	goto	u1800
  3746     03B2                     u1801:
  3747     03B2  2BC3               	goto	l1694
  3748     03B3                     u1800:
  3749     03B3                     l1686:
  3750     03B3  0A59               	incf	___fladd@aexp,w
  3751     03B4  1D03               	btfss	3,2
  3752     03B5  2BB7               	goto	u1811
  3753     03B6  2BB8               	goto	u1810
  3754     03B7                     u1811:
  3755     03B7  2BC0               	goto	l1690
  3756     03B8                     u1810:
  3757     03B8                     l1688:
  3758     03B8  3000               	movlw	0
  3759     03B9  00CF               	movwf	___fladd@a+3
  3760     03BA  3000               	movlw	0
  3761     03BB  00CE               	movwf	___fladd@a+2
  3762     03BC  3000               	movlw	0
  3763     03BD  00CD               	movwf	___fladd@a+1
  3764     03BE  3000               	movlw	0
  3765     03BF  00CC               	movwf	___fladd@a
  3766     03C0                     l1690:
  3767     03C0  17CE               	bsf	___fladd@a+2,7
  3768     03C1                     l1692:
  3769     03C1  01CF               	clrf	___fladd@a+3
  3770     03C2  2BCB               	goto	l593
  3771     03C3                     l1694:
  3772     03C3  3000               	movlw	0
  3773     03C4  00CF               	movwf	___fladd@a+3
  3774     03C5  3000               	movlw	0
  3775     03C6  00CE               	movwf	___fladd@a+2
  3776     03C7  3000               	movlw	0
  3777     03C8  00CD               	movwf	___fladd@a+1
  3778     03C9  3000               	movlw	0
  3779     03CA  00CC               	movwf	___fladd@a
  3780     03CB                     l593:
  3781     03CB  085A               	movf	___fladd@bexp,w
  3782     03CC  0259               	subwf	___fladd@aexp,w
  3783     03CD  1803               	skipnc
  3784     03CE  2BD0               	goto	u1821
  3785     03CF  2BD1               	goto	u1820
  3786     03D0                     u1821:
  3787     03D0  2BF7               	goto	l1730
  3788     03D1                     u1820:
  3789     03D1                     l1696:
  3790     03D1  1F58               	btfss	___fladd@signs,6
  3791     03D2  2BD4               	goto	u1831
  3792     03D3  2BD5               	goto	u1830
  3793     03D4                     u1831:
  3794     03D4  2BD9               	goto	l1700
  3795     03D5                     u1830:
  3796     03D5                     l1698:
  3797     03D5  3080               	movlw	128
  3798     03D6  00D0               	movwf	??___fladd
  3799     03D7  0850               	movf	??___fladd,w
  3800     03D8  06D8               	xorwf	___fladd@signs,f
  3801     03D9                     l1700:
  3802     03D9  085A               	movf	___fladd@bexp,w
  3803     03DA  00DB               	movwf	___fladd@grs
  3804     03DB                     l1702:
  3805     03DB  0859               	movf	___fladd@aexp,w
  3806     03DC  00DA               	movwf	___fladd@bexp
  3807     03DD                     l1704:
  3808     03DD  085B               	movf	___fladd@grs,w
  3809     03DE  00D9               	movwf	___fladd@aexp
  3810     03DF                     l1706:
  3811     03DF  0848               	movf	___fladd@b,w
  3812     03E0  00DB               	movwf	___fladd@grs
  3813     03E1                     l1708:
  3814     03E1  084C               	movf	___fladd@a,w
  3815     03E2  00C8               	movwf	___fladd@b
  3816     03E3                     l1710:
  3817     03E3  085B               	movf	___fladd@grs,w
  3818     03E4  00CC               	movwf	___fladd@a
  3819     03E5                     l1712:
  3820     03E5  0849               	movf	___fladd@b+1,w
  3821     03E6  00DB               	movwf	___fladd@grs
  3822     03E7                     l1714:
  3823     03E7  084D               	movf	___fladd@a+1,w
  3824     03E8  00C9               	movwf	___fladd@b+1
  3825     03E9                     l1716:
  3826     03E9  085B               	movf	___fladd@grs,w
  3827     03EA  00CD               	movwf	___fladd@a+1
  3828     03EB                     l1718:
  3829     03EB  084A               	movf	___fladd@b+2,w
  3830     03EC  00DB               	movwf	___fladd@grs
  3831     03ED                     l1720:
  3832     03ED  084E               	movf	___fladd@a+2,w
  3833     03EE  00CA               	movwf	___fladd@b+2
  3834     03EF                     l1722:
  3835     03EF  085B               	movf	___fladd@grs,w
  3836     03F0  00CE               	movwf	___fladd@a+2
  3837     03F1                     l1724:
  3838     03F1  084B               	movf	___fladd@b+3,w
  3839     03F2  00DB               	movwf	___fladd@grs
  3840     03F3                     l1726:
  3841     03F3  084F               	movf	___fladd@a+3,w
  3842     03F4  00CB               	movwf	___fladd@b+3
  3843     03F5                     l1728:
  3844     03F5  085B               	movf	___fladd@grs,w
  3845     03F6  00CF               	movwf	___fladd@a+3
  3846     03F7                     l1730:
  3847     03F7  01DB               	clrf	___fladd@grs
  3848     03F8                     l1732:
  3849     03F8  0859               	movf	___fladd@aexp,w
  3850     03F9  00D0               	movwf	??___fladd
  3851     03FA  01D1               	clrf	??___fladd+1
  3852     03FB  0851               	movf	??___fladd+1,w
  3853     03FC  00D3               	movwf	??___fladd+3
  3854     03FD  085A               	movf	___fladd@bexp,w
  3855     03FE  0250               	subwf	??___fladd,w
  3856     03FF  00D2               	movwf	??___fladd+2
  3857     0400  1C03               	skipc
  3858     0401  03D3               	decf	??___fladd+3,f
  3859     0402  0853               	movf	??___fladd+3,w
  3860     0403  3A80               	xorlw	128
  3861     0404  00FF               	movwf	btemp+1
  3862     0405  3080               	movlw	128
  3863     0406  027F               	subwf	btemp+1,w
  3864     0407  1D03               	skipz
  3865     0408  2C0B               	goto	u1845
  3866     0409  301A               	movlw	26
  3867     040A  0252               	subwf	??___fladd+2,w
  3868     040B                     u1845:
  3869     040B  1C03               	skipc
  3870     040C  2C0E               	goto	u1841
  3871     040D  2C0F               	goto	u1840
  3872     040E                     u1841:
  3873     040E  2C46               	goto	l1748
  3874     040F                     u1840:
  3875     040F                     l1734:
  3876     040F  1283               	bcf	3,5	;RP0=0, select bank0
  3877     0410  1303               	bcf	3,6	;RP1=0, select bank0
  3878     0411  084B               	movf	___fladd@b+3,w
  3879     0412  044A               	iorwf	___fladd@b+2,w
  3880     0413  0449               	iorwf	___fladd@b+1,w
  3881     0414  0448               	iorwf	___fladd@b,w
  3882     0415  1D03               	skipz
  3883     0416  2C18               	goto	u1851
  3884     0417  2C1A               	goto	u1850
  3885     0418                     u1851:
  3886     0418  3001               	movlw	1
  3887     0419  2C1B               	goto	u1860
  3888     041A                     u1850:
  3889     041A  3000               	movlw	0
  3890     041B                     u1860:
  3891     041B  00DB               	movwf	___fladd@grs
  3892     041C  3000               	movlw	0
  3893     041D  00CB               	movwf	___fladd@b+3
  3894     041E  3000               	movlw	0
  3895     041F  00CA               	movwf	___fladd@b+2
  3896     0420  3000               	movlw	0
  3897     0421  00C9               	movwf	___fladd@b+1
  3898     0422  3000               	movlw	0
  3899     0423  00C8               	movwf	___fladd@b
  3900     0424  0859               	movf	___fladd@aexp,w
  3901     0425  00DA               	movwf	___fladd@bexp
  3902     0426  2C4E               	goto	l597
  3903     0427                     l599:
  3904     0427  1C5B               	btfss	___fladd@grs,0
  3905     0428  2C2A               	goto	u1871
  3906     0429  2C2B               	goto	u1870
  3907     042A                     u1871:
  3908     042A  2C32               	goto	l1738
  3909     042B                     u1870:
  3910     042B                     l1736:
  3911     042B  085B               	movf	___fladd@grs,w
  3912     042C  00D0               	movwf	??___fladd
  3913     042D  1003               	clrc
  3914     042E  0C50               	rrf	??___fladd,w
  3915     042F  3801               	iorlw	1
  3916     0430  00DB               	movwf	___fladd@grs
  3917     0431  2C34               	goto	l1740
  3918     0432                     l1738:
  3919     0432  1003               	clrc
  3920     0433  0CDB               	rrf	___fladd@grs,f
  3921     0434                     l1740:
  3922     0434  1C48               	btfss	___fladd@b,0
  3923     0435  2C37               	goto	u1881
  3924     0436  2C38               	goto	u1880
  3925     0437                     u1881:
  3926     0437  2C39               	goto	l1744
  3927     0438                     u1880:
  3928     0438                     l1742:
  3929     0438  17DB               	bsf	___fladd@grs,7
  3930     0439                     l1744:
  3931     0439  3001               	movlw	1
  3932     043A  00D0               	movwf	??___fladd
  3933     043B                     u1895:
  3934     043B  0D4B               	rlf	___fladd@b+3,w
  3935     043C  0CCB               	rrf	___fladd@b+3,f
  3936     043D  0CCA               	rrf	___fladd@b+2,f
  3937     043E  0CC9               	rrf	___fladd@b+1,f
  3938     043F  0CC8               	rrf	___fladd@b,f
  3939     0440  0BD0               	decfsz	??___fladd& (0+127),f
  3940     0441  2C3B               	goto	u1895
  3941     0442                     l1746:
  3942     0442  3001               	movlw	1
  3943     0443  00D0               	movwf	??___fladd
  3944     0444  0850               	movf	??___fladd,w
  3945     0445  07DA               	addwf	___fladd@bexp,f
  3946     0446                     l1748:
  3947     0446  1283               	bcf	3,5	;RP0=0, select bank0
  3948     0447  1303               	bcf	3,6	;RP1=0, select bank0
  3949     0448  0859               	movf	___fladd@aexp,w
  3950     0449  025A               	subwf	___fladd@bexp,w
  3951     044A  1C03               	skipc
  3952     044B  2C4D               	goto	u1901
  3953     044C  2C4E               	goto	u1900
  3954     044D                     u1901:
  3955     044D  2C27               	goto	l599
  3956     044E                     u1900:
  3957     044E                     l597:
  3958     044E  1B58               	btfsc	___fladd@signs,6
  3959     044F  2C51               	goto	u1911
  3960     0450  2C52               	goto	u1910
  3961     0451                     u1911:
  3962     0451  2C9B               	goto	l1774
  3963     0452                     u1910:
  3964     0452                     l1750:
  3965     0452  085A               	movf	___fladd@bexp,w
  3966     0453  1D03               	btfss	3,2
  3967     0454  2C56               	goto	u1921
  3968     0455  2C57               	goto	u1920
  3969     0456                     u1921:
  3970     0456  2C60               	goto	l1756
  3971     0457                     u1920:
  3972     0457                     l1752:
  3973     0457  3000               	movlw	0
  3974     0458  00CB               	movwf	?___fladd+3
  3975     0459  3000               	movlw	0
  3976     045A  00CA               	movwf	?___fladd+2
  3977     045B  3000               	movlw	0
  3978     045C  00C9               	movwf	?___fladd+1
  3979     045D  3000               	movlw	0
  3980     045E  00C8               	movwf	?___fladd
  3981     045F  2DC7               	goto	l606
  3982     0460                     l1756:
  3983     0460  084C               	movf	___fladd@a,w
  3984     0461  07C8               	addwf	___fladd@b,f
  3985     0462  084D               	movf	___fladd@a+1,w
  3986     0463  1103               	clrz
  3987     0464  1803               	skipnc
  3988     0465  3E01               	addlw	1
  3989     0466  1903               	skipnz
  3990     0467  2C69               	goto	u1931
  3991     0468  07C9               	addwf	___fladd@b+1,f
  3992     0469                     u1931:
  3993     0469  084E               	movf	___fladd@a+2,w
  3994     046A  1103               	clrz
  3995     046B  1803               	skipnc
  3996     046C  3E01               	addlw	1
  3997     046D  1903               	skipnz
  3998     046E  2C70               	goto	u1932
  3999     046F  07CA               	addwf	___fladd@b+2,f
  4000     0470                     u1932:
  4001     0470  084F               	movf	___fladd@a+3,w
  4002     0471  1103               	clrz
  4003     0472  1803               	skipnc
  4004     0473  3E01               	addlw	1
  4005     0474  1903               	skipnz
  4006     0475  2C77               	goto	u1933
  4007     0476  07CB               	addwf	___fladd@b+3,f
  4008     0477                     u1933:
  4009     0477                     l1758:
  4010     0477  1C4B               	btfss	___fladd@b+3,0
  4011     0478  2C7A               	goto	u1941
  4012     0479  2C7B               	goto	u1940
  4013     047A                     u1941:
  4014     047A  2D4F               	goto	l1808
  4015     047B                     u1940:
  4016     047B                     l1760:
  4017     047B  1C5B               	btfss	___fladd@grs,0
  4018     047C  2C7E               	goto	u1951
  4019     047D  2C7F               	goto	u1950
  4020     047E                     u1951:
  4021     047E  2C86               	goto	l1764
  4022     047F                     u1950:
  4023     047F                     l1762:
  4024     047F  085B               	movf	___fladd@grs,w
  4025     0480  00D0               	movwf	??___fladd
  4026     0481  1003               	clrc
  4027     0482  0C50               	rrf	??___fladd,w
  4028     0483  3801               	iorlw	1
  4029     0484  00DB               	movwf	___fladd@grs
  4030     0485  2C88               	goto	l1766
  4031     0486                     l1764:
  4032     0486  1003               	clrc
  4033     0487  0CDB               	rrf	___fladd@grs,f
  4034     0488                     l1766:
  4035     0488  1C48               	btfss	___fladd@b,0
  4036     0489  2C8B               	goto	u1961
  4037     048A  2C8C               	goto	u1960
  4038     048B                     u1961:
  4039     048B  2C8D               	goto	l1770
  4040     048C                     u1960:
  4041     048C                     l1768:
  4042     048C  17DB               	bsf	___fladd@grs,7
  4043     048D                     l1770:
  4044     048D  3001               	movlw	1
  4045     048E  00D0               	movwf	??___fladd
  4046     048F                     u1975:
  4047     048F  0D4B               	rlf	___fladd@b+3,w
  4048     0490  0CCB               	rrf	___fladd@b+3,f
  4049     0491  0CCA               	rrf	___fladd@b+2,f
  4050     0492  0CC9               	rrf	___fladd@b+1,f
  4051     0493  0CC8               	rrf	___fladd@b,f
  4052     0494  0BD0               	decfsz	??___fladd& (0+127),f
  4053     0495  2C8F               	goto	u1975
  4054     0496                     l1772:
  4055     0496  3001               	movlw	1
  4056     0497  00D0               	movwf	??___fladd
  4057     0498  0850               	movf	??___fladd,w
  4058     0499  07DA               	addwf	___fladd@bexp,f
  4059     049A  2D4F               	goto	l1808
  4060     049B                     l1774:
  4061     049B  084B               	movf	___fladd@b+3,w
  4062     049C  3A80               	xorlw	128
  4063     049D  00FF               	movwf	btemp+1
  4064     049E  084F               	movf	___fladd@a+3,w
  4065     049F  3A80               	xorlw	128
  4066     04A0  027F               	subwf	btemp+1,w
  4067     04A1  1D03               	skipz
  4068     04A2  2CAD               	goto	u1983
  4069     04A3  084E               	movf	___fladd@a+2,w
  4070     04A4  024A               	subwf	___fladd@b+2,w
  4071     04A5  1D03               	skipz
  4072     04A6  2CAD               	goto	u1983
  4073     04A7  084D               	movf	___fladd@a+1,w
  4074     04A8  0249               	subwf	___fladd@b+1,w
  4075     04A9  1D03               	skipz
  4076     04AA  2CAD               	goto	u1983
  4077     04AB  084C               	movf	___fladd@a,w
  4078     04AC  0248               	subwf	___fladd@b,w
  4079     04AD                     u1983:
  4080     04AD  1803               	skipnc
  4081     04AE  2CB0               	goto	u1981
  4082     04AF  2CB1               	goto	u1980
  4083     04B0                     u1981:
  4084     04B0  2D09               	goto	l1784
  4085     04B1                     u1980:
  4086     04B1                     l1776:
  4087     04B1  30FF               	movlw	255
  4088     04B2  00D0               	movwf	??___fladd
  4089     04B3  30FF               	movlw	255
  4090     04B4  00D1               	movwf	??___fladd+1
  4091     04B5  30FF               	movlw	255
  4092     04B6  00D2               	movwf	??___fladd+2
  4093     04B7  30FF               	movlw	255
  4094     04B8  00D3               	movwf	??___fladd+3
  4095     04B9  084C               	movf	___fladd@a,w
  4096     04BA  00D4               	movwf	??___fladd+4
  4097     04BB  084D               	movf	___fladd@a+1,w
  4098     04BC  00D5               	movwf	??___fladd+5
  4099     04BD  084E               	movf	___fladd@a+2,w
  4100     04BE  00D6               	movwf	??___fladd+6
  4101     04BF  084F               	movf	___fladd@a+3,w
  4102     04C0  00D7               	movwf	??___fladd+7
  4103     04C1  0848               	movf	___fladd@b,w
  4104     04C2  02D4               	subwf	??___fladd+4,f
  4105     04C3  0849               	movf	___fladd@b+1,w
  4106     04C4  1C03               	skipc
  4107     04C5  0F49               	incfsz	___fladd@b+1,w
  4108     04C6  2CC8               	goto	u1991
  4109     04C7  2CC9               	goto	u1992
  4110     04C8                     u1991:
  4111     04C8  02D5               	subwf	??___fladd+5,f
  4112     04C9                     u1992:
  4113     04C9  084A               	movf	___fladd@b+2,w
  4114     04CA  1C03               	skipc
  4115     04CB  0F4A               	incfsz	___fladd@b+2,w
  4116     04CC  2CCE               	goto	u1993
  4117     04CD  2CCF               	goto	u1994
  4118     04CE                     u1993:
  4119     04CE  02D6               	subwf	??___fladd+6,f
  4120     04CF                     u1994:
  4121     04CF  084B               	movf	___fladd@b+3,w
  4122     04D0  1C03               	skipc
  4123     04D1  0F4B               	incfsz	___fladd@b+3,w
  4124     04D2  2CD4               	goto	u1995
  4125     04D3  2CD5               	goto	u1996
  4126     04D4                     u1995:
  4127     04D4  02D7               	subwf	??___fladd+7,f
  4128     04D5                     u1996:
  4129     04D5  0854               	movf	??___fladd+4,w
  4130     04D6  07D0               	addwf	??___fladd,f
  4131     04D7  0855               	movf	??___fladd+5,w
  4132     04D8  1803               	skipnc
  4133     04D9  0F55               	incfsz	??___fladd+5,w
  4134     04DA  2CDC               	goto	u2000
  4135     04DB  2CDD               	goto	u2001
  4136     04DC                     u2000:
  4137     04DC  07D1               	addwf	??___fladd+1,f
  4138     04DD                     u2001:
  4139     04DD  0856               	movf	??___fladd+6,w
  4140     04DE  1803               	skipnc
  4141     04DF  0F56               	incfsz	??___fladd+6,w
  4142     04E0  2CE2               	goto	u2002
  4143     04E1  2CE3               	goto	u2003
  4144     04E2                     u2002:
  4145     04E2  07D2               	addwf	??___fladd+2,f
  4146     04E3                     u2003:
  4147     04E3  0857               	movf	??___fladd+7,w
  4148     04E4  1803               	skipnc
  4149     04E5  0A57               	incf	??___fladd+7,w
  4150     04E6  07D3               	addwf	??___fladd+3,f
  4151     04E7  0853               	movf	??___fladd+3,w
  4152     04E8  00CB               	movwf	___fladd@b+3
  4153     04E9  0852               	movf	??___fladd+2,w
  4154     04EA  00CA               	movwf	___fladd@b+2
  4155     04EB  0851               	movf	??___fladd+1,w
  4156     04EC  00C9               	movwf	___fladd@b+1
  4157     04ED  0850               	movf	??___fladd,w
  4158     04EE  00C8               	movwf	___fladd@b
  4159     04EF                     l1778:
  4160     04EF  3080               	movlw	128
  4161     04F0  00D0               	movwf	??___fladd
  4162     04F1  0850               	movf	??___fladd,w
  4163     04F2  06D8               	xorwf	___fladd@signs,f
  4164     04F3  09DB               	comf	___fladd@grs,f
  4165     04F4  0ADB               	incf	___fladd@grs,f
  4166     04F5                     l1780:
  4167     04F5  085B               	movf	___fladd@grs,w
  4168     04F6  1D03               	btfss	3,2
  4169     04F7  2CF9               	goto	u2011
  4170     04F8  2CFA               	goto	u2010
  4171     04F9                     u2011:
  4172     04F9  2D17               	goto	l614
  4173     04FA                     u2010:
  4174     04FA                     l1782:
  4175     04FA  3001               	movlw	1
  4176     04FB  07C8               	addwf	___fladd@b,f
  4177     04FC  3000               	movlw	0
  4178     04FD  1803               	skipnc
  4179     04FE  3001               	movlw	1
  4180     04FF  07C9               	addwf	___fladd@b+1,f
  4181     0500  3000               	movlw	0
  4182     0501  1803               	skipnc
  4183     0502  3001               	movlw	1
  4184     0503  07CA               	addwf	___fladd@b+2,f
  4185     0504  3000               	movlw	0
  4186     0505  1803               	skipnc
  4187     0506  3001               	movlw	1
  4188     0507  07CB               	addwf	___fladd@b+3,f
  4189     0508  2D17               	goto	l614
  4190     0509                     l1784:
  4191     0509  084C               	movf	___fladd@a,w
  4192     050A  02C8               	subwf	___fladd@b,f
  4193     050B  084D               	movf	___fladd@a+1,w
  4194     050C  1C03               	skipc
  4195     050D  0F4D               	incfsz	___fladd@a+1,w
  4196     050E  02C9               	subwf	___fladd@b+1,f
  4197     050F  084E               	movf	___fladd@a+2,w
  4198     0510  1C03               	skipc
  4199     0511  0F4E               	incfsz	___fladd@a+2,w
  4200     0512  02CA               	subwf	___fladd@b+2,f
  4201     0513  084F               	movf	___fladd@a+3,w
  4202     0514  1C03               	skipc
  4203     0515  0F4F               	incfsz	___fladd@a+3,w
  4204     0516  02CB               	subwf	___fladd@b+3,f
  4205     0517                     l614:
  4206     0517  084B               	movf	___fladd@b+3,w
  4207     0518  044A               	iorwf	___fladd@b+2,w
  4208     0519  0449               	iorwf	___fladd@b+1,w
  4209     051A  0448               	iorwf	___fladd@b,w
  4210     051B  1D03               	skipz
  4211     051C  2D1E               	goto	u2021
  4212     051D  2D1F               	goto	u2020
  4213     051E                     u2021:
  4214     051E  2D4B               	goto	l1806
  4215     051F                     u2020:
  4216     051F                     l1786:
  4217     051F  085B               	movf	___fladd@grs,w
  4218     0520  1D03               	btfss	3,2
  4219     0521  2D23               	goto	u2031
  4220     0522  2D24               	goto	u2030
  4221     0523                     u2031:
  4222     0523  2D4B               	goto	l1806
  4223     0524                     u2030:
  4224     0524                     l1788:
  4225     0524  3000               	movlw	0
  4226     0525  00CB               	movwf	?___fladd+3
  4227     0526  3000               	movlw	0
  4228     0527  00CA               	movwf	?___fladd+2
  4229     0528  3000               	movlw	0
  4230     0529  00C9               	movwf	?___fladd+1
  4231     052A  3000               	movlw	0
  4232     052B  00C8               	movwf	?___fladd
  4233     052C  2DC7               	goto	l606
  4234     052D                     l1792:
  4235     052D  3001               	movlw	1
  4236     052E  00D0               	movwf	??___fladd
  4237     052F                     u2045:
  4238     052F  1003               	clrc
  4239     0530  0DC8               	rlf	___fladd@b,f
  4240     0531  0DC9               	rlf	___fladd@b+1,f
  4241     0532  0DCA               	rlf	___fladd@b+2,f
  4242     0533  0DCB               	rlf	___fladd@b+3,f
  4243     0534  0BD0               	decfsz	??___fladd,f
  4244     0535  2D2F               	goto	u2045
  4245     0536                     l1794:
  4246     0536  1FDB               	btfss	___fladd@grs,7
  4247     0537  2D39               	goto	u2051
  4248     0538  2D3A               	goto	u2050
  4249     0539                     u2051:
  4250     0539  2D3B               	goto	l618
  4251     053A                     u2050:
  4252     053A                     l1796:
  4253     053A  1448               	bsf	___fladd@b,0
  4254     053B                     l618:
  4255     053B  1C5B               	btfss	___fladd@grs,0
  4256     053C  2D3E               	goto	u2061
  4257     053D  2D3F               	goto	u2060
  4258     053E                     u2061:
  4259     053E  2D42               	goto	l1800
  4260     053F                     u2060:
  4261     053F                     l1798:
  4262     053F  1403               	setc
  4263     0540  0DDB               	rlf	___fladd@grs,f
  4264     0541  2D44               	goto	l1802
  4265     0542                     l1800:
  4266     0542  1003               	clrc
  4267     0543  0DDB               	rlf	___fladd@grs,f
  4268     0544                     l1802:
  4269     0544  085A               	movf	___fladd@bexp,w
  4270     0545  1903               	btfsc	3,2
  4271     0546  2D48               	goto	u2071
  4272     0547  2D49               	goto	u2070
  4273     0548                     u2071:
  4274     0548  2D4B               	goto	l1806
  4275     0549                     u2070:
  4276     0549                     l1804:
  4277     0549  3001               	movlw	1
  4278     054A  02DA               	subwf	___fladd@bexp,f
  4279     054B                     l1806:
  4280     054B  1FCA               	btfss	___fladd@b+2,7
  4281     054C  2D4E               	goto	u2081
  4282     054D  2D4F               	goto	u2080
  4283     054E                     u2081:
  4284     054E  2D2D               	goto	l1792
  4285     054F                     u2080:
  4286     054F                     l1808:
  4287     054F  01D9               	clrf	___fladd@aexp
  4288     0550                     l1810:
  4289     0550  1FDB               	btfss	___fladd@grs,7
  4290     0551  2D53               	goto	u2091
  4291     0552  2D54               	goto	u2090
  4292     0553                     u2091:
  4293     0553  2D62               	goto	l1818
  4294     0554                     u2090:
  4295     0554                     l1812:
  4296     0554  085B               	movf	___fladd@grs,w
  4297     0555  397F               	andlw	127
  4298     0556  1903               	btfsc	3,2
  4299     0557  2D59               	goto	u2101
  4300     0558  2D5A               	goto	u2100
  4301     0559                     u2101:
  4302     0559  2D5D               	goto	l624
  4303     055A                     u2100:
  4304     055A                     l1814:
  4305     055A  01D9               	clrf	___fladd@aexp
  4306     055B  0AD9               	incf	___fladd@aexp,f
  4307     055C  2D62               	goto	l1818
  4308     055D                     l624:
  4309     055D  1C48               	btfss	___fladd@b,0
  4310     055E  2D60               	goto	u2111
  4311     055F  2D61               	goto	u2110
  4312     0560                     u2111:
  4313     0560  2D62               	goto	l1818
  4314     0561                     u2110:
  4315     0561  2D5A               	goto	l1814
  4316     0562                     l1818:
  4317     0562  0859               	movf	___fladd@aexp,w
  4318     0563  1903               	btfsc	3,2
  4319     0564  2D66               	goto	u2121
  4320     0565  2D67               	goto	u2120
  4321     0566                     u2121:
  4322     0566  2D9B               	goto	l627
  4323     0567                     u2120:
  4324     0567                     l1820:
  4325     0567  3001               	movlw	1
  4326     0568  07C8               	addwf	___fladd@b,f
  4327     0569  3000               	movlw	0
  4328     056A  1803               	skipnc
  4329     056B  3001               	movlw	1
  4330     056C  07C9               	addwf	___fladd@b+1,f
  4331     056D  3000               	movlw	0
  4332     056E  1803               	skipnc
  4333     056F  3001               	movlw	1
  4334     0570  07CA               	addwf	___fladd@b+2,f
  4335     0571  3000               	movlw	0
  4336     0572  1803               	skipnc
  4337     0573  3001               	movlw	1
  4338     0574  07CB               	addwf	___fladd@b+3,f
  4339     0575                     l1822:
  4340     0575  1C4B               	btfss	___fladd@b+3,0
  4341     0576  2D78               	goto	u2131
  4342     0577  2D79               	goto	u2130
  4343     0578                     u2131:
  4344     0578  2D9B               	goto	l627
  4345     0579                     u2130:
  4346     0579                     l1824:
  4347     0579  0848               	movf	___fladd@b,w
  4348     057A  00D0               	movwf	??___fladd
  4349     057B  0849               	movf	___fladd@b+1,w
  4350     057C  00D1               	movwf	??___fladd+1
  4351     057D  084A               	movf	___fladd@b+2,w
  4352     057E  00D2               	movwf	??___fladd+2
  4353     057F  084B               	movf	___fladd@b+3,w
  4354     0580  00D3               	movwf	??___fladd+3
  4355     0581  3001               	movlw	1
  4356     0582  00D4               	movwf	??___fladd+4
  4357     0583                     u2145:
  4358     0583  0D53               	rlf	??___fladd+3,w
  4359     0584  0CD3               	rrf	??___fladd+3,f
  4360     0585  0CD2               	rrf	??___fladd+2,f
  4361     0586  0CD1               	rrf	??___fladd+1,f
  4362     0587  0CD0               	rrf	??___fladd,f
  4363     0588                     u2140:
  4364     0588  0BD4               	decfsz	??___fladd+4,f
  4365     0589  2D83               	goto	u2145
  4366     058A  0853               	movf	??___fladd+3,w
  4367     058B  00CB               	movwf	___fladd@b+3
  4368     058C  0852               	movf	??___fladd+2,w
  4369     058D  00CA               	movwf	___fladd@b+2
  4370     058E  0851               	movf	??___fladd+1,w
  4371     058F  00C9               	movwf	___fladd@b+1
  4372     0590  0850               	movf	??___fladd,w
  4373     0591  00C8               	movwf	___fladd@b
  4374     0592  0A5A               	incf	___fladd@bexp,w
  4375     0593  1903               	btfsc	3,2
  4376     0594  2D96               	goto	u2151
  4377     0595  2D97               	goto	u2150
  4378     0596                     u2151:
  4379     0596  2D9B               	goto	l627
  4380     0597                     u2150:
  4381     0597                     l1826:
  4382     0597  3001               	movlw	1
  4383     0598  00D0               	movwf	??___fladd
  4384     0599  0850               	movf	??___fladd,w
  4385     059A  07DA               	addwf	___fladd@bexp,f
  4386     059B                     l627:
  4387     059B  0A5A               	incf	___fladd@bexp,w
  4388     059C  1903               	btfsc	3,2
  4389     059D  2D9F               	goto	u2161
  4390     059E  2DA0               	goto	u2160
  4391     059F                     u2161:
  4392     059F  2DA5               	goto	l1830
  4393     05A0                     u2160:
  4394     05A0                     l1828:
  4395     05A0  085A               	movf	___fladd@bexp,w
  4396     05A1  1D03               	btfss	3,2
  4397     05A2  2DA4               	goto	u2171
  4398     05A3  2DA5               	goto	u2170
  4399     05A4                     u2171:
  4400     05A4  2DB3               	goto	l1836
  4401     05A5                     u2170:
  4402     05A5                     l1830:
  4403     05A5  3000               	movlw	0
  4404     05A6  00CB               	movwf	___fladd@b+3
  4405     05A7  3000               	movlw	0
  4406     05A8  00CA               	movwf	___fladd@b+2
  4407     05A9  3000               	movlw	0
  4408     05AA  00C9               	movwf	___fladd@b+1
  4409     05AB  3000               	movlw	0
  4410     05AC  00C8               	movwf	___fladd@b
  4411     05AD                     l1832:
  4412     05AD  085A               	movf	___fladd@bexp,w
  4413     05AE  1D03               	btfss	3,2
  4414     05AF  2DB1               	goto	u2181
  4415     05B0  2DB2               	goto	u2180
  4416     05B1                     u2181:
  4417     05B1  2DB3               	goto	l1836
  4418     05B2                     u2180:
  4419     05B2                     l1834:
  4420     05B2  01D8               	clrf	___fladd@signs
  4421     05B3                     l1836:
  4422     05B3  1C5A               	btfss	___fladd@bexp,0
  4423     05B4  2DB6               	goto	u2191
  4424     05B5  2DB7               	goto	u2190
  4425     05B6                     u2191:
  4426     05B6  2DB9               	goto	l1840
  4427     05B7                     u2190:
  4428     05B7                     l1838:
  4429     05B7  17CA               	bsf	___fladd@b+2,7
  4430     05B8  2DBD               	goto	l635
  4431     05B9                     l1840:
  4432     05B9  307F               	movlw	127
  4433     05BA  00D0               	movwf	??___fladd
  4434     05BB  0850               	movf	??___fladd,w
  4435     05BC  05CA               	andwf	___fladd@b+2,f
  4436     05BD                     l635:
  4437     05BD  085A               	movf	___fladd@bexp,w
  4438     05BE  00D0               	movwf	??___fladd
  4439     05BF  1003               	clrc
  4440     05C0  0C50               	rrf	??___fladd,w
  4441     05C1  00CB               	movwf	___fladd@b+3
  4442     05C2                     l1842:
  4443     05C2  1FD8               	btfss	___fladd@signs,7
  4444     05C3  2DC5               	goto	u2201
  4445     05C4  2DC6               	goto	u2200
  4446     05C5                     u2201:
  4447     05C5  2DC7               	goto	l636
  4448     05C6                     u2200:
  4449     05C6                     l1844:
  4450     05C6  17CB               	bsf	___fladd@b+3,7
  4451     05C7                     l636:
  4452     05C7                     l606:
  4453     05C7  0008               	return
  4454     05C8                     __end_of___fladd:
  4455                           
  4456                           	psect	text14
  4457     0E0E                     __ptext14:	
  4458 ;; *************** function _map *****************
  4459 ;; Defined at:
  4460 ;;		line 234 in file "main.c"
  4461 ;; Parameters:    Size  Location     Type
  4462 ;;  value           1    wreg     unsigned char 
  4463 ;;  inputmin        2   15[BANK0 ] int 
  4464 ;;  inputmax        2   17[BANK0 ] int 
  4465 ;;  outmin          2   19[BANK0 ] int 
  4466 ;;  outmax          2   21[BANK0 ] int 
  4467 ;; Auto vars:     Size  Location     Type
  4468 ;;  value           1   24[BANK0 ] unsigned char 
  4469 ;; Return value:  Size  Location     Type
  4470 ;;                  2   15[BANK0 ] unsigned int 
  4471 ;; Registers used:
  4472 ;;		wreg, status,2, status,0, pclath, cstack
  4473 ;; Tracked objects:
  4474 ;;		On entry : 0/0
  4475 ;;		On exit  : 0/0
  4476 ;;		Unchanged: 0/0
  4477 ;; Data sizes:     COMMON   BANK0   BANK1   BANK3   BANK2
  4478 ;;      Params:         0       8       0       0       0
  4479 ;;      Locals:         0       1       0       0       0
  4480 ;;      Temps:          0       1       0       0       0
  4481 ;;      Totals:         0      10       0       0       0
  4482 ;;Total ram usage:       10 bytes
  4483 ;; Hardware stack levels used: 1
  4484 ;; Hardware stack levels required when called: 3
  4485 ;; This function calls:
  4486 ;;		___awdiv
  4487 ;;		___wmul
  4488 ;; This function is called by:
  4489 ;;		_controlmotores
  4490 ;; This function uses a non-reentrant model
  4491 ;;
  4492                           
  4493     0E0E                     _map:	
  4494                           ;psect for function _map
  4495                           
  4496                           
  4497                           ;incstack = 0
  4498                           ; Regs used in _map: [wreg+status,2+status,0+pclath+cstack]
  4499                           ;map@value stored from wreg
  4500     0E0E  1283               	bcf	3,5	;RP0=0, select bank0
  4501     0E0F  1303               	bcf	3,6	;RP1=0, select bank0
  4502     0E10  00B8               	movwf	map@value
  4503     0E11                     l2436:
  4504                           
  4505                           ;main.c: 235:     return ((value - inputmin)*(outmax-outmin)) / (inputmax-inputmin)+outm
      +                          in;
  4506     0E11  082F               	movf	map@inputmin,w
  4507     0E12  0231               	subwf	map@inputmax,w
  4508     0E13  00A6               	movwf	___awdiv@divisor
  4509     0E14  0830               	movf	map@inputmin+1,w
  4510     0E15  1C03               	skipc
  4511     0E16  0A30               	incf	map@inputmin+1,w
  4512     0E17  0232               	subwf	map@inputmax+1,w
  4513     0E18  00A7               	movwf	___awdiv@divisor+1
  4514     0E19  0838               	movf	map@value,w
  4515     0E1A  00B7               	movwf	??_map
  4516     0E1B  082F               	movf	map@inputmin,w
  4517     0E1C  0237               	subwf	??_map,w
  4518     0E1D  00A0               	movwf	___wmul@multiplier
  4519     0E1E  0930               	comf	map@inputmin+1,w
  4520     0E1F  1803               	skipnc
  4521     0E20  3E01               	addlw	1
  4522     0E21  00A1               	movwf	___wmul@multiplier+1
  4523     0E22  0833               	movf	map@outmin,w
  4524     0E23  0235               	subwf	map@outmax,w
  4525     0E24  00A2               	movwf	___wmul@multiplicand
  4526     0E25  0834               	movf	map@outmin+1,w
  4527     0E26  1C03               	skipc
  4528     0E27  0A34               	incf	map@outmin+1,w
  4529     0E28  0236               	subwf	map@outmax+1,w
  4530     0E29  00A3               	movwf	___wmul@multiplicand+1
  4531     0E2A  120A  158A  2565  120A  158A  	fcall	___wmul
  4532     0E2F  1283               	bcf	3,5	;RP0=0, select bank0
  4533     0E30  1303               	bcf	3,6	;RP1=0, select bank0
  4534     0E31  0821               	movf	?___wmul+1,w
  4535     0E32  00A9               	movwf	___awdiv@dividend+1
  4536     0E33  0820               	movf	?___wmul,w
  4537     0E34  00A8               	movwf	___awdiv@dividend
  4538     0E35  120A  158A  268E  120A  158A  	fcall	___awdiv
  4539     0E3A  1283               	bcf	3,5	;RP0=0, select bank0
  4540     0E3B  1303               	bcf	3,6	;RP1=0, select bank0
  4541     0E3C  0833               	movf	map@outmin,w
  4542     0E3D  0726               	addwf	?___awdiv,w
  4543     0E3E  00AF               	movwf	?_map
  4544     0E3F  0834               	movf	map@outmin+1,w
  4545     0E40  1803               	skipnc
  4546     0E41  0A34               	incf	map@outmin+1,w
  4547     0E42  0727               	addwf	?___awdiv+1,w
  4548     0E43  00B0               	movwf	?_map+1
  4549     0E44                     l176:
  4550     0E44  0008               	return
  4551     0E45                     __end_of_map:
  4552                           
  4553                           	psect	text15
  4554     0D65                     __ptext15:	
  4555 ;; *************** function ___wmul *****************
  4556 ;; Defined at:
  4557 ;;		line 15 in file "C:\Program Files\Microchip\xc8\v2.40\pic\sources\c90\common\Umul16.c"
  4558 ;; Parameters:    Size  Location     Type
  4559 ;;  multiplier      2    0[BANK0 ] unsigned int 
  4560 ;;  multiplicand    2    2[BANK0 ] unsigned int 
  4561 ;; Auto vars:     Size  Location     Type
  4562 ;;  product         2    4[BANK0 ] unsigned int 
  4563 ;; Return value:  Size  Location     Type
  4564 ;;                  2    0[BANK0 ] unsigned int 
  4565 ;; Registers used:
  4566 ;;		wreg, status,2, status,0
  4567 ;; Tracked objects:
  4568 ;;		On entry : 0/0
  4569 ;;		On exit  : 0/0
  4570 ;;		Unchanged: 0/0
  4571 ;; Data sizes:     COMMON   BANK0   BANK1   BANK3   BANK2
  4572 ;;      Params:         0       4       0       0       0
  4573 ;;      Locals:         0       2       0       0       0
  4574 ;;      Temps:          0       0       0       0       0
  4575 ;;      Totals:         0       6       0       0       0
  4576 ;;Total ram usage:        6 bytes
  4577 ;; Hardware stack levels used: 1
  4578 ;; Hardware stack levels required when called: 2
  4579 ;; This function calls:
  4580 ;;		Nothing
  4581 ;; This function is called by:
  4582 ;;		_map
  4583 ;; This function uses a non-reentrant model
  4584 ;;
  4585                           
  4586     0D65                     ___wmul:	
  4587                           ;psect for function ___wmul
  4588                           
  4589     0D65                     l2282:	
  4590                           ;incstack = 0
  4591                           ; Regs used in ___wmul: [wreg+status,2+status,0]
  4592                           
  4593     0D65  1283               	bcf	3,5	;RP0=0, select bank0
  4594     0D66  1303               	bcf	3,6	;RP1=0, select bank0
  4595     0D67  01A4               	clrf	___wmul@product
  4596     0D68  01A5               	clrf	___wmul@product+1
  4597     0D69                     l2284:
  4598     0D69  1C20               	btfss	___wmul@multiplier,0
  4599     0D6A  2D6C               	goto	u2961
  4600     0D6B  2D6D               	goto	u2960
  4601     0D6C                     u2961:
  4602     0D6C  2D73               	goto	l300
  4603     0D6D                     u2960:
  4604     0D6D                     l2286:
  4605     0D6D  0822               	movf	___wmul@multiplicand,w
  4606     0D6E  07A4               	addwf	___wmul@product,f
  4607     0D6F  1803               	skipnc
  4608     0D70  0AA5               	incf	___wmul@product+1,f
  4609     0D71  0823               	movf	___wmul@multiplicand+1,w
  4610     0D72  07A5               	addwf	___wmul@product+1,f
  4611     0D73                     l300:
  4612     0D73  3001               	movlw	1
  4613     0D74                     u2975:
  4614     0D74  1003               	clrc
  4615     0D75  0DA2               	rlf	___wmul@multiplicand,f
  4616     0D76  0DA3               	rlf	___wmul@multiplicand+1,f
  4617     0D77  3EFF               	addlw	-1
  4618     0D78  1D03               	skipz
  4619     0D79  2D74               	goto	u2975
  4620     0D7A                     l2288:
  4621     0D7A  3001               	movlw	1
  4622     0D7B                     u2985:
  4623     0D7B  1003               	clrc
  4624     0D7C  0CA1               	rrf	___wmul@multiplier+1,f
  4625     0D7D  0CA0               	rrf	___wmul@multiplier,f
  4626     0D7E  3EFF               	addlw	-1
  4627     0D7F  1D03               	skipz
  4628     0D80  2D7B               	goto	u2985
  4629     0D81                     l2290:
  4630     0D81  0820               	movf	___wmul@multiplier,w
  4631     0D82  0421               	iorwf	___wmul@multiplier+1,w
  4632     0D83  1D03               	btfss	3,2
  4633     0D84  2D86               	goto	u2991
  4634     0D85  2D87               	goto	u2990
  4635     0D86                     u2991:
  4636     0D86  2D69               	goto	l2284
  4637     0D87                     u2990:
  4638     0D87                     l2292:
  4639     0D87  0825               	movf	___wmul@product+1,w
  4640     0D88  00A1               	movwf	?___wmul+1
  4641     0D89  0824               	movf	___wmul@product,w
  4642     0D8A  00A0               	movwf	?___wmul
  4643     0D8B                     l302:
  4644     0D8B  0008               	return
  4645     0D8C                     __end_of___wmul:
  4646                           
  4647                           	psect	text16
  4648     0E8E                     __ptext16:	
  4649 ;; *************** function ___awdiv *****************
  4650 ;; Defined at:
  4651 ;;		line 5 in file "C:\Program Files\Microchip\xc8\v2.40\pic\sources\c90\common\awdiv.c"
  4652 ;; Parameters:    Size  Location     Type
  4653 ;;  divisor         2    6[BANK0 ] int 
  4654 ;;  dividend        2    8[BANK0 ] int 
  4655 ;; Auto vars:     Size  Location     Type
  4656 ;;  quotient        2   13[BANK0 ] int 
  4657 ;;  sign            1   12[BANK0 ] unsigned char 
  4658 ;;  counter         1   11[BANK0 ] unsigned char 
  4659 ;; Return value:  Size  Location     Type
  4660 ;;                  2    6[BANK0 ] int 
  4661 ;; Registers used:
  4662 ;;		wreg, status,2, status,0
  4663 ;; Tracked objects:
  4664 ;;		On entry : 0/0
  4665 ;;		On exit  : 0/0
  4666 ;;		Unchanged: 0/0
  4667 ;; Data sizes:     COMMON   BANK0   BANK1   BANK3   BANK2
  4668 ;;      Params:         0       4       0       0       0
  4669 ;;      Locals:         0       4       0       0       0
  4670 ;;      Temps:          0       1       0       0       0
  4671 ;;      Totals:         0       9       0       0       0
  4672 ;;Total ram usage:        9 bytes
  4673 ;; Hardware stack levels used: 1
  4674 ;; Hardware stack levels required when called: 2
  4675 ;; This function calls:
  4676 ;;		Nothing
  4677 ;; This function is called by:
  4678 ;;		_map
  4679 ;; This function uses a non-reentrant model
  4680 ;;
  4681                           
  4682     0E8E                     ___awdiv:	
  4683                           ;psect for function ___awdiv
  4684                           
  4685     0E8E                     l1572:	
  4686                           ;incstack = 0
  4687                           ; Regs used in ___awdiv: [wreg+status,2+status,0]
  4688                           
  4689     0E8E  1283               	bcf	3,5	;RP0=0, select bank0
  4690     0E8F  1303               	bcf	3,6	;RP1=0, select bank0
  4691     0E90  01AC               	clrf	___awdiv@sign
  4692     0E91                     l1574:
  4693     0E91  1FA7               	btfss	___awdiv@divisor+1,7
  4694     0E92  2E94               	goto	u1551
  4695     0E93  2E95               	goto	u1550
  4696     0E94                     u1551:
  4697     0E94  2E9C               	goto	l1580
  4698     0E95                     u1550:
  4699     0E95                     l1576:
  4700     0E95  09A6               	comf	___awdiv@divisor,f
  4701     0E96  09A7               	comf	___awdiv@divisor+1,f
  4702     0E97  0AA6               	incf	___awdiv@divisor,f
  4703     0E98  1903               	skipnz
  4704     0E99  0AA7               	incf	___awdiv@divisor+1,f
  4705     0E9A                     l1578:
  4706     0E9A  01AC               	clrf	___awdiv@sign
  4707     0E9B  0AAC               	incf	___awdiv@sign,f
  4708     0E9C                     l1580:
  4709     0E9C  1FA9               	btfss	___awdiv@dividend+1,7
  4710     0E9D  2E9F               	goto	u1561
  4711     0E9E  2EA0               	goto	u1560
  4712     0E9F                     u1561:
  4713     0E9F  2EA9               	goto	l1586
  4714     0EA0                     u1560:
  4715     0EA0                     l1582:
  4716     0EA0  09A8               	comf	___awdiv@dividend,f
  4717     0EA1  09A9               	comf	___awdiv@dividend+1,f
  4718     0EA2  0AA8               	incf	___awdiv@dividend,f
  4719     0EA3  1903               	skipnz
  4720     0EA4  0AA9               	incf	___awdiv@dividend+1,f
  4721     0EA5                     l1584:
  4722     0EA5  3001               	movlw	1
  4723     0EA6  00AA               	movwf	??___awdiv
  4724     0EA7  082A               	movf	??___awdiv,w
  4725     0EA8  06AC               	xorwf	___awdiv@sign,f
  4726     0EA9                     l1586:
  4727     0EA9  01AD               	clrf	___awdiv@quotient
  4728     0EAA  01AE               	clrf	___awdiv@quotient+1
  4729     0EAB                     l1588:
  4730     0EAB  0826               	movf	___awdiv@divisor,w
  4731     0EAC  0427               	iorwf	___awdiv@divisor+1,w
  4732     0EAD  1903               	btfsc	3,2
  4733     0EAE  2EB0               	goto	u1571
  4734     0EAF  2EB1               	goto	u1570
  4735     0EB0                     u1571:
  4736     0EB0  2EE8               	goto	l1608
  4737     0EB1                     u1570:
  4738     0EB1                     l1590:
  4739     0EB1  01AB               	clrf	___awdiv@counter
  4740     0EB2  0AAB               	incf	___awdiv@counter,f
  4741     0EB3  2EBF               	goto	l1596
  4742     0EB4                     l1592:
  4743     0EB4  3001               	movlw	1
  4744     0EB5                     u1585:
  4745     0EB5  1003               	clrc
  4746     0EB6  0DA6               	rlf	___awdiv@divisor,f
  4747     0EB7  0DA7               	rlf	___awdiv@divisor+1,f
  4748     0EB8  3EFF               	addlw	-1
  4749     0EB9  1D03               	skipz
  4750     0EBA  2EB5               	goto	u1585
  4751     0EBB                     l1594:
  4752     0EBB  3001               	movlw	1
  4753     0EBC  00AA               	movwf	??___awdiv
  4754     0EBD  082A               	movf	??___awdiv,w
  4755     0EBE  07AB               	addwf	___awdiv@counter,f
  4756     0EBF                     l1596:
  4757     0EBF  1FA7               	btfss	___awdiv@divisor+1,7
  4758     0EC0  2EC2               	goto	u1591
  4759     0EC1  2EC3               	goto	u1590
  4760     0EC2                     u1591:
  4761     0EC2  2EB4               	goto	l1592
  4762     0EC3                     u1590:
  4763     0EC3                     l1598:
  4764     0EC3  3001               	movlw	1
  4765     0EC4                     u1605:
  4766     0EC4  1003               	clrc
  4767     0EC5  0DAD               	rlf	___awdiv@quotient,f
  4768     0EC6  0DAE               	rlf	___awdiv@quotient+1,f
  4769     0EC7  3EFF               	addlw	-1
  4770     0EC8  1D03               	skipz
  4771     0EC9  2EC4               	goto	u1605
  4772     0ECA  0827               	movf	___awdiv@divisor+1,w
  4773     0ECB  0229               	subwf	___awdiv@dividend+1,w
  4774     0ECC  1D03               	skipz
  4775     0ECD  2ED0               	goto	u1615
  4776     0ECE  0826               	movf	___awdiv@divisor,w
  4777     0ECF  0228               	subwf	___awdiv@dividend,w
  4778     0ED0                     u1615:
  4779     0ED0  1C03               	skipc
  4780     0ED1  2ED3               	goto	u1611
  4781     0ED2  2ED4               	goto	u1610
  4782     0ED3                     u1611:
  4783     0ED3  2EDB               	goto	l1604
  4784     0ED4                     u1610:
  4785     0ED4                     l1600:
  4786     0ED4  0826               	movf	___awdiv@divisor,w
  4787     0ED5  02A8               	subwf	___awdiv@dividend,f
  4788     0ED6  0827               	movf	___awdiv@divisor+1,w
  4789     0ED7  1C03               	skipc
  4790     0ED8  03A9               	decf	___awdiv@dividend+1,f
  4791     0ED9  02A9               	subwf	___awdiv@dividend+1,f
  4792     0EDA                     l1602:
  4793     0EDA  142D               	bsf	___awdiv@quotient,0
  4794     0EDB                     l1604:
  4795     0EDB  3001               	movlw	1
  4796     0EDC                     u1625:
  4797     0EDC  1003               	clrc
  4798     0EDD  0CA7               	rrf	___awdiv@divisor+1,f
  4799     0EDE  0CA6               	rrf	___awdiv@divisor,f
  4800     0EDF  3EFF               	addlw	-1
  4801     0EE0  1D03               	skipz
  4802     0EE1  2EDC               	goto	u1625
  4803     0EE2                     l1606:
  4804     0EE2  3001               	movlw	1
  4805     0EE3  02AB               	subwf	___awdiv@counter,f
  4806     0EE4  1D03               	btfss	3,2
  4807     0EE5  2EE7               	goto	u1631
  4808     0EE6  2EE8               	goto	u1630
  4809     0EE7                     u1631:
  4810     0EE7  2EC3               	goto	l1598
  4811     0EE8                     u1630:
  4812     0EE8                     l1608:
  4813     0EE8  082C               	movf	___awdiv@sign,w
  4814     0EE9  1903               	btfsc	3,2
  4815     0EEA  2EEC               	goto	u1641
  4816     0EEB  2EED               	goto	u1640
  4817     0EEC                     u1641:
  4818     0EEC  2EF2               	goto	l1612
  4819     0EED                     u1640:
  4820     0EED                     l1610:
  4821     0EED  09AD               	comf	___awdiv@quotient,f
  4822     0EEE  09AE               	comf	___awdiv@quotient+1,f
  4823     0EEF  0AAD               	incf	___awdiv@quotient,f
  4824     0EF0  1903               	skipnz
  4825     0EF1  0AAE               	incf	___awdiv@quotient+1,f
  4826     0EF2                     l1612:
  4827     0EF2  082E               	movf	___awdiv@quotient+1,w
  4828     0EF3  00A7               	movwf	?___awdiv+1
  4829     0EF4  082D               	movf	___awdiv@quotient,w
  4830     0EF5  00A6               	movwf	?___awdiv
  4831     0EF6                     l453:
  4832     0EF6  0008               	return
  4833     0EF7                     __end_of___awdiv:
  4834                           
  4835                           	psect	text17
  4836     0EF7                     __ptext17:	
  4837 ;; *************** function _isr *****************
  4838 ;; Defined at:
  4839 ;;		line 67 in file "main.c"
  4840 ;; Parameters:    Size  Location     Type
  4841 ;;		None
  4842 ;; Auto vars:     Size  Location     Type
  4843 ;;		None
  4844 ;; Return value:  Size  Location     Type
  4845 ;;                  1    wreg      void 
  4846 ;; Registers used:
  4847 ;;		wreg, status,2, status,0, pclath, cstack
  4848 ;; Tracked objects:
  4849 ;;		On entry : 0/0
  4850 ;;		On exit  : 0/0
  4851 ;;		Unchanged: 0/0
  4852 ;; Data sizes:     COMMON   BANK0   BANK1   BANK3   BANK2
  4853 ;;      Params:         0       0       0       0       0
  4854 ;;      Locals:         0       0       0       0       0
  4855 ;;      Temps:          3       0       0       0       0
  4856 ;;      Totals:         3       0       0       0       0
  4857 ;;Total ram usage:        3 bytes
  4858 ;; Hardware stack levels used: 1
  4859 ;; Hardware stack levels required when called: 1
  4860 ;; This function calls:
  4861 ;;		_delay
  4862 ;;		_writeEEPROM
  4863 ;; This function is called by:
  4864 ;;		Interrupt level 1
  4865 ;; This function uses a non-reentrant model
  4866 ;;
  4867                           
  4868     0EF7                     _isr:	
  4869                           ;psect for function _isr
  4870                           
  4871     0EF7                     i1l2210:
  4872                           
  4873                           ;main.c: 68:     if (INTCONbits.T0IF == 1){
  4874     0EF7  1D0B               	btfss	11,2	;volatile
  4875     0EF8  2EFA               	goto	u284_21
  4876     0EF9  2EFB               	goto	u284_20
  4877     0EFA                     u284_21:
  4878     0EFA  2F1F               	goto	i1l2230
  4879     0EFB                     u284_20:
  4880     0EFB                     i1l2212:
  4881                           
  4882                           ;main.c: 69:         INTCONbits.T0IF = 0;
  4883     0EFB  110B               	bcf	11,2	;volatile
  4884     0EFC                     i1l2214:
  4885                           
  4886                           ;main.c: 70:         TMR0 = 246;
  4887     0EFC  30F6               	movlw	246
  4888     0EFD  1283               	bcf	3,5	;RP0=0, select bank0
  4889     0EFE  1303               	bcf	3,6	;RP1=0, select bank0
  4890     0EFF  0081               	movwf	1	;volatile
  4891     0F00                     i1l2216:
  4892                           
  4893                           ;main.c: 71:         PORTCbits.RC3 = 1;
  4894     0F00  1587               	bsf	7,3	;volatile
  4895     0F01                     i1l2218:
  4896                           
  4897                           ;main.c: 72:         delay(pot);
  4898     0F01  1683               	bsf	3,5	;RP0=1, select bank1
  4899     0F02  1303               	bcf	3,6	;RP1=0, select bank1
  4900     0F03  0825               	movf	(_pot+1)^(0+128),w
  4901     0F04  00F7               	movwf	delay@micro+1
  4902     0F05  0824               	movf	_pot^(0+128),w
  4903     0F06  00F6               	movwf	delay@micro
  4904     0F07  120A  158A  2501  120A  158A  	fcall	_delay
  4905     0F0C                     i1l2220:
  4906                           
  4907                           ;main.c: 73:         PORTCbits.RC3 = 0;
  4908     0F0C  1283               	bcf	3,5	;RP0=0, select bank0
  4909     0F0D  1303               	bcf	3,6	;RP1=0, select bank0
  4910     0F0E  1187               	bcf	7,3	;volatile
  4911     0F0F                     i1l2222:
  4912                           
  4913                           ;main.c: 74:         PORTCbits.RC0 = 1;
  4914     0F0F  1407               	bsf	7,0	;volatile
  4915     0F10                     i1l2224:
  4916                           
  4917                           ;main.c: 75:         delay(pot1);
  4918     0F10  1683               	bsf	3,5	;RP0=1, select bank1
  4919     0F11  1303               	bcf	3,6	;RP1=0, select bank1
  4920     0F12  0823               	movf	(_pot1+1)^(0+128),w
  4921     0F13  00F7               	movwf	delay@micro+1
  4922     0F14  0822               	movf	_pot1^(0+128),w
  4923     0F15  00F6               	movwf	delay@micro
  4924     0F16  120A  158A  2501  120A  158A  	fcall	_delay
  4925     0F1B                     i1l2226:
  4926                           
  4927                           ;main.c: 76:         PORTCbits.RC0 = 0;
  4928     0F1B  1283               	bcf	3,5	;RP0=0, select bank0
  4929     0F1C  1303               	bcf	3,6	;RP1=0, select bank0
  4930     0F1D  1007               	bcf	7,0	;volatile
  4931     0F1E                     i1l2228:
  4932                           
  4933                           ;main.c: 77:         INTCONbits.T0IF = 0;
  4934     0F1E  110B               	bcf	11,2	;volatile
  4935     0F1F                     i1l2230:
  4936                           
  4937                           ;main.c: 80:     if (INTCONbits.RBIF){
  4938     0F1F  1C0B               	btfss	11,0	;volatile
  4939     0F20  2F22               	goto	u285_21
  4940     0F21  2F23               	goto	u285_20
  4941     0F22                     u285_21:
  4942     0F22  2F32               	goto	i1l2238
  4943     0F23                     u285_20:
  4944     0F23                     i1l2232:
  4945                           
  4946                           ;main.c: 81:         if (PORTBbits.RB0 == 0){
  4947     0F23  1283               	bcf	3,5	;RP0=0, select bank0
  4948     0F24  1303               	bcf	3,6	;RP1=0, select bank0
  4949     0F25  1806               	btfsc	6,0	;volatile
  4950     0F26  2F28               	goto	u286_21
  4951     0F27  2F29               	goto	u286_20
  4952     0F28                     u286_21:
  4953     0F28  2F32               	goto	i1l2238
  4954     0F29                     u286_20:
  4955     0F29                     i1l2234:
  4956                           
  4957                           ;main.c: 82:             modo++;
  4958     0F29  3001               	movlw	1
  4959     0F2A  1683               	bsf	3,5	;RP0=1, select bank1
  4960     0F2B  1303               	bcf	3,6	;RP1=0, select bank1
  4961     0F2C  07A8               	addwf	_modo^(0+128),f
  4962     0F2D  1803               	skipnc
  4963     0F2E  0AA9               	incf	(_modo+1)^(0+128),f
  4964     0F2F  3000               	movlw	0
  4965     0F30  07A9               	addwf	(_modo+1)^(0+128),f
  4966     0F31                     i1l2236:
  4967                           
  4968                           ;main.c: 83:             INTCONbits.RBIF = 0;
  4969     0F31  100B               	bcf	11,0	;volatile
  4970     0F32                     i1l2238:
  4971                           
  4972                           ;main.c: 86:     if (modo == 1){
  4973     0F32  1683               	bsf	3,5	;RP0=1, select bank1
  4974     0F33  1303               	bcf	3,6	;RP1=0, select bank1
  4975     0F34  0328               	decf	_modo^(0+128),w
  4976     0F35  0429               	iorwf	(_modo+1)^(0+128),w
  4977     0F36  1D03               	btfss	3,2
  4978     0F37  2F39               	goto	u287_21
  4979     0F38  2F3A               	goto	u287_20
  4980     0F39                     u287_21:
  4981     0F39  2F5A               	goto	i1l135
  4982     0F3A                     u287_20:
  4983     0F3A                     i1l2240:
  4984                           
  4985                           ;main.c: 87:         if (INTCONbits.RBIF){
  4986     0F3A  1C0B               	btfss	11,0	;volatile
  4987     0F3B  2F3D               	goto	u288_21
  4988     0F3C  2F3E               	goto	u288_20
  4989     0F3D                     u288_21:
  4990     0F3D  2F5A               	goto	i1l135
  4991     0F3E                     u288_20:
  4992     0F3E                     i1l2242:
  4993                           
  4994                           ;main.c: 88:         if (PORTBbits.RB1 == 0){
  4995     0F3E  1283               	bcf	3,5	;RP0=0, select bank0
  4996     0F3F  1303               	bcf	3,6	;RP1=0, select bank0
  4997     0F40  1886               	btfsc	6,1	;volatile
  4998     0F41  2F43               	goto	u289_21
  4999     0F42  2F44               	goto	u289_20
  5000     0F43                     u289_21:
  5001     0F43  2F4A               	goto	i1l132
  5002     0F44                     u289_20:
  5003     0F44                     i1l2244:
  5004                           
  5005                           ;main.c: 89:             address++;
  5006     0F44  3001               	movlw	1
  5007     0F45  00F9               	movwf	??_isr
  5008     0F46  0879               	movf	??_isr,w
  5009     0F47  07F5               	addwf	_address,f
  5010     0F48                     i1l2246:
  5011                           
  5012                           ;main.c: 90:             INTCONbits.RBIF = 0;
  5013     0F48  100B               	bcf	11,0	;volatile
  5014                           
  5015                           ;main.c: 91:         }
  5016     0F49  2F5A               	goto	i1l135
  5017     0F4A                     i1l132:	
  5018                           ;main.c: 92:         else if (PORTBbits.RB2 == 0){
  5019                           
  5020     0F4A  1906               	btfsc	6,2	;volatile
  5021     0F4B  2F4D               	goto	u290_21
  5022     0F4C  2F4E               	goto	u290_20
  5023     0F4D                     u290_21:
  5024     0F4D  2F5A               	goto	i1l131
  5025     0F4E                     u290_20:
  5026     0F4E                     i1l2248:
  5027                           
  5028                           ;main.c: 93:             writeEEPROM(address, pot);
  5029     0F4E  1683               	bsf	3,5	;RP0=1, select bank1
  5030     0F4F  1303               	bcf	3,6	;RP1=0, select bank1
  5031     0F50  0824               	movf	_pot^(0+128),w
  5032     0F51  00F6               	movwf	writeEEPROM@data
  5033     0F52  0875               	movf	_address,w
  5034     0F53  120A  118A  27DB  120A  158A  	fcall	_writeEEPROM
  5035     0F58                     i1l2250:
  5036                           
  5037                           ;main.c: 94:             INTCONbits.RBIF = 0;
  5038     0F58  100B               	bcf	11,0	;volatile
  5039     0F59  2F5A               	goto	i1l135
  5040     0F5A                     i1l131:	
  5041                           ;main.c: 96:         }
  5042                           
  5043     0F5A                     i1l135:
  5044     0F5A  087B               	movf	??_isr+2,w
  5045     0F5B  008A               	movwf	10
  5046     0F5C  0E7A               	swapf	??_isr+1,w
  5047     0F5D  0083               	movwf	3
  5048     0F5E  0EFE               	swapf	btemp,f
  5049     0F5F  0E7E               	swapf	btemp,w
  5050     0F60  0009               	retfie
  5051     0F61                     __end_of_isr:
  5052                           
  5053                           	psect	intentry
  5054     0004                     __pintentry:	
  5055                           ;incstack = 0
  5056                           ; Regs used in _isr: [wreg+status,2+status,0+pclath+cstack]
  5057                           
  5058     0004                     interrupt_function:
  5059     007E                     saved_w	set	btemp
  5060     0004  00FE               	movwf	btemp
  5061     0005  0E03               	swapf	3,w
  5062     0006  00FA               	movwf	??_isr+1
  5063     0007  080A               	movf	10,w
  5064     0008  00FB               	movwf	??_isr+2
  5065     0009  120A  158A  2EF7   	ljmp	_isr
  5066                           
  5067                           	psect	text18
  5068     07DB                     __ptext18:	
  5069 ;; *************** function _writeEEPROM *****************
  5070 ;; Defined at:
  5071 ;;		line 316 in file "main.c"
  5072 ;; Parameters:    Size  Location     Type
  5073 ;;  address         1    wreg     unsigned char 
  5074 ;;  data            1    0[COMMON] unsigned char 
  5075 ;; Auto vars:     Size  Location     Type
  5076 ;;  address         1    1[COMMON] unsigned char 
  5077 ;;  gieStatus       1    2[COMMON] unsigned char 
  5078 ;; Return value:  Size  Location     Type
  5079 ;;                  1    wreg      void 
  5080 ;; Registers used:
  5081 ;;		wreg, status,2, status,0
  5082 ;; Tracked objects:
  5083 ;;		On entry : 0/0
  5084 ;;		On exit  : 0/0
  5085 ;;		Unchanged: 0/0
  5086 ;; Data sizes:     COMMON   BANK0   BANK1   BANK3   BANK2
  5087 ;;      Params:         1       0       0       0       0
  5088 ;;      Locals:         2       0       0       0       0
  5089 ;;      Temps:          0       0       0       0       0
  5090 ;;      Totals:         3       0       0       0       0
  5091 ;;Total ram usage:        3 bytes
  5092 ;; Hardware stack levels used: 1
  5093 ;; This function calls:
  5094 ;;		Nothing
  5095 ;; This function is called by:
  5096 ;;		_isr
  5097 ;; This function uses a non-reentrant model
  5098 ;;
  5099                           
  5100     07DB                     _writeEEPROM:	
  5101                           ;psect for function _writeEEPROM
  5102                           
  5103                           
  5104                           ;incstack = 0
  5105                           ; Regs used in _writeEEPROM: [wreg+status,2+status,0]
  5106                           ;writeEEPROM@address stored from wreg
  5107     07DB  00F7               	movwf	writeEEPROM@address
  5108     07DC                     i1l2048:
  5109     07DC                     i1l203:	
  5110                           ;main.c: 317:     uint8_t gieStatus;;main.c: 318:     while (WR);
  5111                           
  5112     07DC  1683               	bsf	3,5	;RP0=1, select bank3
  5113     07DD  1703               	bsf	3,6	;RP1=1, select bank3
  5114     07DE  188C               	btfsc	12,1	;volsfr
  5115     07DF  2FE1               	goto	u274_21
  5116     07E0  2FE2               	goto	u274_20
  5117     07E1                     u274_21:
  5118     07E1  2FDC               	goto	i1l203
  5119     07E2                     u274_20:
  5120     07E2                     i1l2050:
  5121                           
  5122                           ;main.c: 320:     EEADR = address;
  5123     07E2  0877               	movf	writeEEPROM@address,w
  5124     07E3  1283               	bcf	3,5	;RP0=0, select bank2
  5125     07E4  1703               	bsf	3,6	;RP1=1, select bank2
  5126     07E5  008D               	movwf	13	;volatile
  5127                           
  5128                           ;main.c: 321:     EEDAT = data;
  5129     07E6  0876               	movf	writeEEPROM@data,w
  5130     07E7  008C               	movwf	12	;volatile
  5131     07E8                     i1l2052:
  5132                           
  5133                           ;main.c: 322:     EECON1bits.EEPGD = 0;
  5134     07E8  1683               	bsf	3,5	;RP0=1, select bank3
  5135     07E9  1703               	bsf	3,6	;RP1=1, select bank3
  5136     07EA  138C               	bcf	12,7	;volsfr
  5137     07EB                     i1l2054:
  5138                           
  5139                           ;main.c: 323:     EECON1bits.WREN = 1;
  5140     07EB  150C               	bsf	12,2	;volsfr
  5141     07EC                     i1l2056:
  5142                           
  5143                           ;main.c: 324:     gieStatus = GIE;
  5144     07EC  3000               	movlw	0
  5145     07ED  1B8B               	btfsc	11,7	;volatile
  5146     07EE  3001               	movlw	1
  5147     07EF  00F8               	movwf	writeEEPROM@gieStatus
  5148     07F0                     i1l2058:
  5149                           
  5150                           ;main.c: 325:     INTCONbits.GIE = 0;
  5151     07F0  138B               	bcf	11,7	;volatile
  5152     07F1                     i1l2060:
  5153                           
  5154                           ;main.c: 326:     EECON2 = 0x55;
  5155     07F1  3055               	movlw	85
  5156     07F2  008D               	movwf	13	;volsfr
  5157     07F3                     i1l2062:
  5158                           
  5159                           ;main.c: 327:     EECON2 = 0xAA;
  5160     07F3  30AA               	movlw	170
  5161     07F4  008D               	movwf	13	;volsfr
  5162     07F5                     i1l2064:
  5163                           
  5164                           ;main.c: 328:     EECON1bits.WR = 1;
  5165     07F5  148C               	bsf	12,1	;volsfr
  5166     07F6                     i1l2066:
  5167                           
  5168                           ;main.c: 329:     EECON1bits.WREN = 0;
  5169     07F6  110C               	bcf	12,2	;volsfr
  5170     07F7                     i1l2068:
  5171                           
  5172                           ;main.c: 331:     INTCONbits.GIE = gieStatus;
  5173     07F7  0C78               	rrf	writeEEPROM@gieStatus,w
  5174     07F8  1C03               	skipc
  5175     07F9  138B               	bcf	11,7	;volatile
  5176     07FA  1803               	skipnc
  5177     07FB  178B               	bsf	11,7	;volatile
  5178     07FC                     i1l206:
  5179     07FC  0008               	return
  5180     07FD                     __end_of_writeEEPROM:
  5181                           
  5182                           	psect	text19
  5183     0D01                     __ptext19:	
  5184 ;; *************** function _delay *****************
  5185 ;; Defined at:
  5186 ;;		line 227 in file "main.c"
  5187 ;; Parameters:    Size  Location     Type
  5188 ;;  micro           2    0[COMMON] unsigned int 
  5189 ;; Auto vars:     Size  Location     Type
  5190 ;;		None
  5191 ;; Return value:  Size  Location     Type
  5192 ;;                  1    wreg      void 
  5193 ;; Registers used:
  5194 ;;		wreg, status,2, status,0
  5195 ;; Tracked objects:
  5196 ;;		On entry : 0/0
  5197 ;;		On exit  : 0/0
  5198 ;;		Unchanged: 0/0
  5199 ;; Data sizes:     COMMON   BANK0   BANK1   BANK3   BANK2
  5200 ;;      Params:         2       0       0       0       0
  5201 ;;      Locals:         0       0       0       0       0
  5202 ;;      Temps:          0       0       0       0       0
  5203 ;;      Totals:         2       0       0       0       0
  5204 ;;Total ram usage:        2 bytes
  5205 ;; Hardware stack levels used: 1
  5206 ;; This function calls:
  5207 ;;		Nothing
  5208 ;; This function is called by:
  5209 ;;		_isr
  5210 ;; This function uses a non-reentrant model
  5211 ;;
  5212                           
  5213     0D01                     _delay:	
  5214                           ;psect for function _delay
  5215                           
  5216     0D01                     i1l2042:	
  5217                           ;incstack = 0
  5218                           ; Regs used in _delay: [wreg+status,2+status,0]
  5219                           
  5220                           
  5221                           ;main.c: 228:     while (micro > 0){
  5222     0D01  2D0B               	goto	i1l2046
  5223     0D02                     i1l171:
  5224                           
  5225                           ;main.c: 229:         _delay((unsigned long)((50)*(500000/4000000.0)));
  5226     0D02  2D03               	nop2	;2 cycle nop
  5227     0D03  2D04               	nop2	;2 cycle nop
  5228     0D04  2D05               	nop2	;2 cycle nop
  5229     0D05                     i1l2044:
  5230                           
  5231                           ;main.c: 230:         micro--;
  5232     0D05  3001               	movlw	1
  5233     0D06  02F6               	subwf	delay@micro,f
  5234     0D07  3000               	movlw	0
  5235     0D08  1C03               	skipc
  5236     0D09  03F7               	decf	delay@micro+1,f
  5237     0D0A  02F7               	subwf	delay@micro+1,f
  5238     0D0B                     i1l2046:
  5239                           
  5240                           ;main.c: 228:     while (micro > 0){
  5241     0D0B  0876               	movf	delay@micro,w
  5242     0D0C  0477               	iorwf	delay@micro+1,w
  5243     0D0D  1D03               	btfss	3,2
  5244     0D0E  2D10               	goto	u273_21
  5245     0D0F  2D11               	goto	u273_20
  5246     0D10                     u273_21:
  5247     0D10  2D02               	goto	i1l171
  5248     0D11                     u273_20:
  5249     0D11                     i1l173:
  5250     0D11  0008               	return
  5251     0D12                     __end_of_delay:
  5252     007E                     btemp	set	126	;btemp
  5253     007E                     wtemp0	set	126
  5254                           
  5255                           	psect	idloc
  5256                           
  5257                           ;Config register IDLOC0 @ 0x2000
  5258                           ;	unspecified, using default values
  5259     2000                     	org	8192
  5260     2000  3FFF               	dw	16383
  5261                           
  5262                           ;Config register IDLOC1 @ 0x2001
  5263                           ;	unspecified, using default values
  5264     2001                     	org	8193
  5265     2001  3FFF               	dw	16383
  5266                           
  5267                           ;Config register IDLOC2 @ 0x2002
  5268                           ;	unspecified, using default values
  5269     2002                     	org	8194
  5270     2002  3FFF               	dw	16383
  5271                           
  5272                           ;Config register IDLOC3 @ 0x2003
  5273                           ;	unspecified, using default values
  5274     2003                     	org	8195
  5275     2003  3FFF               	dw	16383
  5276                           
  5277                           	psect	config
  5278                           
  5279                           ;Config register CONFIG1 @ 0x2007
  5280                           ;	Oscillator Selection bits
  5281                           ;	FOSC = INTRC_NOCLKOUT, INTOSCIO oscillator: I/O function on RA6/OSC2/CLKOUT pin, I/O f
      +                          unction on RA7/OSC1/CLKIN
  5282                           ;	Watchdog Timer Enable bit
  5283                           ;	WDTE = OFF, WDT disabled and can be enabled by SWDTEN bit of the WDTCON register
  5284                           ;	Power-up Timer Enable bit
  5285                           ;	PWRTE = OFF, PWRT disabled
  5286                           ;	RE3/MCLR pin function select bit
  5287                           ;	MCLRE = OFF, RE3/MCLR pin function is digital input, MCLR internally tied to VDD
  5288                           ;	Code Protection bit
  5289                           ;	CP = OFF, Program memory code protection is disabled
  5290                           ;	Data Code Protection bit
  5291                           ;	CPD = OFF, Data memory code protection is disabled
  5292                           ;	Brown Out Reset Selection bits
  5293                           ;	BOREN = OFF, BOR disabled
  5294                           ;	Internal External Switchover bit
  5295                           ;	IESO = OFF, Internal/External Switchover mode is disabled
  5296                           ;	Fail-Safe Clock Monitor Enabled bit
  5297                           ;	FCMEN = OFF, Fail-Safe Clock Monitor is disabled
  5298                           ;	Low Voltage Programming Enable bit
  5299                           ;	LVP = OFF, RB3 pin has digital I/O, HV on MCLR must be used for programming
  5300                           ;	In-Circuit Debugger Mode bit
  5301                           ;	DEBUG = 0x1, unprogramme  5302     2007                     	org	8199
  5303     2007  20D4               	dw	8404
  5304                           
  5305                           ;Config register CONFIG2 @ 0x2008
  5306                           ;	Brown-out Reset Selection bit
  5307                           ;	BOR4V = BOR40V, Brown-out Reset set to 4.0V
  5308                           ;	Flash Program Memory Self Write Enable bits
  5309                           ;	WRT = OFF, Write protection off
  5310     2008                     	org	8200
  5311     2008  3FFF               	dw	16383

Data Sizes:
    Strings     0
    Constant    0
    Data        0
    BSS         20
    Persistent  0
    Stack       0

Auto Spaces:
    Space          Size  Autos    Used
    COMMON           14      6      12
    BANK0            80     79      80
    BANK1            80      0      13
    BANK3            96      0       0
    BANK2            96      0       0

Pointer List with Targets:

    None.

Critical Paths under _main in COMMON

    None.

Critical Paths under _isr in COMMON

    _isr->_writeEEPROM

Critical Paths under _main in BANK0

    _main->_controlmotores
    _controlmotores->_mapeo
    _mapeo->___fltol
    ___fltol->___fladd
    ___flmul->___xxtofl
    ___fladd->___flmul
    _map->___awdiv
    ___awdiv->___wmul

Critical Paths under _isr in BANK0

    None.

Critical Paths under _main in BANK1

    None.

Critical Paths under _isr in BANK1

    None.

Critical Paths under _main in BANK3

    None.

Critical Paths under _isr in BANK3

    None.

Critical Paths under _main in BANK2

    None.

Critical Paths under _isr in BANK2

    None.

Call Graph Tables:

 ---------------------------------------------------------------------------------
 (Depth) Function   	        Calls       Base Space   Used Autos Params    Refs
 ---------------------------------------------------------------------------------
 (0) _main                                                 1     1      0    8116
                                             78 BANK0      1     1      0
                     _controlmotores
                              _setup
                           _setupADC
                        _setupINTOSC
                           _setupPWM
                          _setupPWM2
                          _setupTMR0
 ---------------------------------------------------------------------------------
 (1) _setupTMR0                                            0     0      0       0
 ---------------------------------------------------------------------------------
 (1) _setupPWM2                                            0     0      0       0
 ---------------------------------------------------------------------------------
 (1) _setupPWM                                             1     1      0       0
                                              0 BANK0      1     1      0
 ---------------------------------------------------------------------------------
 (1) _setupINTOSC                                          1     1      0      93
                                              0 BANK0      1     1      0
 ---------------------------------------------------------------------------------
 (1) _setupADC                                             1     1      0       0
                                              0 BANK0      1     1      0
 ---------------------------------------------------------------------------------
 (1) _setup                                                0     0      0       0
 ---------------------------------------------------------------------------------
 (1) _controlmotores                                       3     3      0    8023
                                             75 BANK0      3     3      0
                                _map
                              _mapeo
 ---------------------------------------------------------------------------------
 (2) _mapeo                                                5     5      0    6318
                                             70 BANK0      5     5      0
                            ___fladd
                            ___flmul
                            ___fltol
                           ___xxtofl
 ---------------------------------------------------------------------------------
 (3) ___xxtofl                                            14    10      4     398
                                              0 BANK0     14    10      4
 ---------------------------------------------------------------------------------
 (3) ___fltol                                             10     6      4     305
                                             60 BANK0     10     6      4
                            ___fladd (ARG)
                            ___flmul (ARG)
                           ___xxtofl (ARG)
 ---------------------------------------------------------------------------------
 (3) ___flmul                                             26    18      8    3353
                                             14 BANK0     26    18      8
                          __Umul8_16
                           ___xxtofl (ARG)
 ---------------------------------------------------------------------------------
 (4) __Umul8_16                                            9     7      2     980
                                              0 BANK0      9     7      2
 ---------------------------------------------------------------------------------
 (3) ___fladd                                             20    12      8    2262
                                             40 BANK0     20    12      8
                            ___flmul (ARG)
                           ___xxtofl (ARG)
 ---------------------------------------------------------------------------------
 (2) _map                                                 10     2      8    1705
                                             15 BANK0     10     2      8
                            ___awdiv
                             ___wmul
 ---------------------------------------------------------------------------------
 (3) ___wmul                                               6     2      4     316
                                              0 BANK0      6     2      4
 ---------------------------------------------------------------------------------
 (3) ___awdiv                                              9     5      4     452
                                              6 BANK0      9     5      4
                             ___wmul (ARG)
 ---------------------------------------------------------------------------------
 Estimated maximum stack depth 4
 ---------------------------------------------------------------------------------
 (Depth) Function   	        Calls       Base Space   Used Autos Params    Refs
 ---------------------------------------------------------------------------------
 (5) _isr                                                  3     3      0     318
                                              3 COMMON     3     3      0
                              _delay
                        _writeEEPROM
 ---------------------------------------------------------------------------------
 (6) _writeEEPROM                                          3     2      1     143
                                              0 COMMON     3     2      1
 ---------------------------------------------------------------------------------
 (6) _delay                                                2     0      2     175
                                              0 COMMON     2     0      2
 ---------------------------------------------------------------------------------
 Estimated maximum stack depth 6
 ---------------------------------------------------------------------------------

 Call Graph Graphs:

 _main (ROOT)
   _controlmotores
     _map
       ___awdiv
         ___wmul (ARG)
       ___wmul
     _mapeo
       ___fladd
         ___flmul (ARG)
           __Umul8_16
           ___xxtofl (ARG)
         ___xxtofl (ARG)
       ___flmul
       ___fltol
         ___fladd (ARG)
         ___flmul (ARG)
         ___xxtofl (ARG)
       ___xxtofl
   _setup
   _setupADC
   _setupINTOSC
   _setupPWM
   _setupPWM2
   _setupTMR0

 _isr (ROOT)
   _delay
   _writeEEPROM

 Address spaces:
Name               Size   Autos  Total    Cost      Usage
BITCOMMON            E      0       0       0        0.0%
EEDATA             100      0       0       0        0.0%
NULL                 0      0       0       0        0.0%
CODE                 0      0       0       0        0.0%
COMMON               E      6       C       1       85.7%
BITSFR0              0      0       0       1        0.0%
SFR0                 0      0       0       1        0.0%
BITSFR1              0      0       0       2        0.0%
SFR1                 0      0       0       2        0.0%
STACK                0      0       0       2        0.0%
ABS                  0      0      69       3        0.0%
BITBANK0            50      0       0       4        0.0%
BITSFR3              0      0       0       4        0.0%
SFR3                 0      0       0       4        0.0%
BANK0               50     4F      50       5      100.0%
BITSFR2              0      0       0       5        0.0%
SFR2                 0      0       0       5        0.0%
BITBANK1            50      0       0       6        0.0%
BANK1               50      0       D       7       16.2%
BITBANK3            60      0       0       8        0.0%
BANK3               60      0       0       9        0.0%
BITBANK2            60      0       0      10        0.0%
BANK2               60      0       0      11        0.0%
DATA                 0      0      69      12        0.0%


Microchip Technology PIC Macro Assembler V2.40 build 20220703182018 
Symbol Table                                                                                   Tue Nov 15 21:53:50 2022

            map@inputmax 0031              map@inputmin 002F                       _RD 0C60  
                     _WR 0C61             ___awdiv@sign 002C      ___wmul@multiplicand 0022  
    __Umul8_16@word_mpld 0026                      l211 0DC2                      l300 0D73  
                    l212 0DCF                      l302 0D8B                      l214 0DDF  
                    l152 0E0D                      l161 0D3E                      l155 0D5D  
                    l163 0D42                      l164 0D45                      l149 0D2B  
                    l157 0D61                      l190 0643                      l182 05D5  
                    l158 0D64                      l191 067B                      l167 0D00  
                    l176 0E44                      l184 05D9                      l193 067F  
                    l185 0601                      l194 06A8                      l179 0FFF  
                    l187 0605                      l188 063F                      l453 0EF6  
                    l701 0363                      l614 0517                      l606 05C7  
                    l710 0DB4                      l624 055D                      l618 053B  
                    l635 05BD                      l627 059B                      l636 05C7  
                    l708 0DA2                      l493 07C5                      l733 06CD  
                    l486 07DA                      l735 0762                      l496 07DA  
                    l593 03CB                      l746 072C                      l747 0738  
                    l739 0710                      l597 044E                      l599 0427  
                    l695 02DF                      l689 036F                      _GIE 005F  
                    _PR2 0092                      _map 0E0E                      _isr 0EF7  
                    _pot 00A4             ___flmul@aexp 003C             ___flmul@bexp 0041  
           ___flmul@sign 003B             ___flmul@temp 0046             ___flmul@prod 0042  
           ___fltol@exp1 0065                     l2000 06E1                     l2010 0717  
                   l2002 06EE                     l2020 0750                     l2012 0722  
                   l2004 06F5                     l2022 0755                     l2014 0726  
                   l2006 06F9                     l2024 0759                     l2016 0730  
                   l2008 0707                     l2026 075A                     l2018 073A  
                   l2300 0034                     l2310 004B                     l2302 0038  
                   l1600 0ED4                     l2400 02DC                     l2320 0062  
                   l2312 004D                     l2304 0039                     l1610 0EED  
                   l1602 0EDA                     l2410 02FB                     l2330 0077  
                   l2322 0063                     l2314 0055                     l2306 003E  
                   l1612 0EF2                     l1604 0EDB                     l1700 03D9  
                   l2420 0341                     l2412 0314                     l2404 02E4  
                   l2340 0092                     l2332 007F                     l2324 0068  
                   l2316 005A                     l2308 0043                     l2500 0E03  
                   l1606 0EE2                     l1710 03E3                     l1702 03DB  
                   l2270 0D91                     l2430 035E                     l2422 034B  
                   l2406 02E9                     l2414 031A                     l2350 010E  
                   l2342 00A0                     l2334 0084                     l2326 006D  
                   l2318 005E                     l1630 0795                     l1622 0777  
                   l2502 0E04                     l2510 0D4F                     l1608 0EE8  
                   l1800 0542                     l1720 03ED                     l1712 03E5  
                   l1704 03DD                     l2272 0D98                     l2432 0367  
                   l2424 034D                     l2416 0327                     l2408 02F7  
                   l2360 017A                     l2352 012A                     l2344 00AD  
                   l2336 0089                     l2328 0075                     l1632 0799  
                   l1640 07B3                     l1624 078A                     l1616 0763  
                   l2440 0F61                     l2504 0E07                     l2512 0D57  
                   l2520 0D2F                     l2600 0E80                     l2290 0D81  
                   l2282 0D65                     l1810 0550                     l1802 0544  
                   l1722 03EF                     l1714 03E7                     l1706 03DF  
                   l1730 03F7                     l2274 0D9C                     l2426 0359  
                   l2418 0332                     l2370 0204                     l2362 0188  
                   l2354 0146                     l2346 00C8                     l1650 07CF  
                   l1626 078B                     l1618 076E                     l2442 0F88  
                   l2450 0D1E                     l2514 0D59                     l2506 0D46  
                   l2530 0D3D                     l2522 0D31                     l2602 0E86  
                   l1580 0E9C                     l1572 0E8E                     l2292 0D87  
                   l2284 0D69                     l2436 0E11                     l1820 0567  
                   l1812 0554                     l1804 0549                     l1740 0434  
                   l1732 03F8                     l1724 03F1                     l1716 03E9  
                   l1708 03E1                     l1660 037E                     l1652 0370  
                   l2276 0DAB                     l2268 0D8F                     l2428 035D  
                   l2380 0294                     l2372 0212                     l2364 01A5  
                   l2356 014F                     l2348 00E4                     l1628 0793  
                   l2444 0FE3                     l2540 05CC                     l2460 0D28  
                   l2452 0D1F                     l2516 0D5C                     l2508 0D49  
                   l2524 0D35                     l2532 0CF1                     l1590 0EB1  
                   l1582 0EA0                     l1574 0E91                     l2286 0D6D  
                   l1830 05A5                     l1822 0575                     l1814 055A  
                   l1806 054B                     l1750 0452                     l1742 0438  
                   l1734 040F                     l1726 03F3                     l1718 03EB  
                   l1662 0383                     l1670 0393                     l1654 0375  
                   l2278 0DB0                     l2390 02B9                     l2382 02A2  
                   l2374 023D                     l2366 01BC                     l2358 015D  
                   l1646 07BA                     l1638 07A1                     l2446 0FE9  
                   l2550 05EB                     l2542 05D2                     l2462 0D2A  
                   l2454 0D22                     l2470 0DD6                     l2526 0D3A  
                   l2518 0D2C                     l2534 0CF8                     l1592 0EB4  
                   l1584 0EA5                     l1576 0E95                     l2288 0D7A  
                   l1840 05B9                     l1832 05AD                     l1824 0579  
                   l1760 047B                     l1808 054F                     l1752 0457  
                   l1744 0439                     l1736 042B                     l1728 03F5  
                   l1680 03A9                     l1672 039B                     l1664 0388  
                   l1656 0379                     l2384 02AB                     l2392 02BF  
                   l2376 0263                     l2368 01D9                     l2296 002B  
                   l1648 07CA                     l2560 060B                     l2552 05F2  
                   l2544 05DA                     l2456 0D23                     l2448 0D12  
                   l2480 0DE9                     l2472 0DDC                     l2464 0DB8  
                   l2528 0D3B                     l2536 0CFC                     l1594 0EBB  
                   l1586 0EA9                     l1578 0E9A                     l1842 05C2  
                   l1834 05B2                     l1826 0597                     l1818 0562  
                   l1770 048D                     l1762 047F                     l1746 0442  
                   l1738 0432                     l1690 03C0                     l1682 03AD  
                   l1674 039E                     l1666 0390                     l1658 037D  
                   l2394 02C3                     l2386 02AF                     l2378 028B  
                   l2298 0030                     l2570 0636                     l2562 0616  
                   l2554 05F8                     l2546 05DF                     l2538 05C8  
                   l2458 0D24                     l2490 0DF8                     l2482 0DEC  
                   l2474 0DE0                     l2466 0DBE                     l1596 0EBF  
                   l1588 0EAB                     l1844 05C6                     l1836 05B3  
                   l1828 05A0                     l1780 04F5                     l1772 0496  
                   l1764 0486                     l1756 0460                     l1748 0446  
                   l1692 03C1                     l1684 03AE                     l1676 03A4  
                   l1668 0391                     l2396 02C4                     l2388 02B0  
                   l2580 0672                     l2572 063C                     l2564 0627  
                   l2556 05FE                     l2548 05E9                     l2492 0DFB  
                   l2484 0DEF                     l2476 0DE3                     l2468 0DC9  
                   l1598 0EC3                     l1838 05B7                     l1782 04FA  
                   l1766 0488                     l1758 0477                     l1774 049B  
                   l1686 03B3                     l1694 03C3                     l1678 03A5  
                   l2398 02C8                     l2582 0678                     l2574 0644  
                   l2566 0629                     l2558 0606                     l2494 0DFE  
                   l2486 0DF2                     l2478 0DE6                     l2590 0E64  
                   l1792 052D                     l1776 04B1                     l1784 0509  
                   l1768 048C                     l1696 03D1                     l1688 03B8  
                   l2584 0680                     l2576 0665                     l2568 0630  
                   l2496 0DFF                     l2488 0DF5                     l2592 0E68  
                   l1794 0536                     l1786 051F                     l1778 04EF  
                   l1698 03D5                     l2586 06A1                     l2578 066C  
                   l2498 0E02                     l2594 0E70                     l1796 053A  
                   l1788 0524                     l2596 0E75                     l2588 0E45  
                   l1798 053F                     l1990 06B5                     l2598 0E7B  
                   ?_map 002F                     l1992 06C5                     l1994 06D5  
                   l1986 06AC                     l1988 06B1                     l1998 06DE  
                   _ADIF 0066                     ?_isr 0076                     u2000 04DC  
                   u2001 04DD                     u2010 04FA                     u2002 04E2  
                   u2011 04F9                     u2003 04E3                     u2100 055A  
                   u2020 051F                     u2101 0559                     u2021 051E  
                   u2110 0561                     u2030 0524                     u2111 0560  
                   u2031 0523                     u2200 05C6                     u2120 0567  
                   u3000 0038                     u2201 05C5                     u2121 0566  
                   u3001 0037                     u2130 0579                     u2050 053A  
                   u3010 003E                     u2131 0578                     u2051 0539  
                   u3011 003D                     u2140 0588                     u2060 053F  
                   u3020 0043                     _IOCB 0096                     u2061 053E  
                   u2045 052F                     u3101 011C                     u3021 0042  
                   u2150 0597                     u2070 0549                     u3102 0123  
                   u3030 0062                     u2151 0596                     u2071 0548  
                   u3111 0138                     u3103 012A                     u3031 0061  
                   u2160 05A0                     u2080 054F                     u3112 013F  
                   u3040 0068                     u2161 059F                     u2145 0583  
                   u2081 054E                     u3201 0255                     u3113 0146  
                   u3041 0067                     u1610 0ED4                     u2170 05A5  
                   u2090 0554                     u3210 0271                     u3202 025C  
                   u3050 006D                     u1611 0ED3                     u2171 05A4  
                   u2091 0553                     u3203 0263                     u3131 016C  
                   u3051 006C                     u2180 05B2                     u3300 02E3  
                   u3132 0173                     u3060 0084                     u1700 07B2  
                   u1605 0EC4                     u2181 05B1                     u3301 02E2  
                   u3221 027D                     u3141 0197                     u3133 017A  
                   u3125 0148                     u3061 0083                     u1701 07B1  
                   u1630 0EE8                     u1550 0E95                     u2190 05B7  
                   u3310 02E9                     u3222 0284                     u3142 019E  
                   u3070 0089                     u1710 07B9                     u1631 0EE7  
                   u1615 0ED0                     u1551 0E94                     u2191 05B6  
                   u3311 02E8                     u3223 028B                     u3215 026C  
                   u3143 01A5                     u3071 0088                     u1711 07B8  
                   u1640 0EED                     u1560 0EA0                     u1800 03B3  
                   u3320 02FB                     u2600 06D5                     u3400 0DD6  
                   u1641 0EEC                     u1625 0EDC                     u1561 0E9F  
                   u1801 03B2                     u3321 02FA                     u3161 01CB  
                   u3081 00D6                     u2601 06D4                     u3401 0DD5  
                   u1570 0EB1                     u1810 03B8                     u3330 030A  
                   u3250 02AF                     u3162 01D2                     u3082 00DD  
                   u1730 07CA                     u1650 076E                     u3410 0D61  
                   u1571 0EB0                     u1811 03B7                     u3251 02AE  
                   u3235 028D                     u3171 01F6                     u3163 01D9  
                   u3155 01A7                     u3091 00F2                     u3083 00E4  
                   u1731 07C9                     u1651 076D                     u3411 0D60  
                   u1900 044E                     u1820 03D1                     u3340 0327  
                   u3172 01FD                     u3092 00F9                     u1740 07CF  
                   u1660 0785                     u2700 0755                     u2620 06F4  
                   u3420 0D42                     u1901 044D                     u1821 03D0  
                   u3341 0326                     u3245 02A4                     u3181 0221  
                   u3173 0204                     u3093 0100                     u1741 07CE  
                   u1725 07BC                     u2701 0754                     u2621 06F3  
                   u3421 0D41                     u1590 0EC3                     u1910 0452  
                   u1830 03D5                     u1750 037D                     u3350 0341  
                   u3270 02C3                     u3190 0249                     u3182 0228  
                   u1670 0799                     u2710 0759                     u3430 05D9  
                   u1591 0EC2                     u1911 0451                     u1831 03D4  
                   u1751 037C                     u3351 0340                     u3335 0305  
                   u3271 02C2                     u3183 022F                     u1671 0798  
                   u2711 0758                     u2615 06E6                     u3431 05D8  
                   u1920 0457                     u1840 040F                     u1760 0383  
                   u3360 035D                     u3280 02C8                     u1680 07A0  
                   u2640 0716                     u3440 0605                     u1585 0EB5  
                   u1921 0456                     u1841 040E                     u1761 0382  
                   u3361 035C                     u3345 0323                     u3281 02C7  
                   u3265 02B2                     u1681 079F                     u1665 0780  
                   u2641 0715                     u3441 0604                     u1850 041A  
                   u1770 0388                     u3290 02DC                     u3450 0643  
                   u1931 0469                     u1851 0418                     u1771 0387  
                   u3355 033D                     u3291 02DB                     u3195 0244  
                   u2635 0708                     u3451 0642                     u3507 0E0B  
                   u1940 047B                     u1932 0470                     u1860 041B  
                   u1780 03A4                     u2660 0726                     u2580 06B1  
                   u3460 067F                     u3380 0DBE                     u1941 047A  
                   u1933 0477                     u1845 040B                     u1781 03A3  
                   u2661 0725                     u2581 06B0                     u3461 067E  
                   u3517 05D0                     u3381 0DBD                     u1950 047F  
                   u1870 042B                     u1790 03AD                     u2670 072C  
                   u2590 06B5                     u3390 0DC9                     u3470 0E70  
                   u1951 047E                     u1871 042A                     u1791 03AC  
                   u1695 07A2                     u2671 072B                     u2655 071B  
                   u2591 06B4                     u3375 0F68                     u3527 05EF  
                   u3391 0DC8                     u3471 0E6F                     u1960 048C  
                   u1880 0438                     u2680 0730                     u3480 0E86  
                   u1961 048B                     u1881 0437                     u2681 072F  
                   u3537 05FC                     u3481 0E85                     u2930 0D9C  
                   u2690 0745                     u2931 0D9B                     u3547 062D  
                   u1980 04B1                     u1981 04B0                     u3557 063A  
                   u2950 0DB0                     u1991 04C8                     u1983 04AD  
                   u1975 048F                     u1895 043B                     u2951 0DAF  
                   u2695 0740                     u3567 0669                     u2960 0D6D  
                   u1992 04C9                     u2961 0D6C                     u1993 04CE  
                   u2945 0DA3                     u3577 0676                     u3497 0E79  
                   u1994 04CF                     u1995 04D4                     u3587 06A5  
                   u1996 04D5                     u2990 0D87                     u2991 0D86  
                   u2975 0D74                     u2985 0D7B                     _TMR0 0001  
                   _WPUB 0095                     _data 00AA                     _cont 0074  
                   _main 0E45                     _pot1 00A2                     _modo 00A8  
                   btemp 007E                     start 000C              _writeEEPROM 07DB  
                  ??_map 0037                    ??_isr 0079            ___fltol@sign1 0064  
     writeEEPROM@address 0077          __end_of___fladd 05C8                    ?_main 0076  
        __end_of___awdiv 0EF7                    _EEADR 010D                    _EEDAT 010C  
        __end_of___flmul 0370          __end_of___fltol 07DB          ___awdiv@divisor 0026  
                  i1l203 07DC                    i1l131 0F5A                    i1l132 0F4A  
                  i1l206 07FC                    i1l135 0F5A                    i1l171 0D02  
                  i1l173 0D11          ___awdiv@counter 002B                    _PORTA 0005  
                  _PORTC 0007                    _PORTD 0008                    _TRISC 0087  
                  _TRISD 0088                    _delay 0D01                    _mapeo 0F61  
                  _valDC 00A6                    _micro 00A0                    _setup 0D12  
                  pclath 000A                    status 0003                    wtemp0 007E  
        __initialization 000F             __end_of_main 0E8E                   ??_main 006E  
                 ?_delay 0076                   ?_mapeo 0076                   _ADRESH 001E  
                 _ADRESL 009E                   _CCPR1L 0015                   _CCPR2L 001B  
                 _EECON2 018D         ___awdiv@dividend 0028                   ?_setup 0076  
                 _ANSELH 0189                   i1l2042 0D01                   i1l2050 07E2  
                 i1l2210 0EF7                   i1l2044 0D05                   i1l2060 07F1  
                 i1l2052 07E8                   i1l2220 0F0C                   i1l2212 0EFB  
                 i1l2046 0D0B                   i1l2062 07F3                   i1l2054 07EB  
                 i1l2222 0F0F                   i1l2214 0EFC                   i1l2230 0F1F  
                 i1l2064 07F5                   i1l2056 07EC                   i1l2048 07DC  
                 i1l2240 0F3A                   i1l2232 0F23                   i1l2224 0F10  
                 i1l2216 0F00                   i1l2066 07F6                   i1l2058 07F0  
                 i1l2250 0F58                   i1l2242 0F3E                   i1l2234 0F29  
                 i1l2226 0F1B                   i1l2218 0F01                   i1l2068 07F7  
                 i1l2244 0F44                   i1l2236 0F31                   i1l2228 0F1E  
                 i1l2246 0F48                   i1l2238 0F32                   i1l2248 0F4E  
                 u273_20 0D11                   u273_21 0D10                   u274_20 07E2  
                 u290_20 0F4E                   u274_21 07E1                   u290_21 0F4D  
                 u284_20 0EFB                   u284_21 0EFA                   u285_20 0F23  
                 u285_21 0F22                   u286_20 0F29                   u286_21 0F28  
                 u287_20 0F3A                   u287_21 0F39                   u288_20 0F3E  
                 u288_21 0F3D                   u289_20 0F44                   u289_21 0F43  
                 _TMR2IF 0061                   _TMR2ON 0092         __end_of___xxtofl 0763  
              ??___fladd 0050                   ___wmul 0D65                ??___awdiv 002A  
              ??___flmul 0036                ??___fltol 0060                   _valDCH 0070  
                 _valDCL 0072         ___awdiv@quotient 002D             ?_setupINTOSC 0076  
       __end_of_setupADC 0E0E         __end_of_setupPWM 0D65                   saved_w 007E  
         _controlmotores 05C8             ___xxtofl@arg 002A             ___xxtofl@exp 0029  
           ___xxtofl@val 0020  __end_of__initialization 0027               ___fltol@f1 005C  
        writeEEPROM@data 0076           __pcstackCOMMON 0076            __end_of_delay 0D12  
          __end_of_mapeo 1000            __end_of_setup 0D2C           _OPTION_REGbits 0081  
 __end_of_controlmotores 06A9                  ??_delay 0078                  ??_mapeo 0066  
                ??_setup 0020               __pbssBANK0 006F               __pbssBANK1 00A0  
      __end_of__Umul8_16 0DB5               __pmaintext 0E45             ?_writeEEPROM 0076  
                ?___wmul 0020               __pintentry 0004                  _CCP1CON 0017  
                _ADC_RES 00AB                ?___xxtofl 0020          ?_controlmotores 0076  
   writeEEPROM@gieStatus 0078               _cont_sleep 006F                ?_setupADC 0076  
              ?_setupPWM 0076                  ___fladd 0370                  ___awdiv 0E8E  
                ___flmul 002B                  ___fltol 0763                  _address 0075  
              _ANSELbits 0188                  __ptext1 0CF1                  __ptext2 0D2C  
                __ptext3 0D46                  __ptext4 0DB5                  __ptext5 0DE0  
                __ptext6 0D12                  __ptext7 05C8                  __ptext8 0F61  
                __ptext9 06A9                _T2CONbits 0012               ??___xxtofl 0024  
             delay@micro 0076     end_of_initialization 0027        __end_of_setupPWM2 0D46  
      __end_of_setupTMR0 0D01               ??_setupADC 0020               ??_setupPWM 0020  
              _PORTBbits 0006                _PORTCbits 0007              ___fladd@grs 005B  
          ___xxtofl@sign 0028                _TRISAbits 0085                _TRISCbits 0087  
            ___flmul@grs 003D              _CCP1CONbits 0017              _CCP2CONbits 001D  
         __end_of___wmul 0D8C      start_initialization 000F              __end_of_map 0E45  
            __end_of_isr 0F61                 ??___wmul 0024                __Umul8_16 0D8C  
       ??_controlmotores 006B                ___fladd@a 004C                ___fladd@b 0048  
              ___flmul@a 0032                ___flmul@b 002E              __pbssCOMMON 0070  
              ___latbits 0002            __pcstackBANK0 0020          setupINTOSC@IRCF 0020  
               ?___fladd 0048                 ?___awdiv 0026                 ?___flmul 002E  
               ?___fltol 005C               ?__Umul8_16 0020        interrupt_function 0004  
         ___wmul@product 0024                 _PIE1bits 008C                 _PIR1bits 000C  
              _setupTMR0 0CF1                _setupPWM2 0D2C               _ADCON0bits 001F  
             _ADCON1bits 009F            ??_setupINTOSC 0020        ___wmul@multiplier 0020  
              map@outmax 0035                map@outmin 0033               _EECON1bits 018C  
             ?_setupTMR0 0076               ?_setupPWM2 0076              ??__Umul8_16 0022  
               ___xxtofl 06A9                 __ptext10 0763                 __ptext11 002B  
               __ptext12 0D8C                 __ptext13 0370                 __ptext14 0E0E  
               __ptext15 0D65                 __ptext16 0E8E                 __ptext17 0EF7  
               __ptext18 07DB                 __ptext19 0D01      __end_of_setupINTOSC 0DE0  
          ??_writeEEPROM 0077                 _setupADC 0DE0                 _setupPWM 0D46  
               map@value 0038               _INTCONbits 000B                 intlevel1 0000  
             _OSCCONbits 008F              ??_setupTMR0 0020              ??_setupPWM2 0020  
    __end_of_writeEEPROM 07FD   __Umul8_16@multiplicand 0020              _setupINTOSC 0DB5  
          ___fladd@signs 0058             ___fladd@aexp 0059             ___fladd@bexp 005A  
   __Umul8_16@multiplier 0028        __Umul8_16@product 0024  
