

Microchip MPLAB XC8 Assembler V2.40 build 20220703182018 
                                                                                               Mon Nov 14 22:40:53 2022

Microchip MPLAB XC8 C Compiler v2.40 (Free license) build 20220703182018 Og1 
     1                           	processor	16F887
     2                           	pagewidth 120
     3                           	opt	flic
     4                           	psect	cinit,global,class=CODE,merge=1,delta=2
     5                           	psect	bssCOMMON,global,class=COMMON,space=1,delta=1,noexec
     6                           	psect	bssBANK1,global,class=BANK1,space=1,delta=1,noexec
     7                           	psect	cstackCOMMON,global,class=COMMON,space=1,delta=1,noexec
     8                           	psect	cstackBANK0,global,class=BANK0,space=1,delta=1,noexec
     9                           	psect	maintext,global,class=CODE,split=1,delta=2
    10                           	psect	text1,local,class=CODE,merge=1,delta=2
    11                           	psect	text2,local,class=CODE,merge=1,delta=2
    12                           	psect	text3,local,class=CODE,merge=1,delta=2
    13                           	psect	text4,local,class=CODE,merge=1,delta=2
    14                           	psect	text5,local,class=CODE,merge=1,delta=2
    15                           	psect	text6,local,class=CODE,merge=1,delta=2
    16                           	psect	text7,local,class=CODE,merge=1,delta=2
    17                           	psect	text8,local,class=CODE,merge=1,delta=2
    18                           	psect	text9,local,class=CODE,merge=1,delta=2
    19                           	psect	text10,local,class=CODE,merge=1,delta=2
    20                           	psect	text11,local,class=CODE,merge=1,delta=2
    21                           	psect	text12,local,class=CODE,merge=1,delta=2,group=1
    22                           	psect	text13,local,class=CODE,merge=1,delta=2,group=1
    23                           	psect	text14,local,class=CODE,merge=1,delta=2,group=1
    24                           	psect	text15,local,class=CODE,merge=1,delta=2,group=1
    25                           	psect	text16,local,class=CODE,merge=1,delta=2,group=1
    26                           	psect	text17,local,class=CODE,merge=1,delta=2
    27                           	psect	intentry,global,class=CODE,delta=2
    28                           	psect	idloc,global,abs,ovrld,class=IDLOC,space=5,delta=2,noexec
    29                           	psect	config,global,abs,ovrld,class=CONFIG,space=4,delta=2,noexec
    30                           	dabs	1,0x7E,2
    31     0000                     
    32                           ; Version 2.40
    33                           ; Generated 17/11/2021 GMT
    34                           ; 
    35                           ; Copyright © 2021, Microchip Technology Inc. and its subsidiaries ("Microchip")
    36                           ; All rights reserved.
    37                           ; 
    38                           ; This software is developed by Microchip Technology Inc. and its subsidiaries ("Microch
      +                          ip").
    39                           ; 
    40                           ; Redistribution and use in source and binary forms, with or without modification, are
    41                           ; permitted provided that the following conditions are met:
    42                           ; 
    43                           ;     1. Redistributions of source code must retain the above copyright notice, this lis
      +                          t of
    44                           ;        conditions and the following disclaimer.
    45                           ; 
    46                           ;     2. Redistributions in binary form must reproduce the above copyright notice, this 
      +                          list
    47                           ;        of conditions and the following disclaimer in the documentation and/or other
    48                           ;        materials provided with the distribution. Publication is not required when
    49                           ;        this file is used in an embedded application.
    50                           ; 
    51                           ;     3. Microchip's name may not be used to endorse or promote products derived from th
      +                          is
    52                           ;        software without specific prior written permission.
    53                           ; 
    54                           ; THIS SOFTWARE IS PROVIDED BY MICROCHIP "AS IS" AND ANY EXPRESS OR IMPLIED WARRANTIES,
    55                           ; INCLUDING, BUT NOT LIMITED TO, THE IMPLIED WARRANTIES OF MERCHANTABILITY AND FITNESS F
      +                          OR
    56                           ; PURPOSE ARE DISCLAIMED.  IN NO EVENT SHALL MICROCHIP BE LIABLE FOR ANY DIRECT, INDIREC
      +                          T,
    57                           ; INCIDENTAL, SPECIAL, EXEMPLARY, OR CONSEQUENTIAL DAMAGES (INCLUDING BUT NOT LIMITED TO
    58                           ; PROCUREMENT OF SUBSTITUTE GOODS OR SERVICES; LOSS OF USE, DATA OR PROFITS; OR BUSINESS
    59                           ; INTERRUPTION) HOWSOEVER CAUSED AND ON ANY THEORY OF LIABILITY, WHETHER IN CONTRACT, ST
      +                          RICT
    60                           ; LIABILITY, OR TORT (INCLUDING NEGLIGENCE OR OTHERWISE) ARISING IN ANY WAY OUT OF THE U
      +                          SE OF
    61                           ; THIS SOFTWARE, EVEN IF ADVISED OF THE POSSIBILITY OF SUCH DAMAGE.
    62                           ; 
    63                           ; 
    64                           ; Code-generator required, PIC16F887 Definitions
    65                           ; 
    66                           ; SFR Addresses
    67     0000                     	;# 
    68     0001                     	;# 
    69     0002                     	;# 
    70     0003                     	;# 
    71     0004                     	;# 
    72     0005                     	;# 
    73     0006                     	;# 
    74     0007                     	;# 
    75     0008                     	;# 
    76     0009                     	;# 
    77     000A                     	;# 
    78     000B                     	;# 
    79     000C                     	;# 
    80     000D                     	;# 
    81     000E                     	;# 
    82     000E                     	;# 
    83     000F                     	;# 
    84     0010                     	;# 
    85     0011                     	;# 
    86     0012                     	;# 
    87     0013                     	;# 
    88     0014                     	;# 
    89     0015                     	;# 
    90     0015                     	;# 
    91     0016                     	;# 
    92     0017                     	;# 
    93     0018                     	;# 
    94     0019                     	;# 
    95     001A                     	;# 
    96     001B                     	;# 
    97     001B                     	;# 
    98     001C                     	;# 
    99     001D                     	;# 
   100     001E                     	;# 
   101     001F                     	;# 
   102     0081                     	;# 
   103     0085                     	;# 
   104     0086                     	;# 
   105     0087                     	;# 
   106     0088                     	;# 
   107     0089                     	;# 
   108     008C                     	;# 
   109     008D                     	;# 
   110     008E                     	;# 
   111     008F                     	;# 
   112     0090                     	;# 
   113     0091                     	;# 
   114     0092                     	;# 
   115     0093                     	;# 
   116     0093                     	;# 
   117     0093                     	;# 
   118     0094                     	;# 
   119     0095                     	;# 
   120     0096                     	;# 
   121     0097                     	;# 
   122     0098                     	;# 
   123     0099                     	;# 
   124     009A                     	;# 
   125     009B                     	;# 
   126     009C                     	;# 
   127     009D                     	;# 
   128     009E                     	;# 
   129     009F                     	;# 
   130     0105                     	;# 
   131     0107                     	;# 
   132     0108                     	;# 
   133     0109                     	;# 
   134     010C                     	;# 
   135     010C                     	;# 
   136     010D                     	;# 
   137     010E                     	;# 
   138     010F                     	;# 
   139     0185                     	;# 
   140     0187                     	;# 
   141     0188                     	;# 
   142     0189                     	;# 
   143     018C                     	;# 
   144     018D                     	;# 
   145     0000                     	;# 
   146     0001                     	;# 
   147     0002                     	;# 
   148     0003                     	;# 
   149     0004                     	;# 
   150     0005                     	;# 
   151     0006                     	;# 
   152     0007                     	;# 
   153     0008                     	;# 
   154     0009                     	;# 
   155     000A                     	;# 
   156     000B                     	;# 
   157     000C                     	;# 
   158     000D                     	;# 
   159     000E                     	;# 
   160     000E                     	;# 
   161     000F                     	;# 
   162     0010                     	;# 
   163     0011                     	;# 
   164     0012                     	;# 
   165     0013                     	;# 
   166     0014                     	;# 
   167     0015                     	;# 
   168     0015                     	;# 
   169     0016                     	;# 
   170     0017                     	;# 
   171     0018                     	;# 
   172     0019                     	;# 
   173     001A                     	;# 
   174     001B                     	;# 
   175     001B                     	;# 
   176     001C                     	;# 
   177     001D                     	;# 
   178     001E                     	;# 
   179     001F                     	;# 
   180     0081                     	;# 
   181     0085                     	;# 
   182     0086                     	;# 
   183     0087                     	;# 
   184     0088                     	;# 
   185     0089                     	;# 
   186     008C                     	;# 
   187     008D                     	;# 
   188     008E                     	;# 
   189     008F                     	;# 
   190     0090                     	;# 
   191     0091                     	;# 
   192     0092                     	;# 
   193     0093                     	;# 
   194     0093                     	;# 
   195     0093                     	;# 
   196     0094                     	;# 
   197     0095                     	;# 
   198     0096                     	;# 
   199     0097                     	;# 
   200     0098                     	;# 
   201     0099                     	;# 
   202     009A                     	;# 
   203     009B                     	;# 
   204     009C                     	;# 
   205     009D                     	;# 
   206     009E                     	;# 
   207     009F                     	;# 
   208     0105                     	;# 
   209     0107                     	;# 
   210     0108                     	;# 
   211     0109                     	;# 
   212     010C                     	;# 
   213     010C                     	;# 
   214     010D                     	;# 
   215     010E                     	;# 
   216     010F                     	;# 
   217     0185                     	;# 
   218     0187                     	;# 
   219     0188                     	;# 
   220     0189                     	;# 
   221     018C                     	;# 
   222     018D                     	;# 
   223     0000                     	;# 
   224     0001                     	;# 
   225     0002                     	;# 
   226     0003                     	;# 
   227     0004                     	;# 
   228     0005                     	;# 
   229     0006                     	;# 
   230     0007                     	;# 
   231     0008                     	;# 
   232     0009                     	;# 
   233     000A                     	;# 
   234     000B                     	;# 
   235     000C                     	;# 
   236     000D                     	;# 
   237     000E                     	;# 
   238     000E                     	;# 
   239     000F                     	;# 
   240     0010                     	;# 
   241     0011                     	;# 
   242     0012                     	;# 
   243     0013                     	;# 
   244     0014                     	;# 
   245     0015                     	;# 
   246     0015                     	;# 
   247     0016                     	;# 
   248     0017                     	;# 
   249     0018                     	;# 
   250     0019                     	;# 
   251     001A                     	;# 
   252     001B                     	;# 
   253     001B                     	;# 
   254     001C                     	;# 
   255     001D                     	;# 
   256     001E                     	;# 
   257     001F                     	;# 
   258     0081                     	;# 
   259     0085                     	;# 
   260     0086                     	;# 
   261     0087                     	;# 
   262     0088                     	;# 
   263     0089                     	;# 
   264     008C                     	;# 
   265     008D                     	;# 
   266     008E                     	;# 
   267     008F                     	;# 
   268     0090                     	;# 
   269     0091                     	;# 
   270     0092                     	;# 
   271     0093                     	;# 
   272     0093                     	;# 
   273     0093                     	;# 
   274     0094                     	;# 
   275     0095                     	;# 
   276     0096                     	;# 
   277     0097                     	;# 
   278     0098                     	;# 
   279     0099                     	;# 
   280     009A                     	;# 
   281     009B                     	;# 
   282     009C                     	;# 
   283     009D                     	;# 
   284     009E                     	;# 
   285     009F                     	;# 
   286     0105                     	;# 
   287     0107                     	;# 
   288     0108                     	;# 
   289     0109                     	;# 
   290     010C                     	;# 
   291     010C                     	;# 
   292     010D                     	;# 
   293     010E                     	;# 
   294     010F                     	;# 
   295     0185                     	;# 
   296     0187                     	;# 
   297     0188                     	;# 
   298     0189                     	;# 
   299     018C                     	;# 
   300     018D                     	;# 
   301     001E                     _ADRESH	set	30
   302     0010                     _T1CONbits	set	16
   303     001B                     _CCPR2L	set	27
   304     001D                     _CCP2CONbits	set	29
   305     0012                     _T2CONbits	set	18
   306     0015                     _CCPR1L	set	21
   307     0017                     _CCP1CONbits	set	23
   308     0017                     _CCP1CON	set	23
   309     001F                     _ADCON0bits	set	31
   310     0008                     _PORTD	set	8
   311     0007                     _PORTC	set	7
   312     0005                     _PORTA	set	5
   313     000E                     _TMR1L	set	14
   314     000F                     _TMR1H	set	15
   315     000C                     _PIR1bits	set	12
   316     0001                     _TMR0	set	1
   317     0007                     _PORTCbits	set	7
   318     000B                     _INTCONbits	set	11
   319     0066                     _ADIF	set	102
   320     0092                     _TMR2ON	set	146
   321     0061                     _TMR2IF	set	97
   322     008F                     _OSCCONbits	set	143
   323     009E                     _ADRESL	set	158
   324     008C                     _PIE1bits	set	140
   325     0081                     _OPTION_REGbits	set	129
   326     0092                     _PR2	set	146
   327     0087                     _TRISCbits	set	135
   328     009F                     _ADCON1bits	set	159
   329     0085                     _TRISAbits	set	133
   330     0087                     _TRISC	set	135
   331     0088                     _TRISD	set	136
   332     0188                     _ANSELbits	set	392
   333     0189                     _ANSELH	set	393
   334                           
   335                           	psect	cinit
   336     000F                     start_initialization:	
   337                           ; #config settings
   338                           
   339     000F                     __initialization:
   340                           
   341                           ; Clear objects allocated to COMMON
   342     000F  01FB               	clrf	__pbssCOMMON& (0+127)
   343     0010  01FC               	clrf	(__pbssCOMMON+1)& (0+127)
   344                           
   345                           ; Clear objects allocated to BANK1
   346     0011  1683               	bsf	3,5	;RP0=1, select bank1
   347     0012  1303               	bcf	3,6	;RP1=0, select bank1
   348     0013  01A0               	clrf	__pbssBANK1& (0+127)
   349     0014  01A1               	clrf	(__pbssBANK1+1)& (0+127)
   350     0015  01A2               	clrf	(__pbssBANK1+2)& (0+127)
   351     0016  01A3               	clrf	(__pbssBANK1+3)& (0+127)
   352     0017  01A4               	clrf	(__pbssBANK1+4)& (0+127)
   353     0018  01A5               	clrf	(__pbssBANK1+5)& (0+127)
   354     0019  01A6               	clrf	(__pbssBANK1+6)& (0+127)
   355     001A  01A7               	clrf	(__pbssBANK1+7)& (0+127)
   356     001B  01A8               	clrf	(__pbssBANK1+8)& (0+127)
   357     001C  01A9               	clrf	(__pbssBANK1+9)& (0+127)
   358     001D  01AA               	clrf	(__pbssBANK1+10)& (0+127)
   359     001E  01AB               	clrf	(__pbssBANK1+11)& (0+127)
   360     001F  01AC               	clrf	(__pbssBANK1+12)& (0+127)
   361     0020  01AD               	clrf	(__pbssBANK1+13)& (0+127)
   362     0021                     end_of_initialization:	
   363                           ;End of C runtime variable initialization code
   364                           
   365     0021                     __end_of__initialization:
   366     0021  0183               	clrf	3
   367     0022  120A  158A  2DE4   	ljmp	_main	;jump to C main() function
   368                           
   369                           	psect	bssCOMMON
   370     007B                     __pbssCOMMON:
   371     007B                     _valDC:
   372     007B                     	ds	2
   373                           
   374                           	psect	bssBANK1
   375     00A0                     __pbssBANK1:
   376     00A0                     _pulso2:
   377     00A0                     	ds	2
   378     00A2                     _pulso:
   379     00A2                     	ds	2
   380     00A4                     _cont:
   381     00A4                     	ds	2
   382     00A6                     _ADC_led:
   383     00A6                     	ds	2
   384     00A8                     _valDCH:
   385     00A8                     	ds	2
   386     00AA                     _valDCL:
   387     00AA                     	ds	2
   388     00AC                     _ADC_RES:
   389     00AC                     	ds	2
   390                           
   391                           	psect	cstackCOMMON
   392     0070                     __pcstackCOMMON:
   393     0070                     ?_setup:
   394     0070                     ?_setupINTOSC:	
   395                           ; 1 bytes @ 0x0
   396                           
   397     0070                     ?_setupADC:	
   398                           ; 1 bytes @ 0x0
   399                           
   400     0070                     ?_setupPWM:	
   401                           ; 1 bytes @ 0x0
   402                           
   403     0070                     ?_setupPWM2:	
   404                           ; 1 bytes @ 0x0
   405                           
   406     0070                     ?_setupTMR0:	
   407                           ; 1 bytes @ 0x0
   408                           
   409     0070                     ?_setupTMR1:	
   410                           ; 1 bytes @ 0x0
   411                           
   412     0070                     ?_controlmotores:	
   413                           ; 1 bytes @ 0x0
   414                           
   415     0070                     ?_isr:	
   416                           ; 1 bytes @ 0x0
   417                           
   418     0070                     ??_isr:	
   419                           ; 1 bytes @ 0x0
   420                           
   421     0070                     ?_main:	
   422                           ; 1 bytes @ 0x0
   423                           
   424     0070                     ?_PWM1:	
   425                           ; 1 bytes @ 0x0
   426                           
   427     0070                     ?_PWM2:	
   428                           ; 1 bytes @ 0x0
   429                           
   430     0070                     ?_map:	
   431                           ; 1 bytes @ 0x0
   432                           
   433                           
   434                           ; 1 bytes @ 0x0
   435     0070                     	ds	11
   436                           
   437                           	psect	cstackBANK0
   438     0020                     __pcstackBANK0:
   439     0020                     ??_setup:
   440     0020                     ??_setupINTOSC:	
   441                           ; 1 bytes @ 0x0
   442                           
   443     0020                     ??_setupADC:	
   444                           ; 1 bytes @ 0x0
   445                           
   446     0020                     ??_setupPWM:	
   447                           ; 1 bytes @ 0x0
   448                           
   449     0020                     ??_setupPWM2:	
   450                           ; 1 bytes @ 0x0
   451                           
   452     0020                     ??_setupTMR0:	
   453                           ; 1 bytes @ 0x0
   454                           
   455     0020                     ??_setupTMR1:	
   456                           ; 1 bytes @ 0x0
   457                           
   458     0020                     ?__Umul8_16:	
   459                           ; 1 bytes @ 0x0
   460                           
   461     0020                     ?___xxtofl:	
   462                           ; 2 bytes @ 0x0
   463                           
   464     0020                     setupINTOSC@IRCF:	
   465                           ; 4 bytes @ 0x0
   466                           
   467     0020                     __Umul8_16@multiplicand:	
   468                           ; 1 bytes @ 0x0
   469                           
   470     0020                     ___xxtofl@val:	
   471                           ; 1 bytes @ 0x0
   472                           
   473                           
   474                           ; 4 bytes @ 0x0
   475     0020                     	ds	2
   476     0022                     ??__Umul8_16:
   477                           
   478                           ; 1 bytes @ 0x2
   479     0022                     	ds	2
   480     0024                     ??___xxtofl:
   481     0024                     __Umul8_16@product:	
   482                           ; 1 bytes @ 0x4
   483                           
   484                           
   485                           ; 2 bytes @ 0x4
   486     0024                     	ds	2
   487     0026                     __Umul8_16@word_mpld:
   488                           
   489                           ; 2 bytes @ 0x6
   490     0026                     	ds	2
   491     0028                     __Umul8_16@multiplier:
   492     0028                     ___xxtofl@sign:	
   493                           ; 1 bytes @ 0x8
   494                           
   495                           
   496                           ; 1 bytes @ 0x8
   497     0028                     	ds	1
   498     0029                     ___xxtofl@exp:
   499                           
   500                           ; 1 bytes @ 0x9
   501     0029                     	ds	1
   502     002A                     ___xxtofl@arg:
   503                           
   504                           ; 4 bytes @ 0xA
   505     002A                     	ds	4
   506     002E                     ?___flmul:
   507     002E                     ___flmul@b:	
   508                           ; 4 bytes @ 0xE
   509                           
   510                           
   511                           ; 4 bytes @ 0xE
   512     002E                     	ds	4
   513     0032                     ___flmul@a:
   514                           
   515                           ; 4 bytes @ 0x12
   516     0032                     	ds	4
   517     0036                     ??___flmul:
   518                           
   519                           ; 1 bytes @ 0x16
   520     0036                     	ds	5
   521     003B                     ___flmul@sign:
   522                           
   523                           ; 1 bytes @ 0x1B
   524     003B                     	ds	1
   525     003C                     ___flmul@grs:
   526                           
   527                           ; 4 bytes @ 0x1C
   528     003C                     	ds	4
   529     0040                     ___flmul@aexp:
   530                           
   531                           ; 1 bytes @ 0x20
   532     0040                     	ds	1
   533     0041                     ___flmul@bexp:
   534                           
   535                           ; 1 bytes @ 0x21
   536     0041                     	ds	1
   537     0042                     ___flmul@prod:
   538                           
   539                           ; 4 bytes @ 0x22
   540     0042                     	ds	4
   541     0046                     ___flmul@temp:
   542                           
   543                           ; 2 bytes @ 0x26
   544     0046                     	ds	2
   545     0048                     ?___fladd:
   546     0048                     ___fladd@b:	
   547                           ; 4 bytes @ 0x28
   548                           
   549                           
   550                           ; 4 bytes @ 0x28
   551     0048                     	ds	4
   552     004C                     ___fladd@a:
   553                           
   554                           ; 4 bytes @ 0x2C
   555     004C                     	ds	4
   556     0050                     ??___fladd:
   557                           
   558                           ; 1 bytes @ 0x30
   559     0050                     	ds	8
   560     0058                     ___fladd@signs:
   561                           
   562                           ; 1 bytes @ 0x38
   563     0058                     	ds	1
   564     0059                     ___fladd@aexp:
   565                           
   566                           ; 1 bytes @ 0x39
   567     0059                     	ds	1
   568     005A                     ___fladd@bexp:
   569                           
   570                           ; 1 bytes @ 0x3A
   571     005A                     	ds	1
   572     005B                     ___fladd@grs:
   573                           
   574                           ; 1 bytes @ 0x3B
   575     005B                     	ds	1
   576     005C                     ?___fltol:
   577     005C                     ___fltol@f1:	
   578                           ; 4 bytes @ 0x3C
   579                           
   580                           
   581                           ; 4 bytes @ 0x3C
   582     005C                     	ds	4
   583     0060                     ??___fltol:
   584                           
   585                           ; 1 bytes @ 0x40
   586     0060                     	ds	4
   587     0064                     ___fltol@sign1:
   588                           
   589                           ; 1 bytes @ 0x44
   590     0064                     	ds	1
   591     0065                     ___fltol@exp1:
   592                           
   593                           ; 1 bytes @ 0x45
   594     0065                     	ds	1
   595     0066                     ??_PWM1:
   596     0066                     ??_PWM2:	
   597                           ; 1 bytes @ 0x46
   598                           
   599     0066                     ??_map:	
   600                           ; 1 bytes @ 0x46
   601                           
   602                           
   603                           ; 1 bytes @ 0x46
   604     0066                     	ds	5
   605     006B                     ??_controlmotores:
   606                           
   607                           ; 1 bytes @ 0x4B
   608     006B                     	ds	3
   609     006E                     ??_main:
   610                           
   611                           ; 1 bytes @ 0x4E
   612     006E                     	ds	1
   613                           
   614                           	psect	maintext
   615     0DE4                     __pmaintext:	
   616 ;;
   617 ;;Main: autosize = 0, tempsize = 1, incstack = 0, save=0
   618 ;;
   619 ;; *************** function _main *****************
   620 ;; Defined at:
   621 ;;		line 91 in file "main.c"
   622 ;; Parameters:    Size  Location     Type
   623 ;;		None
   624 ;; Auto vars:     Size  Location     Type
   625 ;;		None
   626 ;; Return value:  Size  Location     Type
   627 ;;                  1    wreg      void 
   628 ;; Registers used:
   629 ;;		wreg, status,2, status,0, btemp+1, pclath, cstack
   630 ;; Tracked objects:
   631 ;;		On entry : B00/0
   632 ;;		On exit  : 0/0
   633 ;;		Unchanged: 0/0
   634 ;; Data sizes:     COMMON   BANK0   BANK1   BANK3   BANK2
   635 ;;      Params:         0       0       0       0       0
   636 ;;      Locals:         0       0       0       0       0
   637 ;;      Temps:          0       1       0       0       0
   638 ;;      Totals:         0       1       0       0       0
   639 ;;Total ram usage:        1 bytes
   640 ;; Hardware stack levels required when called: 5
   641 ;; This function calls:
   642 ;;		_controlmotores
   643 ;;		_setup
   644 ;;		_setupADC
   645 ;;		_setupINTOSC
   646 ;;		_setupPWM
   647 ;;		_setupPWM2
   648 ;;		_setupTMR0
   649 ;;		_setupTMR1
   650 ;; This function is called by:
   651 ;;		Startup code after reset
   652 ;; This function uses a non-reentrant model
   653 ;;
   654                           
   655     0DE4                     _main:	
   656                           ;psect for function _main
   657                           
   658     0DE4                     l2029:	
   659                           ;incstack = 0
   660                           ; Regs used in _main: [wreg+status,2+status,0+btemp+1+pclath+cstack]
   661                           
   662                           
   663                           ;main.c: 93:     setup();
   664     0DE4  120A  158A  2515  120A  158A  	fcall	_setup
   665     0DE9                     l2031:
   666                           
   667                           ;main.c: 94:     setupINTOSC(3);
   668     0DE9  3003               	movlw	3
   669     0DEA  120A  118A  27D5  120A  158A  	fcall	_setupINTOSC
   670     0DEF                     l2033:
   671                           
   672                           ;main.c: 95:     setupADC();
   673     0DEF  120A  158A  25B6  120A  158A  	fcall	_setupADC
   674     0DF4                     l2035:
   675                           
   676                           ;main.c: 96:     setupPWM();
   677     0DF4  120A  158A  2566  120A  158A  	fcall	_setupPWM
   678     0DF9                     l2037:
   679                           
   680                           ;main.c: 97:     setupPWM2();
   681     0DF9  120A  158A  2544  120A  158A  	fcall	_setupPWM2
   682     0DFE                     l2039:
   683                           
   684                           ;main.c: 98:     setupTMR0();
   685     0DFE  120A  158A  2522  120A  158A  	fcall	_setupTMR0
   686     0E03                     l2041:
   687                           
   688                           ;main.c: 99:     setupTMR1();
   689     0E03  120A  158A  2531  120A  158A  	fcall	_setupTMR1
   690     0E08                     l2043:
   691                           
   692                           ;main.c: 100:     cont = 0;
   693     0E08  1683               	bsf	3,5	;RP0=1, select bank1
   694     0E09  1303               	bcf	3,6	;RP1=0, select bank1
   695     0E0A  01A4               	clrf	_cont^(0+128)
   696     0E0B  01A5               	clrf	(_cont+1)^(0+128)
   697     0E0C                     l2045:
   698                           
   699                           ;main.c: 101:     pulso = 255;
   700     0E0C  30FF               	movlw	255
   701     0E0D  00A2               	movwf	_pulso^(0+128)
   702     0E0E  3000               	movlw	0
   703     0E0F  00A3               	movwf	(_pulso^(0+128)+1)
   704     0E10                     l2047:
   705                           
   706                           ;main.c: 102:     pulso2 = 65474;
   707     0E10  30C2               	movlw	194
   708     0E11  00A0               	movwf	_pulso2^(0+128)
   709     0E12  30FF               	movlw	255
   710     0E13  00A1               	movwf	(_pulso2^(0+128)+1)
   711     0E14                     l2049:
   712                           
   713                           ;main.c: 105:         controlmotores();
   714     0E14  120A  118A  25C2  120A  158A  	fcall	_controlmotores
   715     0E19                     l2051:
   716                           
   717                           ;main.c: 106:         _delay((unsigned long)((100)*(500000/4000000.0)));
   718     0E19  3003               	movlw	3
   719     0E1A  1283               	bcf	3,5	;RP0=0, select bank0
   720     0E1B  1303               	bcf	3,6	;RP1=0, select bank0
   721     0E1C  00EE               	movwf	??_main
   722     0E1D                     u2577:
   723     0E1D  0BEE               	decfsz	??_main,f
   724     0E1E  2E1D               	goto	u2577
   725     0E1F  2E14               	goto	l2049
   726     0E20  120A  118A  280C   	ljmp	start
   727     0E23                     __end_of_main:
   728                           
   729                           	psect	text1
   730     0D31                     __ptext1:	
   731 ;; *************** function _setupTMR1 *****************
   732 ;; Defined at:
   733 ;;		line 212 in file "main.c"
   734 ;; Parameters:    Size  Location     Type
   735 ;;		None
   736 ;; Auto vars:     Size  Location     Type
   737 ;;		None
   738 ;; Return value:  Size  Location     Type
   739 ;;                  1    wreg      void 
   740 ;; Registers used:
   741 ;;		wreg, status,2, status,0
   742 ;; Tracked objects:
   743 ;;		On entry : 0/0
   744 ;;		On exit  : 0/0
   745 ;;		Unchanged: 0/0
   746 ;; Data sizes:     COMMON   BANK0   BANK1   BANK3   BANK2
   747 ;;      Params:         0       0       0       0       0
   748 ;;      Locals:         0       0       0       0       0
   749 ;;      Temps:          0       0       0       0       0
   750 ;;      Totals:         0       0       0       0       0
   751 ;;Total ram usage:        0 bytes
   752 ;; Hardware stack levels used: 1
   753 ;; Hardware stack levels required when called: 1
   754 ;; This function calls:
   755 ;;		Nothing
   756 ;; This function is called by:
   757 ;;		_main
   758 ;; This function uses a non-reentrant model
   759 ;;
   760                           
   761     0D31                     _setupTMR1:	
   762                           ;psect for function _setupTMR1
   763                           
   764     0D31                     l1931:	
   765                           ;incstack = 0
   766                           ; Regs used in _setupTMR1: [wreg+status,2+status,0]
   767                           
   768                           
   769                           ;main.c: 213:     T1CONbits.T1CKPS = 0;
   770     0D31  30CF               	movlw	-49
   771     0D32  1283               	bcf	3,5	;RP0=0, select bank0
   772     0D33  1303               	bcf	3,6	;RP1=0, select bank0
   773     0D34  0590               	andwf	16,f	;volatile
   774     0D35                     l1933:
   775                           
   776                           ;main.c: 214:     T1CONbits.T1OSCEN = 0;
   777     0D35  1190               	bcf	16,3	;volatile
   778     0D36                     l1935:
   779                           
   780                           ;main.c: 215:     T1CONbits.TMR1CS = 0;
   781     0D36  1090               	bcf	16,1	;volatile
   782     0D37                     l1937:
   783                           
   784                           ;main.c: 216:     T1CONbits.TMR1ON = 1;
   785     0D37  1410               	bsf	16,0	;volatile
   786     0D38                     l1939:
   787                           
   788                           ;main.c: 218:     TMR1H = 0xF6;
   789     0D38  30F6               	movlw	246
   790     0D39  008F               	movwf	15	;volatile
   791     0D3A                     l1941:
   792                           
   793                           ;main.c: 219:     TMR1L = 0x3C;
   794     0D3A  303C               	movlw	60
   795     0D3B  008E               	movwf	14	;volatile
   796     0D3C                     l1943:
   797                           
   798                           ;main.c: 220:     INTCONbits.PEIE = 1;
   799     0D3C  170B               	bsf	11,6	;volatile
   800     0D3D                     l1945:
   801                           
   802                           ;main.c: 221:     PIE1bits.TMR1IE = 1;
   803     0D3D  1683               	bsf	3,5	;RP0=1, select bank1
   804     0D3E  1303               	bcf	3,6	;RP1=0, select bank1
   805     0D3F  140C               	bsf	12,0	;volatile
   806     0D40                     l1947:
   807                           
   808                           ;main.c: 222:     PIR1bits.TMR1IF = 0;
   809     0D40  1283               	bcf	3,5	;RP0=0, select bank0
   810     0D41  1303               	bcf	3,6	;RP1=0, select bank0
   811     0D42  100C               	bcf	12,0	;volatile
   812     0D43                     l141:
   813     0D43  0008               	return
   814     0D44                     __end_of_setupTMR1:
   815                           
   816                           	psect	text2
   817     0D22                     __ptext2:	
   818 ;; *************** function _setupTMR0 *****************
   819 ;; Defined at:
   820 ;;		line 199 in file "main.c"
   821 ;; Parameters:    Size  Location     Type
   822 ;;		None
   823 ;; Auto vars:     Size  Location     Type
   824 ;;		None
   825 ;; Return value:  Size  Location     Type
   826 ;;                  1    wreg      void 
   827 ;; Registers used:
   828 ;;		wreg, status,2, status,0
   829 ;; Tracked objects:
   830 ;;		On entry : 0/0
   831 ;;		On exit  : 0/0
   832 ;;		Unchanged: 0/0
   833 ;; Data sizes:     COMMON   BANK0   BANK1   BANK3   BANK2
   834 ;;      Params:         0       0       0       0       0
   835 ;;      Locals:         0       0       0       0       0
   836 ;;      Temps:          0       0       0       0       0
   837 ;;      Totals:         0       0       0       0       0
   838 ;;Total ram usage:        0 bytes
   839 ;; Hardware stack levels used: 1
   840 ;; Hardware stack levels required when called: 1
   841 ;; This function calls:
   842 ;;		Nothing
   843 ;; This function is called by:
   844 ;;		_main
   845 ;; This function uses a non-reentrant model
   846 ;;
   847                           
   848     0D22                     _setupTMR0:	
   849                           ;psect for function _setupTMR0
   850                           
   851     0D22                     l1925:	
   852                           ;incstack = 0
   853                           ; Regs used in _setupTMR0: [wreg+status,2+status,0]
   854                           
   855                           
   856                           ;main.c: 200:     INTCONbits.GIE = 1;
   857     0D22  178B               	bsf	11,7	;volatile
   858                           
   859                           ;main.c: 201:     INTCONbits.T0IE = 1;
   860     0D23  168B               	bsf	11,5	;volatile
   861                           
   862                           ;main.c: 202:     INTCONbits.T0IF = 0;
   863     0D24  110B               	bcf	11,2	;volatile
   864                           
   865                           ;main.c: 204:     OPTION_REGbits.T0CS = 0;
   866     0D25  1683               	bsf	3,5	;RP0=1, select bank1
   867     0D26  1303               	bcf	3,6	;RP1=0, select bank1
   868     0D27  1281               	bcf	1,5	;volatile
   869                           
   870                           ;main.c: 205:     OPTION_REGbits.PSA = 0;
   871     0D28  1181               	bcf	1,3	;volatile
   872     0D29                     l1927:
   873                           
   874                           ;main.c: 206:     OPTION_REGbits.PS = 0b011;
   875     0D29  0801               	movf	1,w	;volatile
   876     0D2A  39F8               	andlw	-8
   877     0D2B  3803               	iorlw	3
   878     0D2C  0081               	movwf	1	;volatile
   879     0D2D                     l1929:
   880                           
   881                           ;main.c: 207:     TMR0 = 0;
   882     0D2D  1283               	bcf	3,5	;RP0=0, select bank0
   883     0D2E  1303               	bcf	3,6	;RP1=0, select bank0
   884     0D2F  0181               	clrf	1	;volatile
   885     0D30                     l138:
   886     0D30  0008               	return
   887     0D31                     __end_of_setupTMR0:
   888                           
   889                           	psect	text3
   890     0D44                     __ptext3:	
   891 ;; *************** function _setupPWM2 *****************
   892 ;; Defined at:
   893 ;;		line 179 in file "main.c"
   894 ;; Parameters:    Size  Location     Type
   895 ;;		None
   896 ;; Auto vars:     Size  Location     Type
   897 ;;		None
   898 ;; Return value:  Size  Location     Type
   899 ;;                  1    wreg      void 
   900 ;; Registers used:
   901 ;;		wreg, status,2, status,0
   902 ;; Tracked objects:
   903 ;;		On entry : 0/0
   904 ;;		On exit  : 0/0
   905 ;;		Unchanged: 0/0
   906 ;; Data sizes:     COMMON   BANK0   BANK1   BANK3   BANK2
   907 ;;      Params:         0       0       0       0       0
   908 ;;      Locals:         0       0       0       0       0
   909 ;;      Temps:          0       0       0       0       0
   910 ;;      Totals:         0       0       0       0       0
   911 ;;Total ram usage:        0 bytes
   912 ;; Hardware stack levels used: 1
   913 ;; Hardware stack levels required when called: 1
   914 ;; This function calls:
   915 ;;		Nothing
   916 ;; This function is called by:
   917 ;;		_main
   918 ;; This function uses a non-reentrant model
   919 ;;
   920                           
   921     0D44                     _setupPWM2:	
   922                           ;psect for function _setupPWM2
   923                           
   924     0D44                     l1911:	
   925                           ;incstack = 0
   926                           ; Regs used in _setupPWM2: [wreg+status,2+status,0]
   927                           
   928                           
   929                           ;main.c: 181:     TRISCbits.TRISC1 = 1;
   930     0D44  1683               	bsf	3,5	;RP0=1, select bank1
   931     0D45  1303               	bcf	3,6	;RP1=0, select bank1
   932     0D46  1487               	bsf	7,1	;volatile
   933     0D47                     l1913:
   934                           
   935                           ;main.c: 183:     PR2 = 155;
   936     0D47  309B               	movlw	155
   937     0D48  0092               	movwf	18	;volatile
   938     0D49                     l1915:
   939                           
   940                           ;main.c: 185:     CCP2CONbits.CCP2M = 0b1111;
   941     0D49  300F               	movlw	15
   942     0D4A  1283               	bcf	3,5	;RP0=0, select bank0
   943     0D4B  1303               	bcf	3,6	;RP1=0, select bank0
   944     0D4C  049D               	iorwf	29,f	;volatile
   945     0D4D                     l1917:
   946                           
   947                           ;main.c: 187:     CCP2CONbits.DC2B1 = valDCL;
   948     0D4D  1683               	bsf	3,5	;RP0=1, select bank1
   949     0D4E  1303               	bcf	3,6	;RP1=0, select bank1
   950     0D4F  0C2A               	rrf	_valDCL^(0+128),w
   951     0D50  1283               	bcf	3,5	;RP0=0, select bank0
   952     0D51  1303               	bcf	3,6	;RP1=0, select bank0
   953     0D52  1C03               	skipc
   954     0D53  129D               	bcf	29,5	;volatile
   955     0D54  1803               	skipnc
   956     0D55  169D               	bsf	29,5	;volatile
   957     0D56                     l1919:
   958                           
   959                           ;main.c: 188:     CCP2CONbits.DC2B0 = 0b1;
   960     0D56  161D               	bsf	29,4	;volatile
   961     0D57                     l1921:
   962                           
   963                           ;main.c: 189:     CCPR2L = valDCH;
   964     0D57  1683               	bsf	3,5	;RP0=1, select bank1
   965     0D58  1303               	bcf	3,6	;RP1=0, select bank1
   966     0D59  0828               	movf	_valDCH^(0+128),w
   967     0D5A  1283               	bcf	3,5	;RP0=0, select bank0
   968     0D5B  1303               	bcf	3,6	;RP1=0, select bank0
   969     0D5C  009B               	movwf	27	;volatile
   970     0D5D                     l1923:
   971                           
   972                           ;main.c: 191:     TMR2IF = 0;
   973     0D5D  108C               	bcf	12,1	;volatile
   974     0D5E                     l132:	
   975                           ;main.c: 193:     while(!TMR2IF);
   976                           
   977     0D5E  1C8C               	btfss	12,1	;volatile
   978     0D5F  2D61               	goto	u2461
   979     0D60  2D62               	goto	u2460
   980     0D61                     u2461:
   981     0D61  2D5E               	goto	l132
   982     0D62                     u2460:
   983     0D62                     l134:
   984                           
   985                           ;main.c: 194:     TRISCbits.TRISC1 = 0;
   986     0D62  1683               	bsf	3,5	;RP0=1, select bank1
   987     0D63  1303               	bcf	3,6	;RP1=0, select bank1
   988     0D64  1087               	bcf	7,1	;volatile
   989     0D65                     l135:
   990     0D65  0008               	return
   991     0D66                     __end_of_setupPWM2:
   992                           
   993                           	psect	text4
   994     0D66                     __ptext4:	
   995 ;; *************** function _setupPWM *****************
   996 ;; Defined at:
   997 ;;		line 161 in file "main.c"
   998 ;; Parameters:    Size  Location     Type
   999 ;;		None
  1000 ;; Auto vars:     Size  Location     Type
  1001 ;;		None
  1002 ;; Return value:  Size  Location     Type
  1003 ;;                  1    wreg      void 
  1004 ;; Registers used:
  1005 ;;		wreg, status,2, status,0
  1006 ;; Tracked objects:
  1007 ;;		On entry : 0/0
  1008 ;;		On exit  : 0/0
  1009 ;;		Unchanged: 0/0
  1010 ;; Data sizes:     COMMON   BANK0   BANK1   BANK3   BANK2
  1011 ;;      Params:         0       0       0       0       0
  1012 ;;      Locals:         0       0       0       0       0
  1013 ;;      Temps:          0       1       0       0       0
  1014 ;;      Totals:         0       1       0       0       0
  1015 ;;Total ram usage:        1 bytes
  1016 ;; Hardware stack levels used: 1
  1017 ;; Hardware stack levels required when called: 1
  1018 ;; This function calls:
  1019 ;;		Nothing
  1020 ;; This function is called by:
  1021 ;;		_main
  1022 ;; This function uses a non-reentrant model
  1023 ;;
  1024                           
  1025     0D66                     _setupPWM:	
  1026                           ;psect for function _setupPWM
  1027                           
  1028     0D66                     l1899:	
  1029                           ;incstack = 0
  1030                           ; Regs used in _setupPWM: [wreg+status,2+status,0]
  1031                           
  1032                           
  1033                           ;main.c: 163:     TRISCbits.TRISC2 = 1;
  1034     0D66  1683               	bsf	3,5	;RP0=1, select bank1
  1035     0D67  1303               	bcf	3,6	;RP1=0, select bank1
  1036     0D68  1507               	bsf	7,2	;volatile
  1037     0D69                     l1901:
  1038                           
  1039                           ;main.c: 165:     PR2 = 155;
  1040     0D69  309B               	movlw	155
  1041     0D6A  0092               	movwf	18	;volatile
  1042                           
  1043                           ;main.c: 167:     CCP1CON = 0b00001100;
  1044     0D6B  300C               	movlw	12
  1045     0D6C  1283               	bcf	3,5	;RP0=0, select bank0
  1046     0D6D  1303               	bcf	3,6	;RP1=0, select bank0
  1047     0D6E  0097               	movwf	23	;volatile
  1048     0D6F                     l1903:
  1049                           
  1050                           ;main.c: 169:     CCP1CONbits.DC1B = valDCL;
  1051     0D6F  1683               	bsf	3,5	;RP0=1, select bank1
  1052     0D70  1303               	bcf	3,6	;RP1=0, select bank1
  1053     0D71  082A               	movf	_valDCL^(0+128),w
  1054     0D72  1283               	bcf	3,5	;RP0=0, select bank0
  1055     0D73  1303               	bcf	3,6	;RP1=0, select bank0
  1056     0D74  00A0               	movwf	??_setupPWM
  1057     0D75  0EA0               	swapf	??_setupPWM,f
  1058     0D76  0817               	movf	23,w	;volatile
  1059     0D77  0620               	xorwf	??_setupPWM,w
  1060     0D78  39CF               	andlw	-49
  1061     0D79  0620               	xorwf	??_setupPWM,w
  1062     0D7A  0097               	movwf	23	;volatile
  1063     0D7B                     l1905:
  1064                           
  1065                           ;main.c: 170:     CCPR1L = valDCH ;
  1066     0D7B  1683               	bsf	3,5	;RP0=1, select bank1
  1067     0D7C  1303               	bcf	3,6	;RP1=0, select bank1
  1068     0D7D  0828               	movf	_valDCH^(0+128),w
  1069     0D7E  1283               	bcf	3,5	;RP0=0, select bank0
  1070     0D7F  1303               	bcf	3,6	;RP1=0, select bank0
  1071     0D80  0095               	movwf	21	;volatile
  1072     0D81                     l1907:
  1073                           
  1074                           ;main.c: 172:     TMR2IF = 0;
  1075     0D81  108C               	bcf	12,1	;volatile
  1076                           
  1077                           ;main.c: 173:     T2CONbits.T2CKPS = 0b11;
  1078     0D82  3003               	movlw	3
  1079     0D83  0492               	iorwf	18,f	;volatile
  1080     0D84                     l1909:
  1081                           
  1082                           ;main.c: 174:     TMR2ON = 1;
  1083     0D84  1512               	bsf	18,2	;volatile
  1084     0D85                     l126:	
  1085                           ;main.c: 176:     while(!TMR2IF);
  1086                           
  1087     0D85  1C8C               	btfss	12,1	;volatile
  1088     0D86  2D88               	goto	u2451
  1089     0D87  2D89               	goto	u2450
  1090     0D88                     u2451:
  1091     0D88  2D85               	goto	l126
  1092     0D89                     u2450:
  1093     0D89                     l128:
  1094                           
  1095                           ;main.c: 177:     TRISCbits.TRISC2 = 0;
  1096     0D89  1683               	bsf	3,5	;RP0=1, select bank1
  1097     0D8A  1303               	bcf	3,6	;RP1=0, select bank1
  1098     0D8B  1107               	bcf	7,2	;volatile
  1099     0D8C                     l129:
  1100     0D8C  0008               	return
  1101     0D8D                     __end_of_setupPWM:
  1102                           
  1103                           	psect	text5
  1104     07D5                     __ptext5:	
  1105 ;; *************** function _setupINTOSC *****************
  1106 ;; Defined at:
  1107 ;;		line 14 in file "oscilador.c"
  1108 ;; Parameters:    Size  Location     Type
  1109 ;;  IRCF            1    wreg     unsigned char 
  1110 ;; Auto vars:     Size  Location     Type
  1111 ;;  IRCF            1    0[BANK0 ] unsigned char 
  1112 ;; Return value:  Size  Location     Type
  1113 ;;                  1    wreg      void 
  1114 ;; Registers used:
  1115 ;;		wreg, status,2, status,0
  1116 ;; Tracked objects:
  1117 ;;		On entry : 0/0
  1118 ;;		On exit  : 0/0
  1119 ;;		Unchanged: 0/0
  1120 ;; Data sizes:     COMMON   BANK0   BANK1   BANK3   BANK2
  1121 ;;      Params:         0       0       0       0       0
  1122 ;;      Locals:         0       1       0       0       0
  1123 ;;      Temps:          0       0       0       0       0
  1124 ;;      Totals:         0       1       0       0       0
  1125 ;;Total ram usage:        1 bytes
  1126 ;; Hardware stack levels used: 1
  1127 ;; Hardware stack levels required when called: 1
  1128 ;; This function calls:
  1129 ;;		Nothing
  1130 ;; This function is called by:
  1131 ;;		_main
  1132 ;; This function uses a non-reentrant model
  1133 ;;
  1134                           
  1135     07D5                     _setupINTOSC:	
  1136                           ;psect for function _setupINTOSC
  1137                           
  1138                           
  1139                           ;incstack = 0
  1140                           ; Regs used in _setupINTOSC: [wreg+status,2+status,0]
  1141                           ;setupINTOSC@IRCF stored from wreg
  1142     07D5  1283               	bcf	3,5	;RP0=0, select bank0
  1143     07D6  1303               	bcf	3,6	;RP1=0, select bank0
  1144     07D7  00A0               	movwf	setupINTOSC@IRCF
  1145     07D8                     l1857:
  1146                           
  1147                           ;oscilador.c: 17:     if(IRCF == 7){
  1148     07D8  3007               	movlw	7
  1149     07D9  0620               	xorwf	setupINTOSC@IRCF,w
  1150     07DA  1D03               	btfss	3,2
  1151     07DB  2FDD               	goto	u2421
  1152     07DC  2FDE               	goto	u2420
  1153     07DD                     u2421:
  1154     07DD  2FE2               	goto	l170
  1155     07DE                     u2420:
  1156     07DE                     l1859:
  1157                           
  1158                           ;oscilador.c: 18:         OSCCONbits.IRCF = 0b111;
  1159     07DE  3070               	movlw	112
  1160     07DF  1683               	bsf	3,5	;RP0=1, select bank1
  1161     07E0  1303               	bcf	3,6	;RP1=0, select bank1
  1162     07E1  048F               	iorwf	15,f	;volatile
  1163     07E2                     l170:	
  1164                           ;oscilador.c: 19:     }
  1165                           
  1166                           
  1167                           ;oscilador.c: 20:     if(IRCF == 6){
  1168     07E2  3006               	movlw	6
  1169     07E3  1283               	bcf	3,5	;RP0=0, select bank0
  1170     07E4  0620               	xorwf	setupINTOSC@IRCF,w
  1171     07E5  1D03               	btfss	3,2
  1172     07E6  2FE8               	goto	u2431
  1173     07E7  2FE9               	goto	u2430
  1174     07E8                     u2431:
  1175     07E8  2FEF               	goto	l171
  1176     07E9                     u2430:
  1177     07E9                     l1861:
  1178                           
  1179                           ;oscilador.c: 21:         OSCCONbits.IRCF = 0b110;
  1180     07E9  1683               	bsf	3,5	;RP0=1, select bank1
  1181     07EA  1303               	bcf	3,6	;RP1=0, select bank1
  1182     07EB  080F               	movf	15,w	;volatile
  1183     07EC  398F               	andlw	-113
  1184     07ED  3860               	iorlw	96
  1185     07EE  008F               	movwf	15	;volatile
  1186     07EF                     l171:	
  1187                           ;oscilador.c: 22:     }
  1188                           
  1189                           
  1190                           ;oscilador.c: 23:     if(IRCF == 3){
  1191     07EF  3003               	movlw	3
  1192     07F0  1283               	bcf	3,5	;RP0=0, select bank0
  1193     07F1  0620               	xorwf	setupINTOSC@IRCF,w
  1194     07F2  1D03               	btfss	3,2
  1195     07F3  2FF5               	goto	u2441
  1196     07F4  2FF6               	goto	u2440
  1197     07F5                     u2441:
  1198     07F5  2FFC               	goto	l1865
  1199     07F6                     u2440:
  1200     07F6                     l1863:
  1201                           
  1202                           ;oscilador.c: 24:         OSCCONbits.IRCF = 0b011;
  1203     07F6  1683               	bsf	3,5	;RP0=1, select bank1
  1204     07F7  1303               	bcf	3,6	;RP1=0, select bank1
  1205     07F8  080F               	movf	15,w	;volatile
  1206     07F9  398F               	andlw	-113
  1207     07FA  3830               	iorlw	48
  1208     07FB  008F               	movwf	15	;volatile
  1209     07FC                     l1865:
  1210                           
  1211                           ;oscilador.c: 27:     OSCCONbits.SCS = 1;
  1212     07FC  1683               	bsf	3,5	;RP0=1, select bank1
  1213     07FD  1303               	bcf	3,6	;RP1=0, select bank1
  1214     07FE  140F               	bsf	15,0	;volatile
  1215     07FF                     l173:
  1216     07FF  0008               	return
  1217     0800                     __end_of_setupINTOSC:
  1218                           
  1219                           	psect	text6
  1220     0DB6                     __ptext6:	
  1221 ;; *************** function _setupADC *****************
  1222 ;; Defined at:
  1223 ;;		line 131 in file "main.c"
  1224 ;; Parameters:    Size  Location     Type
  1225 ;;		None
  1226 ;; Auto vars:     Size  Location     Type
  1227 ;;		None
  1228 ;; Return value:  Size  Location     Type
  1229 ;;                  1    wreg      void 
  1230 ;; Registers used:
  1231 ;;		wreg, status,2
  1232 ;; Tracked objects:
  1233 ;;		On entry : 0/0
  1234 ;;		On exit  : 0/0
  1235 ;;		Unchanged: 0/0
  1236 ;; Data sizes:     COMMON   BANK0   BANK1   BANK3   BANK2
  1237 ;;      Params:         0       0       0       0       0
  1238 ;;      Locals:         0       0       0       0       0
  1239 ;;      Temps:          0       1       0       0       0
  1240 ;;      Totals:         0       1       0       0       0
  1241 ;;Total ram usage:        1 bytes
  1242 ;; Hardware stack levels used: 1
  1243 ;; Hardware stack levels required when called: 1
  1244 ;; This function calls:
  1245 ;;		Nothing
  1246 ;; This function is called by:
  1247 ;;		_main
  1248 ;; This function uses a non-reentrant model
  1249 ;;
  1250                           
  1251     0DB6                     _setupADC:	
  1252                           ;psect for function _setupADC
  1253                           
  1254     0DB6                     l1867:	
  1255                           ;incstack = 0
  1256                           ; Regs used in _setupADC: [wreg+status,2]
  1257                           
  1258                           
  1259                           ;main.c: 134:     ANSELH = 0;
  1260     0DB6  1683               	bsf	3,5	;RP0=1, select bank3
  1261     0DB7  1703               	bsf	3,6	;RP1=1, select bank3
  1262     0DB8  0189               	clrf	9	;volatile
  1263     0DB9                     l1869:
  1264                           
  1265                           ;main.c: 135:     TRISAbits.TRISA0 = 1;
  1266     0DB9  1683               	bsf	3,5	;RP0=1, select bank1
  1267     0DBA  1303               	bcf	3,6	;RP1=0, select bank1
  1268     0DBB  1405               	bsf	5,0	;volatile
  1269     0DBC                     l1871:
  1270                           
  1271                           ;main.c: 136:     ANSELbits.ANS0 = 1;
  1272     0DBC  1683               	bsf	3,5	;RP0=1, select bank3
  1273     0DBD  1703               	bsf	3,6	;RP1=1, select bank3
  1274     0DBE  1408               	bsf	8,0	;volatile
  1275     0DBF                     l1873:
  1276                           
  1277                           ;main.c: 137:     TRISAbits.TRISA1 = 1;
  1278     0DBF  1683               	bsf	3,5	;RP0=1, select bank1
  1279     0DC0  1303               	bcf	3,6	;RP1=0, select bank1
  1280     0DC1  1485               	bsf	5,1	;volatile
  1281     0DC2                     l1875:
  1282                           
  1283                           ;main.c: 138:     ANSELbits.ANS1 = 1;
  1284     0DC2  1683               	bsf	3,5	;RP0=1, select bank3
  1285     0DC3  1703               	bsf	3,6	;RP1=1, select bank3
  1286     0DC4  1488               	bsf	8,1	;volatile
  1287     0DC5                     l1877:
  1288                           
  1289                           ;main.c: 139:     TRISAbits.TRISA2 = 1;
  1290     0DC5  1683               	bsf	3,5	;RP0=1, select bank1
  1291     0DC6  1303               	bcf	3,6	;RP1=0, select bank1
  1292     0DC7  1505               	bsf	5,2	;volatile
  1293     0DC8                     l1879:
  1294                           
  1295                           ;main.c: 140:     ANSELbits.ANS2 = 1;
  1296     0DC8  1683               	bsf	3,5	;RP0=1, select bank3
  1297     0DC9  1703               	bsf	3,6	;RP1=1, select bank3
  1298     0DCA  1508               	bsf	8,2	;volatile
  1299     0DCB                     l1881:
  1300                           
  1301                           ;main.c: 141:     TRISAbits.TRISA3 = 1;
  1302     0DCB  1683               	bsf	3,5	;RP0=1, select bank1
  1303     0DCC  1303               	bcf	3,6	;RP1=0, select bank1
  1304     0DCD  1585               	bsf	5,3	;volatile
  1305     0DCE                     l1883:
  1306                           
  1307                           ;main.c: 142:     ANSELbits.ANS3 = 1;
  1308     0DCE  1683               	bsf	3,5	;RP0=1, select bank3
  1309     0DCF  1703               	bsf	3,6	;RP1=1, select bank3
  1310     0DD0  1588               	bsf	8,3	;volatile
  1311     0DD1                     l1885:
  1312                           
  1313                           ;main.c: 147:     ADCON0bits.ADCS1 = 0;
  1314     0DD1  1283               	bcf	3,5	;RP0=0, select bank0
  1315     0DD2  1303               	bcf	3,6	;RP1=0, select bank0
  1316     0DD3  139F               	bcf	31,7	;volatile
  1317     0DD4                     l1887:
  1318                           
  1319                           ;main.c: 148:     ADCON0bits.ADCS0 = 1;
  1320     0DD4  171F               	bsf	31,6	;volatile
  1321     0DD5                     l1889:
  1322                           
  1323                           ;main.c: 150:     ADCON1bits.VCFG1 = 0;
  1324     0DD5  1683               	bsf	3,5	;RP0=1, select bank1
  1325     0DD6  1303               	bcf	3,6	;RP1=0, select bank1
  1326     0DD7  129F               	bcf	31,5	;volatile
  1327     0DD8                     l1891:
  1328                           
  1329                           ;main.c: 151:     ADCON1bits.VCFG0 = 0;
  1330     0DD8  121F               	bcf	31,4	;volatile
  1331     0DD9                     l1893:
  1332                           
  1333                           ;main.c: 153:     ADCON1bits.ADFM = 0;
  1334     0DD9  139F               	bcf	31,7	;volatile
  1335     0DDA                     l1895:
  1336                           
  1337                           ;main.c: 155:     ADCON0bits.ADON = 1;
  1338     0DDA  1283               	bcf	3,5	;RP0=0, select bank0
  1339     0DDB  1303               	bcf	3,6	;RP1=0, select bank0
  1340     0DDC  141F               	bsf	31,0	;volatile
  1341     0DDD                     l1897:
  1342                           
  1343                           ;main.c: 156:     _delay((unsigned long)((100)*(500000/4000000.0)));
  1344     0DDD  3003               	movlw	3
  1345     0DDE  1283               	bcf	3,5	;RP0=0, select bank0
  1346     0DDF  1303               	bcf	3,6	;RP1=0, select bank0
  1347     0DE0  00A0               	movwf	??_setupADC
  1348     0DE1                     u2587:
  1349     0DE1  0BA0               	decfsz	??_setupADC,f
  1350     0DE2  2DE1               	goto	u2587
  1351     0DE3                     l123:
  1352     0DE3  0008               	return
  1353     0DE4                     __end_of_setupADC:
  1354                           
  1355                           	psect	text7
  1356     0D15                     __ptext7:	
  1357 ;; *************** function _setup *****************
  1358 ;; Defined at:
  1359 ;;		line 112 in file "main.c"
  1360 ;; Parameters:    Size  Location     Type
  1361 ;;		None
  1362 ;; Auto vars:     Size  Location     Type
  1363 ;;		None
  1364 ;; Return value:  Size  Location     Type
  1365 ;;                  1    wreg      void 
  1366 ;; Registers used:
  1367 ;;		status,2
  1368 ;; Tracked objects:
  1369 ;;		On entry : 0/0
  1370 ;;		On exit  : 0/0
  1371 ;;		Unchanged: 0/0
  1372 ;; Data sizes:     COMMON   BANK0   BANK1   BANK3   BANK2
  1373 ;;      Params:         0       0       0       0       0
  1374 ;;      Locals:         0       0       0       0       0
  1375 ;;      Temps:          0       0       0       0       0
  1376 ;;      Totals:         0       0       0       0       0
  1377 ;;Total ram usage:        0 bytes
  1378 ;; Hardware stack levels used: 1
  1379 ;; Hardware stack levels required when called: 1
  1380 ;; This function calls:
  1381 ;;		Nothing
  1382 ;; This function is called by:
  1383 ;;		_main
  1384 ;; This function uses a non-reentrant model
  1385 ;;
  1386                           
  1387     0D15                     _setup:	
  1388                           ;psect for function _setup
  1389                           
  1390     0D15                     l1855:	
  1391                           ;incstack = 0
  1392                           ; Regs used in _setup: [status,2]
  1393                           
  1394                           
  1395                           ;main.c: 113:     ANSELH = 0;
  1396     0D15  1683               	bsf	3,5	;RP0=1, select bank3
  1397     0D16  1703               	bsf	3,6	;RP1=1, select bank3
  1398     0D17  0189               	clrf	9	;volatile
  1399                           
  1400                           ;main.c: 114:     PORTA = 0;
  1401     0D18  1283               	bcf	3,5	;RP0=0, select bank0
  1402     0D19  1303               	bcf	3,6	;RP1=0, select bank0
  1403     0D1A  0185               	clrf	5	;volatile
  1404                           
  1405                           ;main.c: 115:     PORTC = 0;
  1406     0D1B  0187               	clrf	7	;volatile
  1407                           
  1408                           ;main.c: 116:     PORTD = 0;
  1409     0D1C  0188               	clrf	8	;volatile
  1410                           
  1411                           ;main.c: 117:     TRISD = 0;
  1412     0D1D  1683               	bsf	3,5	;RP0=1, select bank1
  1413     0D1E  1303               	bcf	3,6	;RP1=0, select bank1
  1414     0D1F  0188               	clrf	8	;volatile
  1415                           
  1416                           ;main.c: 118:     TRISC = 0;
  1417     0D20  0187               	clrf	7	;volatile
  1418     0D21                     l120:
  1419     0D21  0008               	return
  1420     0D22                     __end_of_setup:
  1421                           
  1422                           	psect	text8
  1423     05C2                     __ptext8:	
  1424 ;; *************** function _controlmotores *****************
  1425 ;; Defined at:
  1426 ;;		line 255 in file "main.c"
  1427 ;; Parameters:    Size  Location     Type
  1428 ;;		None
  1429 ;; Auto vars:     Size  Location     Type
  1430 ;;		None
  1431 ;; Return value:  Size  Location     Type
  1432 ;;                  1    wreg      void 
  1433 ;; Registers used:
  1434 ;;		wreg, status,2, status,0, btemp+1, pclath, cstack
  1435 ;; Tracked objects:
  1436 ;;		On entry : 0/0
  1437 ;;		On exit  : 0/0
  1438 ;;		Unchanged: 0/0
  1439 ;; Data sizes:     COMMON   BANK0   BANK1   BANK3   BANK2
  1440 ;;      Params:         0       0       0       0       0
  1441 ;;      Locals:         0       0       0       0       0
  1442 ;;      Temps:          0       3       0       0       0
  1443 ;;      Totals:         0       3       0       0       0
  1444 ;;Total ram usage:        3 bytes
  1445 ;; Hardware stack levels used: 1
  1446 ;; Hardware stack levels required when called: 4
  1447 ;; This function calls:
  1448 ;;		_PWM1
  1449 ;;		_PWM2
  1450 ;;		_map
  1451 ;; This function is called by:
  1452 ;;		_main
  1453 ;; This function uses a non-reentrant model
  1454 ;;
  1455                           
  1456     05C2                     _controlmotores:	
  1457                           ;psect for function _controlmotores
  1458                           
  1459     05C2                     l1949:	
  1460                           ;incstack = 0
  1461                           ; Regs used in _controlmotores: [wreg+status,2+status,0+btemp+1+pclath+cstack]
  1462                           
  1463                           
  1464                           ;main.c: 258:     ADCON0bits.CHS = 0b0000;
  1465     05C2  30C3               	movlw	-61
  1466     05C3  1283               	bcf	3,5	;RP0=0, select bank0
  1467     05C4  1303               	bcf	3,6	;RP1=0, select bank0
  1468     05C5  059F               	andwf	31,f	;volatile
  1469     05C6                     l1951:
  1470                           
  1471                           ;main.c: 259:     _delay((unsigned long)((100)*(500000/4000000.0)));
  1472     05C6  3003               	movlw	3
  1473     05C7  1283               	bcf	3,5	;RP0=0, select bank0
  1474     05C8  1303               	bcf	3,6	;RP1=0, select bank0
  1475     05C9  00EB               	movwf	??_controlmotores
  1476     05CA                     u2597:
  1477     05CA  0BEB               	decfsz	??_controlmotores,f
  1478     05CB  2DCA               	goto	u2597
  1479     05CC                     l1953:
  1480                           
  1481                           ;main.c: 260:     ADCON0bits.GO = 1;
  1482     05CC  1283               	bcf	3,5	;RP0=0, select bank0
  1483     05CD  1303               	bcf	3,6	;RP1=0, select bank0
  1484     05CE  149F               	bsf	31,1	;volatile
  1485     05CF                     l153:	
  1486                           ;main.c: 262:     while(ADCON0bits.GO == 1);
  1487                           
  1488     05CF  189F               	btfsc	31,1	;volatile
  1489     05D0  2DD2               	goto	u2471
  1490     05D1  2DD3               	goto	u2470
  1491     05D2                     u2471:
  1492     05D2  2DCF               	goto	l153
  1493     05D3                     u2470:
  1494     05D3                     l155:
  1495                           
  1496                           ;main.c: 263:     ADIF = 0;
  1497     05D3  130C               	bcf	12,6	;volatile
  1498     05D4                     l1955:
  1499                           
  1500                           ;main.c: 264:     map();
  1501     05D4  120A  118A  2738  120A  118A  	fcall	_map
  1502     05D9                     l1957:
  1503                           
  1504                           ;main.c: 265:     CCP1CONbits.DC1B = valDCL;
  1505     05D9  1683               	bsf	3,5	;RP0=1, select bank1
  1506     05DA  1303               	bcf	3,6	;RP1=0, select bank1
  1507     05DB  082A               	movf	_valDCL^(0+128),w
  1508     05DC  1283               	bcf	3,5	;RP0=0, select bank0
  1509     05DD  1303               	bcf	3,6	;RP1=0, select bank0
  1510     05DE  00EB               	movwf	??_controlmotores
  1511     05DF  0EEB               	swapf	??_controlmotores,f
  1512     05E0  0817               	movf	23,w	;volatile
  1513     05E1  066B               	xorwf	??_controlmotores,w
  1514     05E2  39CF               	andlw	-49
  1515     05E3  066B               	xorwf	??_controlmotores,w
  1516     05E4  0097               	movwf	23	;volatile
  1517     05E5                     l1959:
  1518                           
  1519                           ;main.c: 266:     CCPR1L = valDCH;
  1520     05E5  1683               	bsf	3,5	;RP0=1, select bank1
  1521     05E6  1303               	bcf	3,6	;RP1=0, select bank1
  1522     05E7  0828               	movf	_valDCH^(0+128),w
  1523     05E8  1283               	bcf	3,5	;RP0=0, select bank0
  1524     05E9  1303               	bcf	3,6	;RP1=0, select bank0
  1525     05EA  0095               	movwf	21	;volatile
  1526     05EB                     l1961:
  1527                           
  1528                           ;main.c: 267:     _delay((unsigned long)((1)*(500000/4000.0)));
  1529     05EB  3028               	movlw	40
  1530     05EC  1283               	bcf	3,5	;RP0=0, select bank0
  1531     05ED  1303               	bcf	3,6	;RP1=0, select bank0
  1532     05EE  00EB               	movwf	??_controlmotores
  1533     05EF                     u2607:
  1534     05EF  0BEB               	decfsz	??_controlmotores,f
  1535     05F0  2DEF               	goto	u2607
  1536     05F1  2DF2               	nop2
  1537     05F2                     l1963:
  1538                           
  1539                           ;main.c: 271:     ADCON0bits.CHS = 0b0001;
  1540     05F2  1283               	bcf	3,5	;RP0=0, select bank0
  1541     05F3  1303               	bcf	3,6	;RP1=0, select bank0
  1542     05F4  081F               	movf	31,w	;volatile
  1543     05F5  39C3               	andlw	-61
  1544     05F6  3804               	iorlw	4
  1545     05F7  009F               	movwf	31	;volatile
  1546     05F8                     l1965:
  1547                           
  1548                           ;main.c: 272:     _delay((unsigned long)((100)*(500000/4000000.0)));
  1549     05F8  3003               	movlw	3
  1550     05F9  1283               	bcf	3,5	;RP0=0, select bank0
  1551     05FA  1303               	bcf	3,6	;RP1=0, select bank0
  1552     05FB  00EB               	movwf	??_controlmotores
  1553     05FC                     u2617:
  1554     05FC  0BEB               	decfsz	??_controlmotores,f
  1555     05FD  2DFC               	goto	u2617
  1556     05FE                     l1967:
  1557                           
  1558                           ;main.c: 273:     ADCON0bits.GO = 1;
  1559     05FE  1283               	bcf	3,5	;RP0=0, select bank0
  1560     05FF  1303               	bcf	3,6	;RP1=0, select bank0
  1561     0600  149F               	bsf	31,1	;volatile
  1562     0601                     l156:	
  1563                           ;main.c: 275:     while(ADCON0bits.GO == 1);
  1564                           
  1565     0601  189F               	btfsc	31,1	;volatile
  1566     0602  2E04               	goto	u2481
  1567     0603  2E05               	goto	u2480
  1568     0604                     u2481:
  1569     0604  2E01               	goto	l156
  1570     0605                     u2480:
  1571     0605                     l158:
  1572                           
  1573                           ;main.c: 276:     ADIF = 0;
  1574     0605  130C               	bcf	12,6	;volatile
  1575     0606                     l1969:
  1576                           
  1577                           ;main.c: 277:     map();
  1578     0606  120A  118A  2738  120A  118A  	fcall	_map
  1579     060B                     l1971:
  1580                           
  1581                           ;main.c: 278:     CCP2CONbits.DC2B0 = valDCL & 0x01;
  1582     060B  1683               	bsf	3,5	;RP0=1, select bank1
  1583     060C  1303               	bcf	3,6	;RP1=0, select bank1
  1584     060D  082A               	movf	_valDCL^(0+128),w
  1585     060E  3901               	andlw	1
  1586     060F  1283               	bcf	3,5	;RP0=0, select bank0
  1587     0610  1303               	bcf	3,6	;RP1=0, select bank0
  1588     0611  00EB               	movwf	??_controlmotores
  1589     0612  0EEB               	swapf	??_controlmotores,f
  1590     0613  081D               	movf	29,w	;volatile
  1591     0614  066B               	xorwf	??_controlmotores,w
  1592     0615  39EF               	andlw	-17
  1593     0616  066B               	xorwf	??_controlmotores,w
  1594     0617  009D               	movwf	29	;volatile
  1595     0618                     l1973:
  1596                           
  1597                           ;main.c: 279:     CCP2CONbits.DC2B1 = (valDCL & 0x02) >> 1;
  1598     0618  1683               	bsf	3,5	;RP0=1, select bank1
  1599     0619  1303               	bcf	3,6	;RP1=0, select bank1
  1600     061A  082B               	movf	(_valDCL+1)^(0+128),w
  1601     061B  1283               	bcf	3,5	;RP0=0, select bank0
  1602     061C  1303               	bcf	3,6	;RP1=0, select bank0
  1603     061D  00EC               	movwf	??_controlmotores+1
  1604     061E  1683               	bsf	3,5	;RP0=1, select bank1
  1605     061F  1303               	bcf	3,6	;RP1=0, select bank1
  1606     0620  082A               	movf	_valDCL^(0+128),w
  1607     0621  1283               	bcf	3,5	;RP0=0, select bank0
  1608     0622  1303               	bcf	3,6	;RP1=0, select bank0
  1609     0623  00EB               	movwf	??_controlmotores
  1610     0624  1003               	clrc
  1611     0625  0CEC               	rrf	??_controlmotores+1,f
  1612     0626  0CEB               	rrf	??_controlmotores,f
  1613     0627  086B               	movf	??_controlmotores,w
  1614     0628  3901               	andlw	1
  1615     0629  00ED               	movwf	??_controlmotores+2
  1616     062A  0EED               	swapf	??_controlmotores+2,f
  1617     062B  0DED               	rlf	??_controlmotores+2,f
  1618     062C  081D               	movf	29,w	;volatile
  1619     062D  066D               	xorwf	??_controlmotores+2,w
  1620     062E  39DF               	andlw	-33
  1621     062F  066D               	xorwf	??_controlmotores+2,w
  1622     0630  009D               	movwf	29	;volatile
  1623     0631                     l1975:
  1624                           
  1625                           ;main.c: 280:     CCPR2L = valDCH;
  1626     0631  1683               	bsf	3,5	;RP0=1, select bank1
  1627     0632  1303               	bcf	3,6	;RP1=0, select bank1
  1628     0633  0828               	movf	_valDCH^(0+128),w
  1629     0634  1283               	bcf	3,5	;RP0=0, select bank0
  1630     0635  1303               	bcf	3,6	;RP1=0, select bank0
  1631     0636  009B               	movwf	27	;volatile
  1632     0637                     l1977:
  1633                           
  1634                           ;main.c: 281:     _delay((unsigned long)((1)*(500000/4000.0)));
  1635     0637  3028               	movlw	40
  1636     0638  1283               	bcf	3,5	;RP0=0, select bank0
  1637     0639  1303               	bcf	3,6	;RP1=0, select bank0
  1638     063A  00EB               	movwf	??_controlmotores
  1639     063B                     u2627:
  1640     063B  0BEB               	decfsz	??_controlmotores,f
  1641     063C  2E3B               	goto	u2627
  1642     063D  2E3E               	nop2
  1643     063E                     l1979:
  1644                           
  1645                           ;main.c: 285:     ADCON0bits.CHS = 0b0010;
  1646     063E  1283               	bcf	3,5	;RP0=0, select bank0
  1647     063F  1303               	bcf	3,6	;RP1=0, select bank0
  1648     0640  081F               	movf	31,w	;volatile
  1649     0641  39C3               	andlw	-61
  1650     0642  3808               	iorlw	8
  1651     0643  009F               	movwf	31	;volatile
  1652     0644                     l1981:
  1653                           
  1654                           ;main.c: 286:     _delay((unsigned long)((100)*(500000/4000000.0)));
  1655     0644  3003               	movlw	3
  1656     0645  1283               	bcf	3,5	;RP0=0, select bank0
  1657     0646  1303               	bcf	3,6	;RP1=0, select bank0
  1658     0647  00EB               	movwf	??_controlmotores
  1659     0648                     u2637:
  1660     0648  0BEB               	decfsz	??_controlmotores,f
  1661     0649  2E48               	goto	u2637
  1662     064A                     l1983:
  1663                           
  1664                           ;main.c: 287:     ADCON0bits.GO = 1;
  1665     064A  1283               	bcf	3,5	;RP0=0, select bank0
  1666     064B  1303               	bcf	3,6	;RP1=0, select bank0
  1667     064C  149F               	bsf	31,1	;volatile
  1668     064D                     l159:	
  1669                           ;main.c: 289:     while(ADCON0bits.GO == 1);
  1670                           
  1671     064D  189F               	btfsc	31,1	;volatile
  1672     064E  2E50               	goto	u2491
  1673     064F  2E51               	goto	u2490
  1674     0650                     u2491:
  1675     0650  2E4D               	goto	l159
  1676     0651                     u2490:
  1677     0651                     l161:
  1678                           
  1679                           ;main.c: 290:     ADIF = 0;
  1680     0651  130C               	bcf	12,6	;volatile
  1681     0652                     l1985:
  1682                           
  1683                           ;main.c: 291:     PWM1();
  1684     0652  120A  158A  2696  120A  118A  	fcall	_PWM1
  1685     0657                     l1987:
  1686                           
  1687                           ;main.c: 292:     _delay((unsigned long)((1)*(500000/4000.0)));
  1688     0657  3028               	movlw	40
  1689     0658  1283               	bcf	3,5	;RP0=0, select bank0
  1690     0659  1303               	bcf	3,6	;RP1=0, select bank0
  1691     065A  00EB               	movwf	??_controlmotores
  1692     065B                     u2647:
  1693     065B  0BEB               	decfsz	??_controlmotores,f
  1694     065C  2E5B               	goto	u2647
  1695     065D  2E5E               	nop2
  1696     065E                     l1989:
  1697                           
  1698                           ;main.c: 294:     ADCON0bits.CHS = 0b0011;
  1699     065E  1283               	bcf	3,5	;RP0=0, select bank0
  1700     065F  1303               	bcf	3,6	;RP1=0, select bank0
  1701     0660  081F               	movf	31,w	;volatile
  1702     0661  39C3               	andlw	-61
  1703     0662  380C               	iorlw	12
  1704     0663  009F               	movwf	31	;volatile
  1705     0664                     l1991:
  1706                           
  1707                           ;main.c: 295:     _delay((unsigned long)((100)*(500000/4000000.0)));
  1708     0664  3003               	movlw	3
  1709     0665  1283               	bcf	3,5	;RP0=0, select bank0
  1710     0666  1303               	bcf	3,6	;RP1=0, select bank0
  1711     0667  00EB               	movwf	??_controlmotores
  1712     0668                     u2657:
  1713     0668  0BEB               	decfsz	??_controlmotores,f
  1714     0669  2E68               	goto	u2657
  1715     066A                     l1993:
  1716                           
  1717                           ;main.c: 296:     ADCON0bits.GO = 1;
  1718     066A  1283               	bcf	3,5	;RP0=0, select bank0
  1719     066B  1303               	bcf	3,6	;RP1=0, select bank0
  1720     066C  149F               	bsf	31,1	;volatile
  1721     066D                     l162:	
  1722                           ;main.c: 299:     }
  1723                           
  1724                           
  1725                           ;main.c: 297:     while(ADCON0bits.GO == 1){
  1726     066D  189F               	btfsc	31,1	;volatile
  1727     066E  2E70               	goto	u2501
  1728     066F  2E71               	goto	u2500
  1729     0670                     u2501:
  1730     0670  2E6D               	goto	l162
  1731     0671                     u2500:
  1732     0671                     l1995:
  1733                           
  1734                           ;main.c: 300:     PWM2();
  1735     0671  120A  158A  2785  120A  118A  	fcall	_PWM2
  1736     0676                     l1997:
  1737                           
  1738                           ;main.c: 301:     _delay((unsigned long)((1)*(500000/4000.0)));
  1739     0676  3028               	movlw	40
  1740     0677  1283               	bcf	3,5	;RP0=0, select bank0
  1741     0678  1303               	bcf	3,6	;RP1=0, select bank0
  1742     0679  00EB               	movwf	??_controlmotores
  1743     067A                     u2667:
  1744     067A  0BEB               	decfsz	??_controlmotores,f
  1745     067B  2E7A               	goto	u2667
  1746     067C  2E7D               	nop2
  1747     067D                     l165:
  1748     067D  0008               	return
  1749     067E                     __end_of_controlmotores:
  1750                           
  1751                           	psect	text9
  1752     0738                     __ptext9:	
  1753 ;; *************** function _map *****************
  1754 ;; Defined at:
  1755 ;;		line 246 in file "main.c"
  1756 ;; Parameters:    Size  Location     Type
  1757 ;;		None
  1758 ;; Auto vars:     Size  Location     Type
  1759 ;;		None
  1760 ;; Return value:  Size  Location     Type
  1761 ;;                  1    wreg      void 
  1762 ;; Registers used:
  1763 ;;		wreg, status,2, status,0, btemp+1, pclath, cstack
  1764 ;; Tracked objects:
  1765 ;;		On entry : 0/0
  1766 ;;		On exit  : 0/0
  1767 ;;		Unchanged: 0/0
  1768 ;; Data sizes:     COMMON   BANK0   BANK1   BANK3   BANK2
  1769 ;;      Params:         0       0       0       0       0
  1770 ;;      Locals:         0       0       0       0       0
  1771 ;;      Temps:          0       5       0       0       0
  1772 ;;      Totals:         0       5       0       0       0
  1773 ;;Total ram usage:        5 bytes
  1774 ;; Hardware stack levels used: 1
  1775 ;; Hardware stack levels required when called: 3
  1776 ;; This function calls:
  1777 ;;		___fladd
  1778 ;;		___flmul
  1779 ;;		___fltol
  1780 ;;		___xxtofl
  1781 ;; This function is called by:
  1782 ;;		_controlmotores
  1783 ;; This function uses a non-reentrant model
  1784 ;;
  1785                           
  1786     0738                     _map:	
  1787                           ;psect for function _map
  1788                           
  1789     0738                     l1847:	
  1790                           ;incstack = 0
  1791                           ; Regs used in _map: [wreg+status,2+status,0+btemp+1+pclath+cstack]
  1792                           
  1793                           
  1794                           ;main.c: 247:     ADC_RES = ((ADRESH<<2)+(ADRESL>>6));
  1795     0738  1683               	bsf	3,5	;RP0=1, select bank1
  1796     0739  1303               	bcf	3,6	;RP1=0, select bank1
  1797     073A  081E               	movf	30,w	;volatile
  1798     073B  1283               	bcf	3,5	;RP0=0, select bank0
  1799     073C  1303               	bcf	3,6	;RP1=0, select bank0
  1800     073D  00E6               	movwf	??_map
  1801     073E  3006               	movlw	6
  1802     073F                     u2415:
  1803     073F  1003               	clrc
  1804     0740  0CE6               	rrf	??_map,f
  1805     0741  3EFF               	addlw	-1
  1806     0742  1D03               	skipz
  1807     0743  2F3F               	goto	u2415
  1808     0744  081E               	movf	30,w	;volatile
  1809     0745  00E7               	movwf	??_map+1
  1810     0746  01E8               	clrf	??_map+2
  1811     0747  1003               	clrc
  1812     0748  0DE7               	rlf	??_map+1,f
  1813     0749  0DE8               	rlf	??_map+2,f
  1814     074A  1003               	clrc
  1815     074B  0DE7               	rlf	??_map+1,f
  1816     074C  0DE8               	rlf	??_map+2,f
  1817     074D  0866               	movf	??_map,w
  1818     074E  0767               	addwf	??_map+1,w
  1819     074F  00E9               	movwf	??_map+3
  1820     0750  3000               	movlw	0
  1821     0751  1803               	skipnc
  1822     0752  3001               	movlw	1
  1823     0753  0768               	addwf	??_map+2,w
  1824     0754  00EA               	movwf	??_map+4
  1825     0755  0869               	movf	??_map+3,w
  1826     0756  1683               	bsf	3,5	;RP0=1, select bank1
  1827     0757  1303               	bcf	3,6	;RP1=0, select bank1
  1828     0758  00AC               	movwf	_ADC_RES^(0+128)
  1829     0759  1283               	bcf	3,5	;RP0=0, select bank0
  1830     075A  1303               	bcf	3,6	;RP1=0, select bank0
  1831     075B  086A               	movf	??_map+4,w
  1832     075C  1683               	bsf	3,5	;RP0=1, select bank1
  1833     075D  1303               	bcf	3,6	;RP1=0, select bank1
  1834     075E  00AD               	movwf	(_ADC_RES+1)^(0+128)
  1835     075F                     l1849:
  1836                           
  1837                           ;main.c: 248:     valDC = (0.033*ADC_RES+32);
  1838     075F  082C               	movf	_ADC_RES^(0+128),w
  1839     0760  1283               	bcf	3,5	;RP0=0, select bank0
  1840     0761  1303               	bcf	3,6	;RP1=0, select bank0
  1841     0762  00A0               	movwf	___xxtofl@val
  1842     0763  1683               	bsf	3,5	;RP0=1, select bank1
  1843     0764  1303               	bcf	3,6	;RP1=0, select bank1
  1844     0765  082D               	movf	(_ADC_RES+1)^(0+128),w
  1845     0766  1283               	bcf	3,5	;RP0=0, select bank0
  1846     0767  1303               	bcf	3,6	;RP1=0, select bank0
  1847     0768  00A1               	movwf	___xxtofl@val+1
  1848     0769  01A2               	clrf	___xxtofl@val+2
  1849     076A  01A3               	clrf	___xxtofl@val+3
  1850     076B  3000               	movlw	0
  1851     076C  120A  118A  267E  120A  118A  	fcall	___xxtofl
  1852     0771  1283               	bcf	3,5	;RP0=0, select bank0
  1853     0772  1303               	bcf	3,6	;RP1=0, select bank0
  1854     0773  0823               	movf	?___xxtofl+3,w
  1855     0774  00B5               	movwf	___flmul@a+3
  1856     0775  0822               	movf	?___xxtofl+2,w
  1857     0776  00B4               	movwf	___flmul@a+2
  1858     0777  0821               	movf	?___xxtofl+1,w
  1859     0778  00B3               	movwf	___flmul@a+1
  1860     0779  0820               	movf	?___xxtofl,w
  1861     077A  00B2               	movwf	___flmul@a
  1862     077B  303D               	movlw	61
  1863     077C  00B1               	movwf	___flmul@b+3
  1864     077D  3007               	movlw	7
  1865     077E  00B0               	movwf	___flmul@b+2
  1866     077F  302B               	movlw	43
  1867     0780  00AF               	movwf	___flmul@b+1
  1868     0781  3002               	movlw	2
  1869     0782  00AE               	movwf	___flmul@b
  1870     0783  120A  118A  2025  120A  118A  	fcall	___flmul
  1871     0788  1283               	bcf	3,5	;RP0=0, select bank0
  1872     0789  1303               	bcf	3,6	;RP1=0, select bank0
  1873     078A  0831               	movf	?___flmul+3,w
  1874     078B  00CF               	movwf	___fladd@a+3
  1875     078C  0830               	movf	?___flmul+2,w
  1876     078D  00CE               	movwf	___fladd@a+2
  1877     078E  082F               	movf	?___flmul+1,w
  1878     078F  00CD               	movwf	___fladd@a+1
  1879     0790  082E               	movf	?___flmul,w
  1880     0791  00CC               	movwf	___fladd@a
  1881     0792  3042               	movlw	66
  1882     0793  00CB               	movwf	___fladd@b+3
  1883     0794  3000               	movlw	0
  1884     0795  00CA               	movwf	___fladd@b+2
  1885     0796  3000               	movlw	0
  1886     0797  00C9               	movwf	___fladd@b+1
  1887     0798  3000               	movlw	0
  1888     0799  00C8               	movwf	___fladd@b
  1889     079A  120A  118A  236A  120A  118A  	fcall	___fladd
  1890     079F  1283               	bcf	3,5	;RP0=0, select bank0
  1891     07A0  1303               	bcf	3,6	;RP1=0, select bank0
  1892     07A1  084B               	movf	?___fladd+3,w
  1893     07A2  00DF               	movwf	___fltol@f1+3
  1894     07A3  084A               	movf	?___fladd+2,w
  1895     07A4  00DE               	movwf	___fltol@f1+2
  1896     07A5  0849               	movf	?___fladd+1,w
  1897     07A6  00DD               	movwf	___fltol@f1+1
  1898     07A7  0848               	movf	?___fladd,w
  1899     07A8  00DC               	movwf	___fltol@f1
  1900     07A9  120A  158A  270D  120A  118A  	fcall	___fltol
  1901     07AE  1283               	bcf	3,5	;RP0=0, select bank0
  1902     07AF  1303               	bcf	3,6	;RP1=0, select bank0
  1903     07B0  085D               	movf	?___fltol+1,w
  1904     07B1  00FC               	movwf	_valDC+1
  1905     07B2  085C               	movf	?___fltol,w
  1906     07B3  00FB               	movwf	_valDC
  1907     07B4                     l1851:
  1908                           
  1909                           ;main.c: 249:     valDCL = valDC & 0x003;
  1910     07B4  3003               	movlw	3
  1911     07B5  057B               	andwf	_valDC,w
  1912     07B6  1683               	bsf	3,5	;RP0=1, select bank1
  1913     07B7  1303               	bcf	3,6	;RP1=0, select bank1
  1914     07B8  00AA               	movwf	_valDCL^(0+128)
  1915     07B9  3000               	movlw	0
  1916     07BA  057C               	andwf	_valDC+1,w
  1917     07BB  00AB               	movwf	(_valDCL+1)^(0+128)
  1918     07BC                     l1853:
  1919                           
  1920                           ;main.c: 250:     valDCH = (valDC & 0x3FC) >> 2;
  1921     07BC  087C               	movf	_valDC+1,w
  1922     07BD  1283               	bcf	3,5	;RP0=0, select bank0
  1923     07BE  1303               	bcf	3,6	;RP1=0, select bank0
  1924     07BF  00E7               	movwf	??_map+1
  1925     07C0  087B               	movf	_valDC,w
  1926     07C1  00E6               	movwf	??_map
  1927     07C2  1003               	clrc
  1928     07C3  0CE7               	rrf	??_map+1,f
  1929     07C4  0CE6               	rrf	??_map,f
  1930     07C5  1003               	clrc
  1931     07C6  0CE7               	rrf	??_map+1,f
  1932     07C7  0CE6               	rrf	??_map,f
  1933     07C8  30FF               	movlw	255
  1934     07C9  0566               	andwf	??_map,w
  1935     07CA  1683               	bsf	3,5	;RP0=1, select bank1
  1936     07CB  1303               	bcf	3,6	;RP1=0, select bank1
  1937     07CC  00A8               	movwf	_valDCH^(0+128)
  1938     07CD  3000               	movlw	0
  1939     07CE  1283               	bcf	3,5	;RP0=0, select bank0
  1940     07CF  1303               	bcf	3,6	;RP1=0, select bank0
  1941     07D0  0567               	andwf	??_map+1,w
  1942     07D1  1683               	bsf	3,5	;RP0=1, select bank1
  1943     07D2  1303               	bcf	3,6	;RP1=0, select bank1
  1944     07D3  00A9               	movwf	(_valDCH+1)^(0+128)
  1945     07D4                     l150:
  1946     07D4  0008               	return
  1947     07D5                     __end_of_map:
  1948                           
  1949                           	psect	text10
  1950     0F85                     __ptext10:	
  1951 ;; *************** function _PWM2 *****************
  1952 ;; Defined at:
  1953 ;;		line 236 in file "main.c"
  1954 ;; Parameters:    Size  Location     Type
  1955 ;;		None
  1956 ;; Auto vars:     Size  Location     Type
  1957 ;;		None
  1958 ;; Return value:  Size  Location     Type
  1959 ;;                  1    wreg      void 
  1960 ;; Registers used:
  1961 ;;		wreg, status,2, status,0, btemp+1, pclath, cstack
  1962 ;; Tracked objects:
  1963 ;;		On entry : 0/0
  1964 ;;		On exit  : 0/0
  1965 ;;		Unchanged: 0/0
  1966 ;; Data sizes:     COMMON   BANK0   BANK1   BANK3   BANK2
  1967 ;;      Params:         0       0       0       0       0
  1968 ;;      Locals:         0       0       0       0       0
  1969 ;;      Temps:          0       5       0       0       0
  1970 ;;      Totals:         0       5       0       0       0
  1971 ;;Total ram usage:        5 bytes
  1972 ;; Hardware stack levels used: 1
  1973 ;; Hardware stack levels required when called: 3
  1974 ;; This function calls:
  1975 ;;		___fladd
  1976 ;;		___flmul
  1977 ;;		___fltol
  1978 ;;		___xxtofl
  1979 ;; This function is called by:
  1980 ;;		_controlmotores
  1981 ;; This function uses a non-reentrant model
  1982 ;;
  1983                           
  1984     0F85                     _PWM2:	
  1985                           ;psect for function _PWM2
  1986                           
  1987     0F85                     l1841:	
  1988                           ;incstack = 0
  1989                           ; Regs used in _PWM2: [wreg+status,2+status,0+btemp+1+pclath+cstack]
  1990                           
  1991                           
  1992                           ;main.c: 237:     valDC = ((ADRESH << 2) + (ADRESL >> 6));
  1993     0F85  1683               	bsf	3,5	;RP0=1, select bank1
  1994     0F86  1303               	bcf	3,6	;RP1=0, select bank1
  1995     0F87  081E               	movf	30,w	;volatile
  1996     0F88  1283               	bcf	3,5	;RP0=0, select bank0
  1997     0F89  1303               	bcf	3,6	;RP1=0, select bank0
  1998     0F8A  00E6               	movwf	??_PWM2
  1999     0F8B  3006               	movlw	6
  2000     0F8C                     u2405:
  2001     0F8C  1003               	clrc
  2002     0F8D  0CE6               	rrf	??_PWM2,f
  2003     0F8E  3EFF               	addlw	-1
  2004     0F8F  1D03               	skipz
  2005     0F90  2F8C               	goto	u2405
  2006     0F91  081E               	movf	30,w	;volatile
  2007     0F92  00E7               	movwf	??_PWM2+1
  2008     0F93  01E8               	clrf	??_PWM2+2
  2009     0F94  1003               	clrc
  2010     0F95  0DE7               	rlf	??_PWM2+1,f
  2011     0F96  0DE8               	rlf	??_PWM2+2,f
  2012     0F97  1003               	clrc
  2013     0F98  0DE7               	rlf	??_PWM2+1,f
  2014     0F99  0DE8               	rlf	??_PWM2+2,f
  2015     0F9A  0866               	movf	??_PWM2,w
  2016     0F9B  0767               	addwf	??_PWM2+1,w
  2017     0F9C  00E9               	movwf	??_PWM2+3
  2018     0F9D  3000               	movlw	0
  2019     0F9E  1803               	skipnc
  2020     0F9F  3001               	movlw	1
  2021     0FA0  0768               	addwf	??_PWM2+2,w
  2022     0FA1  00EA               	movwf	??_PWM2+4
  2023     0FA2  0869               	movf	??_PWM2+3,w
  2024     0FA3  00FB               	movwf	_valDC
  2025     0FA4  086A               	movf	??_PWM2+4,w
  2026     0FA5  00FC               	movwf	_valDC+1
  2027     0FA6                     l1843:
  2028                           
  2029                           ;main.c: 238:     pulso2 = (2.43108*valDC + 63036);
  2030     0FA6  087B               	movf	_valDC,w
  2031     0FA7  00A0               	movwf	___xxtofl@val
  2032     0FA8  087C               	movf	_valDC+1,w
  2033     0FA9  00A1               	movwf	___xxtofl@val+1
  2034     0FAA  01A2               	clrf	___xxtofl@val+2
  2035     0FAB  01A3               	clrf	___xxtofl@val+3
  2036     0FAC  3000               	movlw	0
  2037     0FAD  120A  118A  267E  120A  158A  	fcall	___xxtofl
  2038     0FB2  1283               	bcf	3,5	;RP0=0, select bank0
  2039     0FB3  1303               	bcf	3,6	;RP1=0, select bank0
  2040     0FB4  0823               	movf	?___xxtofl+3,w
  2041     0FB5  00B5               	movwf	___flmul@a+3
  2042     0FB6  0822               	movf	?___xxtofl+2,w
  2043     0FB7  00B4               	movwf	___flmul@a+2
  2044     0FB8  0821               	movf	?___xxtofl+1,w
  2045     0FB9  00B3               	movwf	___flmul@a+1
  2046     0FBA  0820               	movf	?___xxtofl,w
  2047     0FBB  00B2               	movwf	___flmul@a
  2048     0FBC  3040               	movlw	64
  2049     0FBD  00B1               	movwf	___flmul@b+3
  2050     0FBE  301B               	movlw	27
  2051     0FBF  00B0               	movwf	___flmul@b+2
  2052     0FC0  3096               	movlw	150
  2053     0FC1  00AF               	movwf	___flmul@b+1
  2054     0FC2  30D1               	movlw	209
  2055     0FC3  00AE               	movwf	___flmul@b
  2056     0FC4  120A  118A  2025  120A  158A  	fcall	___flmul
  2057     0FC9  1283               	bcf	3,5	;RP0=0, select bank0
  2058     0FCA  1303               	bcf	3,6	;RP1=0, select bank0
  2059     0FCB  0831               	movf	?___flmul+3,w
  2060     0FCC  00CF               	movwf	___fladd@a+3
  2061     0FCD  0830               	movf	?___flmul+2,w
  2062     0FCE  00CE               	movwf	___fladd@a+2
  2063     0FCF  082F               	movf	?___flmul+1,w
  2064     0FD0  00CD               	movwf	___fladd@a+1
  2065     0FD1  082E               	movf	?___flmul,w
  2066     0FD2  00CC               	movwf	___fladd@a
  2067     0FD3  3047               	movlw	71
  2068     0FD4  00CB               	movwf	___fladd@b+3
  2069     0FD5  3076               	movlw	118
  2070     0FD6  00CA               	movwf	___fladd@b+2
  2071     0FD7  303C               	movlw	60
  2072     0FD8  00C9               	movwf	___fladd@b+1
  2073     0FD9  3000               	movlw	0
  2074     0FDA  00C8               	movwf	___fladd@b
  2075     0FDB  120A  118A  236A  120A  158A  	fcall	___fladd
  2076     0FE0  1283               	bcf	3,5	;RP0=0, select bank0
  2077     0FE1  1303               	bcf	3,6	;RP1=0, select bank0
  2078     0FE2  084B               	movf	?___fladd+3,w
  2079     0FE3  00DF               	movwf	___fltol@f1+3
  2080     0FE4  084A               	movf	?___fladd+2,w
  2081     0FE5  00DE               	movwf	___fltol@f1+2
  2082     0FE6  0849               	movf	?___fladd+1,w
  2083     0FE7  00DD               	movwf	___fltol@f1+1
  2084     0FE8  0848               	movf	?___fladd,w
  2085     0FE9  00DC               	movwf	___fltol@f1
  2086     0FEA  120A  158A  270D  120A  158A  	fcall	___fltol
  2087     0FEF  1283               	bcf	3,5	;RP0=0, select bank0
  2088     0FF0  1303               	bcf	3,6	;RP1=0, select bank0
  2089     0FF1  085D               	movf	?___fltol+1,w
  2090     0FF2  1683               	bsf	3,5	;RP0=1, select bank1
  2091     0FF3  1303               	bcf	3,6	;RP1=0, select bank1
  2092     0FF4  00A1               	movwf	(_pulso2+1)^(0+128)
  2093     0FF5  1283               	bcf	3,5	;RP0=0, select bank0
  2094     0FF6  1303               	bcf	3,6	;RP1=0, select bank0
  2095     0FF7  085C               	movf	?___fltol,w
  2096     0FF8  1683               	bsf	3,5	;RP0=1, select bank1
  2097     0FF9  1303               	bcf	3,6	;RP1=0, select bank1
  2098     0FFA  00A0               	movwf	_pulso2^(0+128)
  2099     0FFB                     l1845:
  2100                           
  2101                           ;main.c: 239:     PORTD = valDC;
  2102     0FFB  087B               	movf	_valDC,w
  2103     0FFC  1283               	bcf	3,5	;RP0=0, select bank0
  2104     0FFD  1303               	bcf	3,6	;RP1=0, select bank0
  2105     0FFE  0088               	movwf	8	;volatile
  2106     0FFF                     l147:
  2107     0FFF  0008               	return
  2108     1000                     __end_of_PWM2:
  2109                           
  2110                           	psect	text11
  2111     0E96                     __ptext11:	
  2112 ;; *************** function _PWM1 *****************
  2113 ;; Defined at:
  2114 ;;		line 229 in file "main.c"
  2115 ;; Parameters:    Size  Location     Type
  2116 ;;		None
  2117 ;; Auto vars:     Size  Location     Type
  2118 ;;		None
  2119 ;; Return value:  Size  Location     Type
  2120 ;;                  1    wreg      void 
  2121 ;; Registers used:
  2122 ;;		wreg, status,2, status,0, btemp+1, pclath, cstack
  2123 ;; Tracked objects:
  2124 ;;		On entry : 0/0
  2125 ;;		On exit  : 0/0
  2126 ;;		Unchanged: 0/0
  2127 ;; Data sizes:     COMMON   BANK0   BANK1   BANK3   BANK2
  2128 ;;      Params:         0       0       0       0       0
  2129 ;;      Locals:         0       0       0       0       0
  2130 ;;      Temps:          0       5       0       0       0
  2131 ;;      Totals:         0       5       0       0       0
  2132 ;;Total ram usage:        5 bytes
  2133 ;; Hardware stack levels used: 1
  2134 ;; Hardware stack levels required when called: 3
  2135 ;; This function calls:
  2136 ;;		___fladd
  2137 ;;		___flmul
  2138 ;;		___fltol
  2139 ;;		___xxtofl
  2140 ;; This function is called by:
  2141 ;;		_controlmotores
  2142 ;; This function uses a non-reentrant model
  2143 ;;
  2144                           
  2145     0E96                     _PWM1:	
  2146                           ;psect for function _PWM1
  2147                           
  2148     0E96                     l1837:	
  2149                           ;incstack = 0
  2150                           ; Regs used in _PWM1: [wreg+status,2+status,0+btemp+1+pclath+cstack]
  2151                           
  2152                           
  2153                           ;main.c: 230:     valDC = ((ADRESH << 2) + (ADRESL >> 6));
  2154     0E96  1683               	bsf	3,5	;RP0=1, select bank1
  2155     0E97  1303               	bcf	3,6	;RP1=0, select bank1
  2156     0E98  081E               	movf	30,w	;volatile
  2157     0E99  1283               	bcf	3,5	;RP0=0, select bank0
  2158     0E9A  1303               	bcf	3,6	;RP1=0, select bank0
  2159     0E9B  00E6               	movwf	??_PWM1
  2160     0E9C  3006               	movlw	6
  2161     0E9D                     u2395:
  2162     0E9D  1003               	clrc
  2163     0E9E  0CE6               	rrf	??_PWM1,f
  2164     0E9F  3EFF               	addlw	-1
  2165     0EA0  1D03               	skipz
  2166     0EA1  2E9D               	goto	u2395
  2167     0EA2  081E               	movf	30,w	;volatile
  2168     0EA3  00E7               	movwf	??_PWM1+1
  2169     0EA4  01E8               	clrf	??_PWM1+2
  2170     0EA5  1003               	clrc
  2171     0EA6  0DE7               	rlf	??_PWM1+1,f
  2172     0EA7  0DE8               	rlf	??_PWM1+2,f
  2173     0EA8  1003               	clrc
  2174     0EA9  0DE7               	rlf	??_PWM1+1,f
  2175     0EAA  0DE8               	rlf	??_PWM1+2,f
  2176     0EAB  0866               	movf	??_PWM1,w
  2177     0EAC  0767               	addwf	??_PWM1+1,w
  2178     0EAD  00E9               	movwf	??_PWM1+3
  2179     0EAE  3000               	movlw	0
  2180     0EAF  1803               	skipnc
  2181     0EB0  3001               	movlw	1
  2182     0EB1  0768               	addwf	??_PWM1+2,w
  2183     0EB2  00EA               	movwf	??_PWM1+4
  2184     0EB3  0869               	movf	??_PWM1+3,w
  2185     0EB4  00FB               	movwf	_valDC
  2186     0EB5  086A               	movf	??_PWM1+4,w
  2187     0EB6  00FC               	movwf	_valDC+1
  2188     0EB7                     l1839:
  2189                           
  2190                           ;main.c: 231:     pulso = (0.1524*valDC + 99);
  2191     0EB7  087B               	movf	_valDC,w
  2192     0EB8  00A0               	movwf	___xxtofl@val
  2193     0EB9  087C               	movf	_valDC+1,w
  2194     0EBA  00A1               	movwf	___xxtofl@val+1
  2195     0EBB  01A2               	clrf	___xxtofl@val+2
  2196     0EBC  01A3               	clrf	___xxtofl@val+3
  2197     0EBD  3000               	movlw	0
  2198     0EBE  120A  118A  267E  120A  158A  	fcall	___xxtofl
  2199     0EC3  1283               	bcf	3,5	;RP0=0, select bank0
  2200     0EC4  1303               	bcf	3,6	;RP1=0, select bank0
  2201     0EC5  0823               	movf	?___xxtofl+3,w
  2202     0EC6  00B5               	movwf	___flmul@a+3
  2203     0EC7  0822               	movf	?___xxtofl+2,w
  2204     0EC8  00B4               	movwf	___flmul@a+2
  2205     0EC9  0821               	movf	?___xxtofl+1,w
  2206     0ECA  00B3               	movwf	___flmul@a+1
  2207     0ECB  0820               	movf	?___xxtofl,w
  2208     0ECC  00B2               	movwf	___flmul@a
  2209     0ECD  303E               	movlw	62
  2210     0ECE  00B1               	movwf	___flmul@b+3
  2211     0ECF  301C               	movlw	28
  2212     0ED0  00B0               	movwf	___flmul@b+2
  2213     0ED1  300E               	movlw	14
  2214     0ED2  00AF               	movwf	___flmul@b+1
  2215     0ED3  30BF               	movlw	191
  2216     0ED4  00AE               	movwf	___flmul@b
  2217     0ED5  120A  118A  2025  120A  158A  	fcall	___flmul
  2218     0EDA  1283               	bcf	3,5	;RP0=0, select bank0
  2219     0EDB  1303               	bcf	3,6	;RP1=0, select bank0
  2220     0EDC  0831               	movf	?___flmul+3,w
  2221     0EDD  00CF               	movwf	___fladd@a+3
  2222     0EDE  0830               	movf	?___flmul+2,w
  2223     0EDF  00CE               	movwf	___fladd@a+2
  2224     0EE0  082F               	movf	?___flmul+1,w
  2225     0EE1  00CD               	movwf	___fladd@a+1
  2226     0EE2  082E               	movf	?___flmul,w
  2227     0EE3  00CC               	movwf	___fladd@a
  2228     0EE4  3042               	movlw	66
  2229     0EE5  00CB               	movwf	___fladd@b+3
  2230     0EE6  30C6               	movlw	198
  2231     0EE7  00CA               	movwf	___fladd@b+2
  2232     0EE8  3000               	movlw	0
  2233     0EE9  00C9               	movwf	___fladd@b+1
  2234     0EEA  3000               	movlw	0
  2235     0EEB  00C8               	movwf	___fladd@b
  2236     0EEC  120A  118A  236A  120A  158A  	fcall	___fladd
  2237     0EF1  1283               	bcf	3,5	;RP0=0, select bank0
  2238     0EF2  1303               	bcf	3,6	;RP1=0, select bank0
  2239     0EF3  084B               	movf	?___fladd+3,w
  2240     0EF4  00DF               	movwf	___fltol@f1+3
  2241     0EF5  084A               	movf	?___fladd+2,w
  2242     0EF6  00DE               	movwf	___fltol@f1+2
  2243     0EF7  0849               	movf	?___fladd+1,w
  2244     0EF8  00DD               	movwf	___fltol@f1+1
  2245     0EF9  0848               	movf	?___fladd,w
  2246     0EFA  00DC               	movwf	___fltol@f1
  2247     0EFB  120A  158A  270D  120A  158A  	fcall	___fltol
  2248     0F00  1283               	bcf	3,5	;RP0=0, select bank0
  2249     0F01  1303               	bcf	3,6	;RP1=0, select bank0
  2250     0F02  085D               	movf	?___fltol+1,w
  2251     0F03  1683               	bsf	3,5	;RP0=1, select bank1
  2252     0F04  1303               	bcf	3,6	;RP1=0, select bank1
  2253     0F05  00A3               	movwf	(_pulso+1)^(0+128)
  2254     0F06  1283               	bcf	3,5	;RP0=0, select bank0
  2255     0F07  1303               	bcf	3,6	;RP1=0, select bank0
  2256     0F08  085C               	movf	?___fltol,w
  2257     0F09  1683               	bsf	3,5	;RP0=1, select bank1
  2258     0F0A  1303               	bcf	3,6	;RP1=0, select bank1
  2259     0F0B  00A2               	movwf	_pulso^(0+128)
  2260     0F0C                     l144:
  2261     0F0C  0008               	return
  2262     0F0D                     __end_of_PWM1:
  2263                           
  2264                           	psect	text12
  2265     067E                     __ptext12:	
  2266 ;; *************** function ___xxtofl *****************
  2267 ;; Defined at:
  2268 ;;		line 10 in file "C:\Program Files\Microchip\xc8\v2.40\pic\sources\c90\common\xxtofl.c"
  2269 ;; Parameters:    Size  Location     Type
  2270 ;;  sign            1    wreg     unsigned char 
  2271 ;;  val             4    0[BANK0 ] long 
  2272 ;; Auto vars:     Size  Location     Type
  2273 ;;  sign            1    8[BANK0 ] unsigned char 
  2274 ;;  arg             4   10[BANK0 ] unsigned long 
  2275 ;;  exp             1    9[BANK0 ] unsigned char 
  2276 ;; Return value:  Size  Location     Type
  2277 ;;                  4    0[BANK0 ] unsigned char 
  2278 ;; Registers used:
  2279 ;;		wreg, status,2, status,0
  2280 ;; Tracked objects:
  2281 ;;		On entry : 0/0
  2282 ;;		On exit  : 0/0
  2283 ;;		Unchanged: 0/0
  2284 ;; Data sizes:     COMMON   BANK0   BANK1   BANK3   BANK2
  2285 ;;      Params:         0       4       0       0       0
  2286 ;;      Locals:         0       6       0       0       0
  2287 ;;      Temps:          0       4       0       0       0
  2288 ;;      Totals:         0      14       0       0       0
  2289 ;;Total ram usage:       14 bytes
  2290 ;; Hardware stack levels used: 1
  2291 ;; Hardware stack levels required when called: 1
  2292 ;; This function calls:
  2293 ;;		Nothing
  2294 ;; This function is called by:
  2295 ;;		_PWM1
  2296 ;;		_PWM2
  2297 ;;		_map
  2298 ;; This function uses a non-reentrant model
  2299 ;;
  2300                           
  2301     067E                     ___xxtofl:	
  2302                           ;psect for function ___xxtofl
  2303                           
  2304                           
  2305                           ;incstack = 0
  2306                           ; Regs used in ___xxtofl: [wreg+status,2+status,0]
  2307                           ;___xxtofl@sign stored from wreg
  2308     067E  1283               	bcf	3,5	;RP0=0, select bank0
  2309     067F  1303               	bcf	3,6	;RP1=0, select bank0
  2310     0680  00A8               	movwf	___xxtofl@sign
  2311     0681                     l1793:
  2312     0681  0828               	movf	___xxtofl@sign,w
  2313     0682  1903               	btfsc	3,2
  2314     0683  2E85               	goto	u2251
  2315     0684  2E86               	goto	u2250
  2316     0685                     u2251:
  2317     0685  2E9A               	goto	l1799
  2318     0686                     u2250:
  2319     0686                     l1795:
  2320     0686  1FA3               	btfss	___xxtofl@val+3,7
  2321     0687  2E89               	goto	u2261
  2322     0688  2E8A               	goto	u2260
  2323     0689                     u2261:
  2324     0689  2E9A               	goto	l1799
  2325     068A                     u2260:
  2326     068A                     l1797:
  2327     068A  0920               	comf	___xxtofl@val,w
  2328     068B  00AA               	movwf	___xxtofl@arg
  2329     068C  0921               	comf	___xxtofl@val+1,w
  2330     068D  00AB               	movwf	___xxtofl@arg+1
  2331     068E  0922               	comf	___xxtofl@val+2,w
  2332     068F  00AC               	movwf	___xxtofl@arg+2
  2333     0690  0923               	comf	___xxtofl@val+3,w
  2334     0691  00AD               	movwf	___xxtofl@arg+3
  2335     0692  0AAA               	incf	___xxtofl@arg,f
  2336     0693  1903               	skipnz
  2337     0694  0AAB               	incf	___xxtofl@arg+1,f
  2338     0695  1903               	skipnz
  2339     0696  0AAC               	incf	___xxtofl@arg+2,f
  2340     0697  1903               	skipnz
  2341     0698  0AAD               	incf	___xxtofl@arg+3,f
  2342     0699  2EA2               	goto	l692
  2343     069A                     l1799:
  2344     069A  0823               	movf	___xxtofl@val+3,w
  2345     069B  00AD               	movwf	___xxtofl@arg+3
  2346     069C  0822               	movf	___xxtofl@val+2,w
  2347     069D  00AC               	movwf	___xxtofl@arg+2
  2348     069E  0821               	movf	___xxtofl@val+1,w
  2349     069F  00AB               	movwf	___xxtofl@arg+1
  2350     06A0  0820               	movf	___xxtofl@val,w
  2351     06A1  00AA               	movwf	___xxtofl@arg
  2352     06A2                     l692:
  2353     06A2  0823               	movf	___xxtofl@val+3,w
  2354     06A3  0422               	iorwf	___xxtofl@val+2,w
  2355     06A4  0421               	iorwf	___xxtofl@val+1,w
  2356     06A5  0420               	iorwf	___xxtofl@val,w
  2357     06A6  1D03               	skipz
  2358     06A7  2EA9               	goto	u2271
  2359     06A8  2EAA               	goto	u2270
  2360     06A9                     u2271:
  2361     06A9  2EB3               	goto	l1805
  2362     06AA                     u2270:
  2363     06AA                     l1801:
  2364     06AA  3000               	movlw	0
  2365     06AB  00A3               	movwf	?___xxtofl+3
  2366     06AC  3000               	movlw	0
  2367     06AD  00A2               	movwf	?___xxtofl+2
  2368     06AE  3000               	movlw	0
  2369     06AF  00A1               	movwf	?___xxtofl+1
  2370     06B0  3000               	movlw	0
  2371     06B1  00A0               	movwf	?___xxtofl
  2372     06B2  2F37               	goto	l694
  2373     06B3                     l1805:
  2374     06B3  3096               	movlw	150
  2375     06B4  00A9               	movwf	___xxtofl@exp
  2376     06B5  2EC3               	goto	l1809
  2377     06B6                     l1807:
  2378     06B6  3001               	movlw	1
  2379     06B7  00A4               	movwf	??___xxtofl
  2380     06B8  0824               	movf	??___xxtofl,w
  2381     06B9  07A9               	addwf	___xxtofl@exp,f
  2382     06BA  3001               	movlw	1
  2383     06BB                     u2285:
  2384     06BB  1003               	clrc
  2385     06BC  0CAD               	rrf	___xxtofl@arg+3,f
  2386     06BD  0CAC               	rrf	___xxtofl@arg+2,f
  2387     06BE  0CAB               	rrf	___xxtofl@arg+1,f
  2388     06BF  0CAA               	rrf	___xxtofl@arg,f
  2389     06C0  3EFF               	addlw	-1
  2390     06C1  1D03               	skipz
  2391     06C2  2EBB               	goto	u2285
  2392     06C3                     l1809:
  2393     06C3  30FE               	movlw	254
  2394     06C4  052D               	andwf	___xxtofl@arg+3,w
  2395     06C5  1D03               	btfss	3,2
  2396     06C6  2EC8               	goto	u2291
  2397     06C7  2EC9               	goto	u2290
  2398     06C8                     u2291:
  2399     06C8  2EB6               	goto	l1807
  2400     06C9                     u2290:
  2401     06C9  2EE5               	goto	l698
  2402     06CA                     l1811:
  2403     06CA  3001               	movlw	1
  2404     06CB  00A4               	movwf	??___xxtofl
  2405     06CC  0824               	movf	??___xxtofl,w
  2406     06CD  07A9               	addwf	___xxtofl@exp,f
  2407     06CE                     l1813:
  2408     06CE  3001               	movlw	1
  2409     06CF  07AA               	addwf	___xxtofl@arg,f
  2410     06D0  3000               	movlw	0
  2411     06D1  1803               	skipnc
  2412     06D2  3001               	movlw	1
  2413     06D3  07AB               	addwf	___xxtofl@arg+1,f
  2414     06D4  3000               	movlw	0
  2415     06D5  1803               	skipnc
  2416     06D6  3001               	movlw	1
  2417     06D7  07AC               	addwf	___xxtofl@arg+2,f
  2418     06D8  3000               	movlw	0
  2419     06D9  1803               	skipnc
  2420     06DA  3001               	movlw	1
  2421     06DB  07AD               	addwf	___xxtofl@arg+3,f
  2422     06DC                     l1815:
  2423     06DC  3001               	movlw	1
  2424     06DD                     u2305:
  2425     06DD  1003               	clrc
  2426     06DE  0CAD               	rrf	___xxtofl@arg+3,f
  2427     06DF  0CAC               	rrf	___xxtofl@arg+2,f
  2428     06E0  0CAB               	rrf	___xxtofl@arg+1,f
  2429     06E1  0CAA               	rrf	___xxtofl@arg,f
  2430     06E2  3EFF               	addlw	-1
  2431     06E3  1D03               	skipz
  2432     06E4  2EDD               	goto	u2305
  2433     06E5                     l698:
  2434     06E5  30FF               	movlw	255
  2435     06E6  052D               	andwf	___xxtofl@arg+3,w
  2436     06E7  1D03               	btfss	3,2
  2437     06E8  2EEA               	goto	u2311
  2438     06E9  2EEB               	goto	u2310
  2439     06EA                     u2311:
  2440     06EA  2ECA               	goto	l1811
  2441     06EB                     u2310:
  2442     06EB  2EF7               	goto	l1819
  2443     06EC                     l1817:
  2444     06EC  3001               	movlw	1
  2445     06ED  02A9               	subwf	___xxtofl@exp,f
  2446     06EE  3001               	movlw	1
  2447     06EF  00A4               	movwf	??___xxtofl
  2448     06F0                     u2325:
  2449     06F0  1003               	clrc
  2450     06F1  0DAA               	rlf	___xxtofl@arg,f
  2451     06F2  0DAB               	rlf	___xxtofl@arg+1,f
  2452     06F3  0DAC               	rlf	___xxtofl@arg+2,f
  2453     06F4  0DAD               	rlf	___xxtofl@arg+3,f
  2454     06F5  0BA4               	decfsz	??___xxtofl,f
  2455     06F6  2EF0               	goto	u2325
  2456     06F7                     l1819:
  2457     06F7  1BAC               	btfsc	___xxtofl@arg+2,7
  2458     06F8  2EFA               	goto	u2331
  2459     06F9  2EFB               	goto	u2330
  2460     06FA                     u2331:
  2461     06FA  2F01               	goto	l705
  2462     06FB                     u2330:
  2463     06FB                     l1821:
  2464     06FB  3002               	movlw	2
  2465     06FC  0229               	subwf	___xxtofl@exp,w
  2466     06FD  1803               	skipnc
  2467     06FE  2F00               	goto	u2341
  2468     06FF  2F01               	goto	u2340
  2469     0700                     u2341:
  2470     0700  2EEC               	goto	l1817
  2471     0701                     u2340:
  2472     0701                     l705:
  2473     0701  1829               	btfsc	___xxtofl@exp,0
  2474     0702  2F04               	goto	u2351
  2475     0703  2F05               	goto	u2350
  2476     0704                     u2351:
  2477     0704  2F0D               	goto	l706
  2478     0705                     u2350:
  2479     0705                     l1823:
  2480     0705  30FF               	movlw	255
  2481     0706  05AA               	andwf	___xxtofl@arg,f
  2482     0707  30FF               	movlw	255
  2483     0708  05AB               	andwf	___xxtofl@arg+1,f
  2484     0709  307F               	movlw	127
  2485     070A  05AC               	andwf	___xxtofl@arg+2,f
  2486     070B  30FF               	movlw	255
  2487     070C  05AD               	andwf	___xxtofl@arg+3,f
  2488     070D                     l706:
  2489     070D  1003               	clrc
  2490     070E  0CA9               	rrf	___xxtofl@exp,f
  2491     070F                     l1825:
  2492     070F  0829               	movf	___xxtofl@exp,w
  2493     0710  00A4               	movwf	??___xxtofl
  2494     0711  01A5               	clrf	??___xxtofl+1
  2495     0712  01A6               	clrf	??___xxtofl+2
  2496     0713  01A7               	clrf	??___xxtofl+3
  2497     0714  3018               	movlw	24
  2498     0715                     u2365:
  2499     0715  1003               	clrc
  2500     0716  0DA4               	rlf	??___xxtofl,f
  2501     0717  0DA5               	rlf	??___xxtofl+1,f
  2502     0718  0DA6               	rlf	??___xxtofl+2,f
  2503     0719  0DA7               	rlf	??___xxtofl+3,f
  2504     071A                     u2360:
  2505     071A  3EFF               	addlw	-1
  2506     071B  1D03               	skipz
  2507     071C  2F15               	goto	u2365
  2508     071D  0824               	movf	??___xxtofl,w
  2509     071E  04AA               	iorwf	___xxtofl@arg,f
  2510     071F  0825               	movf	??___xxtofl+1,w
  2511     0720  04AB               	iorwf	___xxtofl@arg+1,f
  2512     0721  0826               	movf	??___xxtofl+2,w
  2513     0722  04AC               	iorwf	___xxtofl@arg+2,f
  2514     0723  0827               	movf	??___xxtofl+3,w
  2515     0724  04AD               	iorwf	___xxtofl@arg+3,f
  2516     0725                     l1827:
  2517     0725  0828               	movf	___xxtofl@sign,w
  2518     0726  1903               	btfsc	3,2
  2519     0727  2F29               	goto	u2371
  2520     0728  2F2A               	goto	u2370
  2521     0729                     u2371:
  2522     0729  2F2F               	goto	l1833
  2523     072A                     u2370:
  2524     072A                     l1829:
  2525     072A  1FA3               	btfss	___xxtofl@val+3,7
  2526     072B  2F2D               	goto	u2381
  2527     072C  2F2E               	goto	u2380
  2528     072D                     u2381:
  2529     072D  2F2F               	goto	l1833
  2530     072E                     u2380:
  2531     072E                     l1831:
  2532     072E  17AD               	bsf	___xxtofl@arg+3,7
  2533     072F                     l1833:
  2534     072F  082D               	movf	___xxtofl@arg+3,w
  2535     0730  00A3               	movwf	?___xxtofl+3
  2536     0731  082C               	movf	___xxtofl@arg+2,w
  2537     0732  00A2               	movwf	?___xxtofl+2
  2538     0733  082B               	movf	___xxtofl@arg+1,w
  2539     0734  00A1               	movwf	?___xxtofl+1
  2540     0735  082A               	movf	___xxtofl@arg,w
  2541     0736  00A0               	movwf	?___xxtofl
  2542     0737                     l694:
  2543     0737  0008               	return
  2544     0738                     __end_of___xxtofl:
  2545                           
  2546                           	psect	text13
  2547     0F0D                     __ptext13:	
  2548 ;; *************** function ___fltol *****************
  2549 ;; Defined at:
  2550 ;;		line 43 in file "C:\Program Files\Microchip\xc8\v2.40\pic\sources\c90\common\fltol.c"
  2551 ;; Parameters:    Size  Location     Type
  2552 ;;  f1              4   60[BANK0 ] unsigned char 
  2553 ;; Auto vars:     Size  Location     Type
  2554 ;;  exp1            1   69[BANK0 ] unsigned char 
  2555 ;;  sign1           1   68[BANK0 ] unsigned char 
  2556 ;; Return value:  Size  Location     Type
  2557 ;;                  4   60[BANK0 ] long 
  2558 ;; Registers used:
  2559 ;;		wreg, status,2, status,0
  2560 ;; Tracked objects:
  2561 ;;		On entry : 0/0
  2562 ;;		On exit  : 0/0
  2563 ;;		Unchanged: 0/0
  2564 ;; Data sizes:     COMMON   BANK0   BANK1   BANK3   BANK2
  2565 ;;      Params:         0       4       0       0       0
  2566 ;;      Locals:         0       2       0       0       0
  2567 ;;      Temps:          0       4       0       0       0
  2568 ;;      Totals:         0      10       0       0       0
  2569 ;;Total ram usage:       10 bytes
  2570 ;; Hardware stack levels used: 1
  2571 ;; Hardware stack levels required when called: 1
  2572 ;; This function calls:
  2573 ;;		Nothing
  2574 ;; This function is called by:
  2575 ;;		_PWM1
  2576 ;;		_PWM2
  2577 ;;		_map
  2578 ;; This function uses a non-reentrant model
  2579 ;;
  2580                           
  2581     0F0D                     ___fltol:	
  2582                           ;psect for function ___fltol
  2583                           
  2584     0F0D                     l1423:	
  2585                           ;incstack = 0
  2586                           ; Regs used in ___fltol: [wreg+status,2+status,0]
  2587                           
  2588     0F0D  1003               	clrc
  2589     0F0E  1283               	bcf	3,5	;RP0=0, select bank0
  2590     0F0F  1303               	bcf	3,6	;RP1=0, select bank0
  2591     0F10  0D5E               	rlf	___fltol@f1+2,w
  2592     0F11  0D5F               	rlf	___fltol@f1+3,w
  2593     0F12  00E5               	movwf	___fltol@exp1
  2594     0F13  0865               	movf	___fltol@exp1,w
  2595     0F14  1D03               	btfss	3,2
  2596     0F15  2F17               	goto	u1321
  2597     0F16  2F18               	goto	u1320
  2598     0F17                     u1321:
  2599     0F17  2F21               	goto	l1429
  2600     0F18                     u1320:
  2601     0F18                     l1425:
  2602     0F18  3000               	movlw	0
  2603     0F19  00DF               	movwf	?___fltol+3
  2604     0F1A  3000               	movlw	0
  2605     0F1B  00DE               	movwf	?___fltol+2
  2606     0F1C  3000               	movlw	0
  2607     0F1D  00DD               	movwf	?___fltol+1
  2608     0F1E  3000               	movlw	0
  2609     0F1F  00DC               	movwf	?___fltol
  2610     0F20  2F84               	goto	l445
  2611     0F21                     l1429:
  2612     0F21  085C               	movf	___fltol@f1,w
  2613     0F22  00E0               	movwf	??___fltol
  2614     0F23  085D               	movf	___fltol@f1+1,w
  2615     0F24  00E1               	movwf	??___fltol+1
  2616     0F25  085E               	movf	___fltol@f1+2,w
  2617     0F26  00E2               	movwf	??___fltol+2
  2618     0F27  085F               	movf	___fltol@f1+3,w
  2619     0F28  00E3               	movwf	??___fltol+3
  2620     0F29  301F               	movlw	31
  2621     0F2A                     u1335:
  2622     0F2A  1003               	clrc
  2623     0F2B  0CE3               	rrf	??___fltol+3,f
  2624     0F2C  0CE2               	rrf	??___fltol+2,f
  2625     0F2D  0CE1               	rrf	??___fltol+1,f
  2626     0F2E  0CE0               	rrf	??___fltol,f
  2627     0F2F                     u1330:
  2628     0F2F  3EFF               	addlw	-1
  2629     0F30  1D03               	skipz
  2630     0F31  2F2A               	goto	u1335
  2631     0F32  0860               	movf	??___fltol,w
  2632     0F33  00E4               	movwf	___fltol@sign1
  2633     0F34                     l1431:
  2634     0F34  17DE               	bsf	___fltol@f1+2,7
  2635     0F35                     l1433:
  2636     0F35  30FF               	movlw	255
  2637     0F36  05DC               	andwf	___fltol@f1,f
  2638     0F37  30FF               	movlw	255
  2639     0F38  05DD               	andwf	___fltol@f1+1,f
  2640     0F39  30FF               	movlw	255
  2641     0F3A  05DE               	andwf	___fltol@f1+2,f
  2642     0F3B  3000               	movlw	0
  2643     0F3C  05DF               	andwf	___fltol@f1+3,f
  2644     0F3D                     l1435:
  2645     0F3D  3096               	movlw	150
  2646     0F3E  02E5               	subwf	___fltol@exp1,f
  2647     0F3F                     l1437:
  2648     0F3F  1FE5               	btfss	___fltol@exp1,7
  2649     0F40  2F42               	goto	u1341
  2650     0F41  2F43               	goto	u1340
  2651     0F42                     u1341:
  2652     0F42  2F5D               	goto	l1447
  2653     0F43                     u1340:
  2654     0F43                     l1439:
  2655     0F43  0865               	movf	___fltol@exp1,w
  2656     0F44  3A80               	xorlw	128
  2657     0F45  3E97               	addlw	151
  2658     0F46  1803               	skipnc
  2659     0F47  2F49               	goto	u1351
  2660     0F48  2F4A               	goto	u1350
  2661     0F49                     u1351:
  2662     0F49  2F4B               	goto	l1445
  2663     0F4A                     u1350:
  2664     0F4A  2F18               	goto	l1425
  2665     0F4B                     l1445:
  2666     0F4B  3001               	movlw	1
  2667     0F4C                     u1365:
  2668     0F4C  1003               	clrc
  2669     0F4D  0CDF               	rrf	___fltol@f1+3,f
  2670     0F4E  0CDE               	rrf	___fltol@f1+2,f
  2671     0F4F  0CDD               	rrf	___fltol@f1+1,f
  2672     0F50  0CDC               	rrf	___fltol@f1,f
  2673     0F51  3EFF               	addlw	-1
  2674     0F52  1D03               	skipz
  2675     0F53  2F4C               	goto	u1365
  2676     0F54  3001               	movlw	1
  2677     0F55  00E0               	movwf	??___fltol
  2678     0F56  0860               	movf	??___fltol,w
  2679     0F57  07E5               	addwf	___fltol@exp1,f
  2680     0F58  1D03               	btfss	3,2
  2681     0F59  2F5B               	goto	u1371
  2682     0F5A  2F5C               	goto	u1370
  2683     0F5B                     u1371:
  2684     0F5B  2F4B               	goto	l1445
  2685     0F5C                     u1370:
  2686     0F5C  2F74               	goto	l1455
  2687     0F5D                     l1447:
  2688     0F5D  3020               	movlw	32
  2689     0F5E  0265               	subwf	___fltol@exp1,w
  2690     0F5F  1C03               	skipc
  2691     0F60  2F62               	goto	u1381
  2692     0F61  2F63               	goto	u1380
  2693     0F62                     u1381:
  2694     0F62  2F6F               	goto	l452
  2695     0F63                     u1380:
  2696     0F63  2F18               	goto	l1425
  2697     0F64                     l1453:
  2698     0F64  3001               	movlw	1
  2699     0F65  00E0               	movwf	??___fltol
  2700     0F66                     u1395:
  2701     0F66  1003               	clrc
  2702     0F67  0DDC               	rlf	___fltol@f1,f
  2703     0F68  0DDD               	rlf	___fltol@f1+1,f
  2704     0F69  0DDE               	rlf	___fltol@f1+2,f
  2705     0F6A  0DDF               	rlf	___fltol@f1+3,f
  2706     0F6B  0BE0               	decfsz	??___fltol,f
  2707     0F6C  2F66               	goto	u1395
  2708     0F6D  3001               	movlw	1
  2709     0F6E  02E5               	subwf	___fltol@exp1,f
  2710     0F6F                     l452:
  2711     0F6F  0865               	movf	___fltol@exp1,w
  2712     0F70  1D03               	btfss	3,2
  2713     0F71  2F73               	goto	u1401
  2714     0F72  2F74               	goto	u1400
  2715     0F73                     u1401:
  2716     0F73  2F64               	goto	l1453
  2717     0F74                     u1400:
  2718     0F74                     l1455:
  2719     0F74  0864               	movf	___fltol@sign1,w
  2720     0F75  1903               	btfsc	3,2
  2721     0F76  2F78               	goto	u1411
  2722     0F77  2F79               	goto	u1410
  2723     0F78                     u1411:
  2724     0F78  2F84               	goto	l455
  2725     0F79                     u1410:
  2726     0F79                     l1457:
  2727     0F79  09DC               	comf	___fltol@f1,f
  2728     0F7A  09DD               	comf	___fltol@f1+1,f
  2729     0F7B  09DE               	comf	___fltol@f1+2,f
  2730     0F7C  09DF               	comf	___fltol@f1+3,f
  2731     0F7D  0ADC               	incf	___fltol@f1,f
  2732     0F7E  1903               	skipnz
  2733     0F7F  0ADD               	incf	___fltol@f1+1,f
  2734     0F80  1903               	skipnz
  2735     0F81  0ADE               	incf	___fltol@f1+2,f
  2736     0F82  1903               	skipnz
  2737     0F83  0ADF               	incf	___fltol@f1+3,f
  2738     0F84                     l455:
  2739     0F84                     l445:
  2740     0F84  0008               	return
  2741     0F85                     __end_of___fltol:
  2742                           
  2743                           	psect	text14
  2744     0025                     __ptext14:	
  2745 ;; *************** function ___flmul *****************
  2746 ;; Defined at:
  2747 ;;		line 8 in file "C:\Program Files\Microchip\xc8\v2.40\pic\sources\c90\common\sprcmul.c"
  2748 ;; Parameters:    Size  Location     Type
  2749 ;;  b               4   14[BANK0 ] long 
  2750 ;;  a               4   18[BANK0 ] long 
  2751 ;; Auto vars:     Size  Location     Type
  2752 ;;  prod            4   34[BANK0 ] struct .
  2753 ;;  grs             4   28[BANK0 ] unsigned long 
  2754 ;;  temp            2   38[BANK0 ] struct .
  2755 ;;  bexp            1   33[BANK0 ] unsigned char 
  2756 ;;  aexp            1   32[BANK0 ] unsigned char 
  2757 ;;  sign            1   27[BANK0 ] unsigned char 
  2758 ;; Return value:  Size  Location     Type
  2759 ;;                  4   14[BANK0 ] unsigned char 
  2760 ;; Registers used:
  2761 ;;		wreg, status,2, status,0, btemp+1, pclath, cstack
  2762 ;; Tracked objects:
  2763 ;;		On entry : 0/0
  2764 ;;		On exit  : 0/0
  2765 ;;		Unchanged: 0/0
  2766 ;; Data sizes:     COMMON   BANK0   BANK1   BANK3   BANK2
  2767 ;;      Params:         0       8       0       0       0
  2768 ;;      Locals:         0      13       0       0       0
  2769 ;;      Temps:          0       5       0       0       0
  2770 ;;      Totals:         0      26       0       0       0
  2771 ;;Total ram usage:       26 bytes
  2772 ;; Hardware stack levels used: 1
  2773 ;; Hardware stack levels required when called: 2
  2774 ;; This function calls:
  2775 ;;		__Umul8_16
  2776 ;; This function is called by:
  2777 ;;		_PWM1
  2778 ;;		_PWM2
  2779 ;;		_map
  2780 ;; This function uses a non-reentrant model
  2781 ;;
  2782                           
  2783     0025                     ___flmul:	
  2784                           ;psect for function ___flmul
  2785                           
  2786     0025                     l1653:	
  2787                           ;incstack = 0
  2788                           ; Regs used in ___flmul: [wreg+status,2+status,0+btemp+1+pclath+cstack]
  2789                           
  2790     0025  1283               	bcf	3,5	;RP0=0, select bank0
  2791     0026  1303               	bcf	3,6	;RP1=0, select bank0
  2792     0027  0831               	movf	___flmul@b+3,w
  2793     0028  3980               	andlw	128
  2794     0029  00BB               	movwf	___flmul@sign
  2795     002A                     l1655:
  2796     002A  0831               	movf	___flmul@b+3,w
  2797     002B  00B6               	movwf	??___flmul
  2798     002C  0736               	addwf	??___flmul,w
  2799     002D  00C1               	movwf	___flmul@bexp
  2800     002E                     l1657:
  2801     002E  1FB0               	btfss	___flmul@b+2,7
  2802     002F  2831               	goto	u1881
  2803     0030  2832               	goto	u1880
  2804     0031                     u1881:
  2805     0031  2833               	goto	l1661
  2806     0032                     u1880:
  2807     0032                     l1659:
  2808     0032  1441               	bsf	___flmul@bexp,0
  2809     0033                     l1661:
  2810     0033  0841               	movf	___flmul@bexp,w
  2811     0034  1903               	btfsc	3,2
  2812     0035  2837               	goto	u1891
  2813     0036  2838               	goto	u1890
  2814     0037                     u1891:
  2815     0037  2847               	goto	l1669
  2816     0038                     u1890:
  2817     0038                     l1663:
  2818     0038  0A41               	incf	___flmul@bexp,w
  2819     0039  1D03               	btfss	3,2
  2820     003A  283C               	goto	u1901
  2821     003B  283D               	goto	u1900
  2822     003C                     u1901:
  2823     003C  2845               	goto	l1667
  2824     003D                     u1900:
  2825     003D                     l1665:
  2826     003D  3000               	movlw	0
  2827     003E  00B1               	movwf	___flmul@b+3
  2828     003F  3000               	movlw	0
  2829     0040  00B0               	movwf	___flmul@b+2
  2830     0041  3000               	movlw	0
  2831     0042  00AF               	movwf	___flmul@b+1
  2832     0043  3000               	movlw	0
  2833     0044  00AE               	movwf	___flmul@b
  2834     0045                     l1667:
  2835     0045  17B0               	bsf	___flmul@b+2,7
  2836     0046  284F               	goto	l1671
  2837     0047                     l1669:
  2838     0047  3000               	movlw	0
  2839     0048  00B1               	movwf	___flmul@b+3
  2840     0049  3000               	movlw	0
  2841     004A  00B0               	movwf	___flmul@b+2
  2842     004B  3000               	movlw	0
  2843     004C  00AF               	movwf	___flmul@b+1
  2844     004D  3000               	movlw	0
  2845     004E  00AE               	movwf	___flmul@b
  2846     004F                     l1671:
  2847     004F  0835               	movf	___flmul@a+3,w
  2848     0050  3980               	andlw	128
  2849     0051  00B6               	movwf	??___flmul
  2850     0052  0836               	movf	??___flmul,w
  2851     0053  06BB               	xorwf	___flmul@sign,f
  2852     0054                     l1673:
  2853     0054  0835               	movf	___flmul@a+3,w
  2854     0055  00B6               	movwf	??___flmul
  2855     0056  0736               	addwf	??___flmul,w
  2856     0057  00C0               	movwf	___flmul@aexp
  2857     0058                     l1675:
  2858     0058  1FB4               	btfss	___flmul@a+2,7
  2859     0059  285B               	goto	u1911
  2860     005A  285C               	goto	u1910
  2861     005B                     u1911:
  2862     005B  285D               	goto	l1679
  2863     005C                     u1910:
  2864     005C                     l1677:
  2865     005C  1440               	bsf	___flmul@aexp,0
  2866     005D                     l1679:
  2867     005D  0840               	movf	___flmul@aexp,w
  2868     005E  1903               	btfsc	3,2
  2869     005F  2861               	goto	u1921
  2870     0060  2862               	goto	u1920
  2871     0061                     u1921:
  2872     0061  2871               	goto	l1687
  2873     0062                     u1920:
  2874     0062                     l1681:
  2875     0062  0A40               	incf	___flmul@aexp,w
  2876     0063  1D03               	btfss	3,2
  2877     0064  2866               	goto	u1931
  2878     0065  2867               	goto	u1930
  2879     0066                     u1931:
  2880     0066  286F               	goto	l1685
  2881     0067                     u1930:
  2882     0067                     l1683:
  2883     0067  3000               	movlw	0
  2884     0068  00B5               	movwf	___flmul@a+3
  2885     0069  3000               	movlw	0
  2886     006A  00B4               	movwf	___flmul@a+2
  2887     006B  3000               	movlw	0
  2888     006C  00B3               	movwf	___flmul@a+1
  2889     006D  3000               	movlw	0
  2890     006E  00B2               	movwf	___flmul@a
  2891     006F                     l1685:
  2892     006F  17B4               	bsf	___flmul@a+2,7
  2893     0070  2879               	goto	l1689
  2894     0071                     l1687:
  2895     0071  3000               	movlw	0
  2896     0072  00B5               	movwf	___flmul@a+3
  2897     0073  3000               	movlw	0
  2898     0074  00B4               	movwf	___flmul@a+2
  2899     0075  3000               	movlw	0
  2900     0076  00B3               	movwf	___flmul@a+1
  2901     0077  3000               	movlw	0
  2902     0078  00B2               	movwf	___flmul@a
  2903     0079                     l1689:
  2904     0079  0840               	movf	___flmul@aexp,w
  2905     007A  1903               	btfsc	3,2
  2906     007B  287D               	goto	u1941
  2907     007C  287E               	goto	u1940
  2908     007D                     u1941:
  2909     007D  2883               	goto	l1693
  2910     007E                     u1940:
  2911     007E                     l1691:
  2912     007E  0841               	movf	___flmul@bexp,w
  2913     007F  1D03               	btfss	3,2
  2914     0080  2882               	goto	u1951
  2915     0081  2883               	goto	u1950
  2916     0082                     u1951:
  2917     0082  288C               	goto	l1697
  2918     0083                     u1950:
  2919     0083                     l1693:
  2920     0083  3000               	movlw	0
  2921     0084  00B1               	movwf	?___flmul+3
  2922     0085  3000               	movlw	0
  2923     0086  00B0               	movwf	?___flmul+2
  2924     0087  3000               	movlw	0
  2925     0088  00AF               	movwf	?___flmul+1
  2926     0089  3000               	movlw	0
  2927     008A  00AE               	movwf	?___flmul
  2928     008B  2B69               	goto	l648
  2929     008C                     l1697:
  2930     008C  082E               	movf	___flmul@b,w
  2931     008D  00A0               	movwf	__Umul8_16@multiplicand
  2932     008E  0834               	movf	___flmul@a+2,w
  2933     008F  120A  158A  258D  120A  118A  	fcall	__Umul8_16
  2934     0094  1283               	bcf	3,5	;RP0=0, select bank0
  2935     0095  1303               	bcf	3,6	;RP1=0, select bank0
  2936     0096  0821               	movf	?__Umul8_16+1,w
  2937     0097  00C7               	movwf	___flmul@temp+1
  2938     0098  0820               	movf	?__Umul8_16,w
  2939     0099  00C6               	movwf	___flmul@temp
  2940     009A                     l1699:
  2941     009A  0846               	movf	___flmul@temp,w
  2942     009B  00B6               	movwf	??___flmul
  2943     009C  01B7               	clrf	??___flmul+1
  2944     009D  01B8               	clrf	??___flmul+2
  2945     009E  01B9               	clrf	??___flmul+3
  2946     009F  0839               	movf	??___flmul+3,w
  2947     00A0  00BF               	movwf	___flmul@grs+3
  2948     00A1  0838               	movf	??___flmul+2,w
  2949     00A2  00BE               	movwf	___flmul@grs+2
  2950     00A3  0837               	movf	??___flmul+1,w
  2951     00A4  00BD               	movwf	___flmul@grs+1
  2952     00A5  0836               	movf	??___flmul,w
  2953     00A6  00BC               	movwf	___flmul@grs
  2954     00A7                     l1701:
  2955     00A7  0847               	movf	___flmul@temp+1,w
  2956     00A8  00B6               	movwf	??___flmul
  2957     00A9  01B7               	clrf	??___flmul+1
  2958     00AA  01B8               	clrf	??___flmul+2
  2959     00AB  01B9               	clrf	??___flmul+3
  2960     00AC  0839               	movf	??___flmul+3,w
  2961     00AD  00C5               	movwf	___flmul@prod+3
  2962     00AE  0838               	movf	??___flmul+2,w
  2963     00AF  00C4               	movwf	___flmul@prod+2
  2964     00B0  0837               	movf	??___flmul+1,w
  2965     00B1  00C3               	movwf	___flmul@prod+1
  2966     00B2  0836               	movf	??___flmul,w
  2967     00B3  00C2               	movwf	___flmul@prod
  2968     00B4  082F               	movf	___flmul@b+1,w
  2969     00B5  00A0               	movwf	__Umul8_16@multiplicand
  2970     00B6  0833               	movf	___flmul@a+1,w
  2971     00B7  120A  158A  258D  120A  118A  	fcall	__Umul8_16
  2972     00BC  1283               	bcf	3,5	;RP0=0, select bank0
  2973     00BD  1303               	bcf	3,6	;RP1=0, select bank0
  2974     00BE  0821               	movf	?__Umul8_16+1,w
  2975     00BF  00C7               	movwf	___flmul@temp+1
  2976     00C0  0820               	movf	?__Umul8_16,w
  2977     00C1  00C6               	movwf	___flmul@temp
  2978     00C2                     l1703:
  2979     00C2  0846               	movf	___flmul@temp,w
  2980     00C3  00B6               	movwf	??___flmul
  2981     00C4  01B7               	clrf	??___flmul+1
  2982     00C5  01B8               	clrf	??___flmul+2
  2983     00C6  01B9               	clrf	??___flmul+3
  2984     00C7  0836               	movf	??___flmul,w
  2985     00C8  07BC               	addwf	___flmul@grs,f
  2986     00C9  0837               	movf	??___flmul+1,w
  2987     00CA  1103               	clrz
  2988     00CB  1803               	skipnc
  2989     00CC  3E01               	addlw	1
  2990     00CD  1903               	skipnz
  2991     00CE  28D0               	goto	u1961
  2992     00CF  07BD               	addwf	___flmul@grs+1,f
  2993     00D0                     u1961:
  2994     00D0  0838               	movf	??___flmul+2,w
  2995     00D1  1103               	clrz
  2996     00D2  1803               	skipnc
  2997     00D3  3E01               	addlw	1
  2998     00D4  1903               	skipnz
  2999     00D5  28D7               	goto	u1962
  3000     00D6  07BE               	addwf	___flmul@grs+2,f
  3001     00D7                     u1962:
  3002     00D7  0839               	movf	??___flmul+3,w
  3003     00D8  1103               	clrz
  3004     00D9  1803               	skipnc
  3005     00DA  3E01               	addlw	1
  3006     00DB  1903               	skipnz
  3007     00DC  28DE               	goto	u1963
  3008     00DD  07BF               	addwf	___flmul@grs+3,f
  3009     00DE                     u1963:
  3010     00DE                     l1705:
  3011     00DE  0847               	movf	___flmul@temp+1,w
  3012     00DF  00B6               	movwf	??___flmul
  3013     00E0  01B7               	clrf	??___flmul+1
  3014     00E1  01B8               	clrf	??___flmul+2
  3015     00E2  01B9               	clrf	??___flmul+3
  3016     00E3  0836               	movf	??___flmul,w
  3017     00E4  07C2               	addwf	___flmul@prod,f
  3018     00E5  0837               	movf	??___flmul+1,w
  3019     00E6  1103               	clrz
  3020     00E7  1803               	skipnc
  3021     00E8  3E01               	addlw	1
  3022     00E9  1903               	skipnz
  3023     00EA  28EC               	goto	u1971
  3024     00EB  07C3               	addwf	___flmul@prod+1,f
  3025     00EC                     u1971:
  3026     00EC  0838               	movf	??___flmul+2,w
  3027     00ED  1103               	clrz
  3028     00EE  1803               	skipnc
  3029     00EF  3E01               	addlw	1
  3030     00F0  1903               	skipnz
  3031     00F1  28F3               	goto	u1972
  3032     00F2  07C4               	addwf	___flmul@prod+2,f
  3033     00F3                     u1972:
  3034     00F3  0839               	movf	??___flmul+3,w
  3035     00F4  1103               	clrz
  3036     00F5  1803               	skipnc
  3037     00F6  3E01               	addlw	1
  3038     00F7  1903               	skipnz
  3039     00F8  28FA               	goto	u1973
  3040     00F9  07C5               	addwf	___flmul@prod+3,f
  3041     00FA                     u1973:
  3042     00FA  0830               	movf	___flmul@b+2,w
  3043     00FB  00A0               	movwf	__Umul8_16@multiplicand
  3044     00FC  0832               	movf	___flmul@a,w
  3045     00FD  120A  158A  258D  120A  118A  	fcall	__Umul8_16
  3046     0102  1283               	bcf	3,5	;RP0=0, select bank0
  3047     0103  1303               	bcf	3,6	;RP1=0, select bank0
  3048     0104  0821               	movf	?__Umul8_16+1,w
  3049     0105  00C7               	movwf	___flmul@temp+1
  3050     0106  0820               	movf	?__Umul8_16,w
  3051     0107  00C6               	movwf	___flmul@temp
  3052     0108                     l1707:
  3053     0108  0846               	movf	___flmul@temp,w
  3054     0109  00B6               	movwf	??___flmul
  3055     010A  01B7               	clrf	??___flmul+1
  3056     010B  01B8               	clrf	??___flmul+2
  3057     010C  01B9               	clrf	??___flmul+3
  3058     010D  0836               	movf	??___flmul,w
  3059     010E  07BC               	addwf	___flmul@grs,f
  3060     010F  0837               	movf	??___flmul+1,w
  3061     0110  1103               	clrz
  3062     0111  1803               	skipnc
  3063     0112  3E01               	addlw	1
  3064     0113  1903               	skipnz
  3065     0114  2916               	goto	u1981
  3066     0115  07BD               	addwf	___flmul@grs+1,f
  3067     0116                     u1981:
  3068     0116  0838               	movf	??___flmul+2,w
  3069     0117  1103               	clrz
  3070     0118  1803               	skipnc
  3071     0119  3E01               	addlw	1
  3072     011A  1903               	skipnz
  3073     011B  291D               	goto	u1982
  3074     011C  07BE               	addwf	___flmul@grs+2,f
  3075     011D                     u1982:
  3076     011D  0839               	movf	??___flmul+3,w
  3077     011E  1103               	clrz
  3078     011F  1803               	skipnc
  3079     0120  3E01               	addlw	1
  3080     0121  1903               	skipnz
  3081     0122  2924               	goto	u1983
  3082     0123  07BF               	addwf	___flmul@grs+3,f
  3083     0124                     u1983:
  3084     0124                     l1709:
  3085     0124  0847               	movf	___flmul@temp+1,w
  3086     0125  00B6               	movwf	??___flmul
  3087     0126  01B7               	clrf	??___flmul+1
  3088     0127  01B8               	clrf	??___flmul+2
  3089     0128  01B9               	clrf	??___flmul+3
  3090     0129  0836               	movf	??___flmul,w
  3091     012A  07C2               	addwf	___flmul@prod,f
  3092     012B  0837               	movf	??___flmul+1,w
  3093     012C  1103               	clrz
  3094     012D  1803               	skipnc
  3095     012E  3E01               	addlw	1
  3096     012F  1903               	skipnz
  3097     0130  2932               	goto	u1991
  3098     0131  07C3               	addwf	___flmul@prod+1,f
  3099     0132                     u1991:
  3100     0132  0838               	movf	??___flmul+2,w
  3101     0133  1103               	clrz
  3102     0134  1803               	skipnc
  3103     0135  3E01               	addlw	1
  3104     0136  1903               	skipnz
  3105     0137  2939               	goto	u1992
  3106     0138  07C4               	addwf	___flmul@prod+2,f
  3107     0139                     u1992:
  3108     0139  0839               	movf	??___flmul+3,w
  3109     013A  1103               	clrz
  3110     013B  1803               	skipnc
  3111     013C  3E01               	addlw	1
  3112     013D  1903               	skipnz
  3113     013E  2940               	goto	u1993
  3114     013F  07C5               	addwf	___flmul@prod+3,f
  3115     0140                     u1993:
  3116     0140                     l1711:
  3117     0140  3008               	movlw	8
  3118     0141  00B6               	movwf	??___flmul
  3119     0142                     u2005:
  3120     0142  1003               	clrc
  3121     0143  0DBC               	rlf	___flmul@grs,f
  3122     0144  0DBD               	rlf	___flmul@grs+1,f
  3123     0145  0DBE               	rlf	___flmul@grs+2,f
  3124     0146  0DBF               	rlf	___flmul@grs+3,f
  3125     0147  0BB6               	decfsz	??___flmul,f
  3126     0148  2942               	goto	u2005
  3127     0149                     l1713:
  3128     0149  082F               	movf	___flmul@b+1,w
  3129     014A  00A0               	movwf	__Umul8_16@multiplicand
  3130     014B  0832               	movf	___flmul@a,w
  3131     014C  120A  158A  258D  120A  118A  	fcall	__Umul8_16
  3132     0151  1283               	bcf	3,5	;RP0=0, select bank0
  3133     0152  1303               	bcf	3,6	;RP1=0, select bank0
  3134     0153  0821               	movf	?__Umul8_16+1,w
  3135     0154  00C7               	movwf	___flmul@temp+1
  3136     0155  0820               	movf	?__Umul8_16,w
  3137     0156  00C6               	movwf	___flmul@temp
  3138     0157                     l1715:
  3139     0157  0846               	movf	___flmul@temp,w
  3140     0158  00B6               	movwf	??___flmul
  3141     0159  0847               	movf	___flmul@temp+1,w
  3142     015A  00B7               	movwf	??___flmul+1
  3143     015B  01B8               	clrf	??___flmul+2
  3144     015C  01B9               	clrf	??___flmul+3
  3145     015D  0836               	movf	??___flmul,w
  3146     015E  07BC               	addwf	___flmul@grs,f
  3147     015F  0837               	movf	??___flmul+1,w
  3148     0160  1103               	clrz
  3149     0161  1803               	skipnc
  3150     0162  3E01               	addlw	1
  3151     0163  1903               	skipnz
  3152     0164  2966               	goto	u2011
  3153     0165  07BD               	addwf	___flmul@grs+1,f
  3154     0166                     u2011:
  3155     0166  0838               	movf	??___flmul+2,w
  3156     0167  1103               	clrz
  3157     0168  1803               	skipnc
  3158     0169  3E01               	addlw	1
  3159     016A  1903               	skipnz
  3160     016B  296D               	goto	u2012
  3161     016C  07BE               	addwf	___flmul@grs+2,f
  3162     016D                     u2012:
  3163     016D  0839               	movf	??___flmul+3,w
  3164     016E  1103               	clrz
  3165     016F  1803               	skipnc
  3166     0170  3E01               	addlw	1
  3167     0171  1903               	skipnz
  3168     0172  2974               	goto	u2013
  3169     0173  07BF               	addwf	___flmul@grs+3,f
  3170     0174                     u2013:
  3171     0174                     l1717:
  3172     0174  082E               	movf	___flmul@b,w
  3173     0175  00A0               	movwf	__Umul8_16@multiplicand
  3174     0176  0833               	movf	___flmul@a+1,w
  3175     0177  120A  158A  258D  120A  118A  	fcall	__Umul8_16
  3176     017C  1283               	bcf	3,5	;RP0=0, select bank0
  3177     017D  1303               	bcf	3,6	;RP1=0, select bank0
  3178     017E  0821               	movf	?__Umul8_16+1,w
  3179     017F  00C7               	movwf	___flmul@temp+1
  3180     0180  0820               	movf	?__Umul8_16,w
  3181     0181  00C6               	movwf	___flmul@temp
  3182     0182                     l1719:
  3183     0182  0846               	movf	___flmul@temp,w
  3184     0183  00B6               	movwf	??___flmul
  3185     0184  0847               	movf	___flmul@temp+1,w
  3186     0185  00B7               	movwf	??___flmul+1
  3187     0186  01B8               	clrf	??___flmul+2
  3188     0187  01B9               	clrf	??___flmul+3
  3189     0188  0836               	movf	??___flmul,w
  3190     0189  07BC               	addwf	___flmul@grs,f
  3191     018A  0837               	movf	??___flmul+1,w
  3192     018B  1103               	clrz
  3193     018C  1803               	skipnc
  3194     018D  3E01               	addlw	1
  3195     018E  1903               	skipnz
  3196     018F  2991               	goto	u2021
  3197     0190  07BD               	addwf	___flmul@grs+1,f
  3198     0191                     u2021:
  3199     0191  0838               	movf	??___flmul+2,w
  3200     0192  1103               	clrz
  3201     0193  1803               	skipnc
  3202     0194  3E01               	addlw	1
  3203     0195  1903               	skipnz
  3204     0196  2998               	goto	u2022
  3205     0197  07BE               	addwf	___flmul@grs+2,f
  3206     0198                     u2022:
  3207     0198  0839               	movf	??___flmul+3,w
  3208     0199  1103               	clrz
  3209     019A  1803               	skipnc
  3210     019B  3E01               	addlw	1
  3211     019C  1903               	skipnz
  3212     019D  299F               	goto	u2023
  3213     019E  07BF               	addwf	___flmul@grs+3,f
  3214     019F                     u2023:
  3215     019F                     l1721:
  3216     019F  3008               	movlw	8
  3217     01A0  00B6               	movwf	??___flmul
  3218     01A1                     u2035:
  3219     01A1  1003               	clrc
  3220     01A2  0DBC               	rlf	___flmul@grs,f
  3221     01A3  0DBD               	rlf	___flmul@grs+1,f
  3222     01A4  0DBE               	rlf	___flmul@grs+2,f
  3223     01A5  0DBF               	rlf	___flmul@grs+3,f
  3224     01A6  0BB6               	decfsz	??___flmul,f
  3225     01A7  29A1               	goto	u2035
  3226     01A8  082E               	movf	___flmul@b,w
  3227     01A9  00A0               	movwf	__Umul8_16@multiplicand
  3228     01AA  0832               	movf	___flmul@a,w
  3229     01AB  120A  158A  258D  120A  118A  	fcall	__Umul8_16
  3230     01B0  1283               	bcf	3,5	;RP0=0, select bank0
  3231     01B1  1303               	bcf	3,6	;RP1=0, select bank0
  3232     01B2  0821               	movf	?__Umul8_16+1,w
  3233     01B3  00C7               	movwf	___flmul@temp+1
  3234     01B4  0820               	movf	?__Umul8_16,w
  3235     01B5  00C6               	movwf	___flmul@temp
  3236     01B6                     l1723:
  3237     01B6  0846               	movf	___flmul@temp,w
  3238     01B7  00B6               	movwf	??___flmul
  3239     01B8  0847               	movf	___flmul@temp+1,w
  3240     01B9  00B7               	movwf	??___flmul+1
  3241     01BA  01B8               	clrf	??___flmul+2
  3242     01BB  01B9               	clrf	??___flmul+3
  3243     01BC  0836               	movf	??___flmul,w
  3244     01BD  07BC               	addwf	___flmul@grs,f
  3245     01BE  0837               	movf	??___flmul+1,w
  3246     01BF  1103               	clrz
  3247     01C0  1803               	skipnc
  3248     01C1  3E01               	addlw	1
  3249     01C2  1903               	skipnz
  3250     01C3  29C5               	goto	u2041
  3251     01C4  07BD               	addwf	___flmul@grs+1,f
  3252     01C5                     u2041:
  3253     01C5  0838               	movf	??___flmul+2,w
  3254     01C6  1103               	clrz
  3255     01C7  1803               	skipnc
  3256     01C8  3E01               	addlw	1
  3257     01C9  1903               	skipnz
  3258     01CA  29CC               	goto	u2042
  3259     01CB  07BE               	addwf	___flmul@grs+2,f
  3260     01CC                     u2042:
  3261     01CC  0839               	movf	??___flmul+3,w
  3262     01CD  1103               	clrz
  3263     01CE  1803               	skipnc
  3264     01CF  3E01               	addlw	1
  3265     01D0  1903               	skipnz
  3266     01D1  29D3               	goto	u2043
  3267     01D2  07BF               	addwf	___flmul@grs+3,f
  3268     01D3                     u2043:
  3269     01D3                     l1725:
  3270     01D3  082F               	movf	___flmul@b+1,w
  3271     01D4  00A0               	movwf	__Umul8_16@multiplicand
  3272     01D5  0834               	movf	___flmul@a+2,w
  3273     01D6  120A  158A  258D  120A  118A  	fcall	__Umul8_16
  3274     01DB  1283               	bcf	3,5	;RP0=0, select bank0
  3275     01DC  1303               	bcf	3,6	;RP1=0, select bank0
  3276     01DD  0821               	movf	?__Umul8_16+1,w
  3277     01DE  00C7               	movwf	___flmul@temp+1
  3278     01DF  0820               	movf	?__Umul8_16,w
  3279     01E0  00C6               	movwf	___flmul@temp
  3280     01E1  0846               	movf	___flmul@temp,w
  3281     01E2  00B6               	movwf	??___flmul
  3282     01E3  0847               	movf	___flmul@temp+1,w
  3283     01E4  00B7               	movwf	??___flmul+1
  3284     01E5  01B8               	clrf	??___flmul+2
  3285     01E6  01B9               	clrf	??___flmul+3
  3286     01E7  0836               	movf	??___flmul,w
  3287     01E8  07C2               	addwf	___flmul@prod,f
  3288     01E9  0837               	movf	??___flmul+1,w
  3289     01EA  1103               	clrz
  3290     01EB  1803               	skipnc
  3291     01EC  3E01               	addlw	1
  3292     01ED  1903               	skipnz
  3293     01EE  29F0               	goto	u2051
  3294     01EF  07C3               	addwf	___flmul@prod+1,f
  3295     01F0                     u2051:
  3296     01F0  0838               	movf	??___flmul+2,w
  3297     01F1  1103               	clrz
  3298     01F2  1803               	skipnc
  3299     01F3  3E01               	addlw	1
  3300     01F4  1903               	skipnz
  3301     01F5  29F7               	goto	u2052
  3302     01F6  07C4               	addwf	___flmul@prod+2,f
  3303     01F7                     u2052:
  3304     01F7  0839               	movf	??___flmul+3,w
  3305     01F8  1103               	clrz
  3306     01F9  1803               	skipnc
  3307     01FA  3E01               	addlw	1
  3308     01FB  1903               	skipnz
  3309     01FC  29FE               	goto	u2053
  3310     01FD  07C5               	addwf	___flmul@prod+3,f
  3311     01FE                     u2053:
  3312     01FE                     l1727:
  3313     01FE  0830               	movf	___flmul@b+2,w
  3314     01FF  00A0               	movwf	__Umul8_16@multiplicand
  3315     0200  0833               	movf	___flmul@a+1,w
  3316     0201  120A  158A  258D  120A  118A  	fcall	__Umul8_16
  3317     0206  1283               	bcf	3,5	;RP0=0, select bank0
  3318     0207  1303               	bcf	3,6	;RP1=0, select bank0
  3319     0208  0821               	movf	?__Umul8_16+1,w
  3320     0209  00C7               	movwf	___flmul@temp+1
  3321     020A  0820               	movf	?__Umul8_16,w
  3322     020B  00C6               	movwf	___flmul@temp
  3323     020C                     l1729:
  3324     020C  0846               	movf	___flmul@temp,w
  3325     020D  00B6               	movwf	??___flmul
  3326     020E  0847               	movf	___flmul@temp+1,w
  3327     020F  00B7               	movwf	??___flmul+1
  3328     0210  01B8               	clrf	??___flmul+2
  3329     0211  01B9               	clrf	??___flmul+3
  3330     0212  0836               	movf	??___flmul,w
  3331     0213  07C2               	addwf	___flmul@prod,f
  3332     0214  0837               	movf	??___flmul+1,w
  3333     0215  1103               	clrz
  3334     0216  1803               	skipnc
  3335     0217  3E01               	addlw	1
  3336     0218  1903               	skipnz
  3337     0219  2A1B               	goto	u2061
  3338     021A  07C3               	addwf	___flmul@prod+1,f
  3339     021B                     u2061:
  3340     021B  0838               	movf	??___flmul+2,w
  3341     021C  1103               	clrz
  3342     021D  1803               	skipnc
  3343     021E  3E01               	addlw	1
  3344     021F  1903               	skipnz
  3345     0220  2A22               	goto	u2062
  3346     0221  07C4               	addwf	___flmul@prod+2,f
  3347     0222                     u2062:
  3348     0222  0839               	movf	??___flmul+3,w
  3349     0223  1103               	clrz
  3350     0224  1803               	skipnc
  3351     0225  3E01               	addlw	1
  3352     0226  1903               	skipnz
  3353     0227  2A29               	goto	u2063
  3354     0228  07C5               	addwf	___flmul@prod+3,f
  3355     0229                     u2063:
  3356     0229  0830               	movf	___flmul@b+2,w
  3357     022A  00A0               	movwf	__Umul8_16@multiplicand
  3358     022B  0834               	movf	___flmul@a+2,w
  3359     022C  120A  158A  258D  120A  118A  	fcall	__Umul8_16
  3360     0231  1283               	bcf	3,5	;RP0=0, select bank0
  3361     0232  1303               	bcf	3,6	;RP1=0, select bank0
  3362     0233  0821               	movf	?__Umul8_16+1,w
  3363     0234  00C7               	movwf	___flmul@temp+1
  3364     0235  0820               	movf	?__Umul8_16,w
  3365     0236  00C6               	movwf	___flmul@temp
  3366     0237                     l1731:
  3367     0237  0846               	movf	___flmul@temp,w
  3368     0238  00B6               	movwf	??___flmul
  3369     0239  0847               	movf	___flmul@temp+1,w
  3370     023A  00B7               	movwf	??___flmul+1
  3371     023B  01B8               	clrf	??___flmul+2
  3372     023C  01B9               	clrf	??___flmul+3
  3373     023D  3008               	movlw	8
  3374     023E                     u2075:
  3375     023E  1003               	clrc
  3376     023F  0DB6               	rlf	??___flmul,f
  3377     0240  0DB7               	rlf	??___flmul+1,f
  3378     0241  0DB8               	rlf	??___flmul+2,f
  3379     0242  0DB9               	rlf	??___flmul+3,f
  3380     0243                     u2070:
  3381     0243  3EFF               	addlw	-1
  3382     0244  1D03               	skipz
  3383     0245  2A3E               	goto	u2075
  3384     0246  0836               	movf	??___flmul,w
  3385     0247  07C2               	addwf	___flmul@prod,f
  3386     0248  0837               	movf	??___flmul+1,w
  3387     0249  1103               	clrz
  3388     024A  1803               	skipnc
  3389     024B  3E01               	addlw	1
  3390     024C  1903               	skipnz
  3391     024D  2A4F               	goto	u2081
  3392     024E  07C3               	addwf	___flmul@prod+1,f
  3393     024F                     u2081:
  3394     024F  0838               	movf	??___flmul+2,w
  3395     0250  1103               	clrz
  3396     0251  1803               	skipnc
  3397     0252  3E01               	addlw	1
  3398     0253  1903               	skipnz
  3399     0254  2A56               	goto	u2082
  3400     0255  07C4               	addwf	___flmul@prod+2,f
  3401     0256                     u2082:
  3402     0256  0839               	movf	??___flmul+3,w
  3403     0257  1103               	clrz
  3404     0258  1803               	skipnc
  3405     0259  3E01               	addlw	1
  3406     025A  1903               	skipnz
  3407     025B  2A5D               	goto	u2083
  3408     025C  07C5               	addwf	___flmul@prod+3,f
  3409     025D                     u2083:
  3410     025D                     l1733:
  3411     025D  083C               	movf	___flmul@grs,w
  3412     025E  00B6               	movwf	??___flmul
  3413     025F  083D               	movf	___flmul@grs+1,w
  3414     0260  00B7               	movwf	??___flmul+1
  3415     0261  083E               	movf	___flmul@grs+2,w
  3416     0262  00B8               	movwf	??___flmul+2
  3417     0263  083F               	movf	___flmul@grs+3,w
  3418     0264  00B9               	movwf	??___flmul+3
  3419     0265  3018               	movlw	24
  3420     0266                     u2095:
  3421     0266  1003               	clrc
  3422     0267  0CB9               	rrf	??___flmul+3,f
  3423     0268  0CB8               	rrf	??___flmul+2,f
  3424     0269  0CB7               	rrf	??___flmul+1,f
  3425     026A  0CB6               	rrf	??___flmul,f
  3426     026B                     u2090:
  3427     026B  3EFF               	addlw	-1
  3428     026C  1D03               	skipz
  3429     026D  2A66               	goto	u2095
  3430     026E  0836               	movf	??___flmul,w
  3431     026F  07C2               	addwf	___flmul@prod,f
  3432     0270  0837               	movf	??___flmul+1,w
  3433     0271  1103               	clrz
  3434     0272  1803               	skipnc
  3435     0273  3E01               	addlw	1
  3436     0274  1903               	skipnz
  3437     0275  2A77               	goto	u2101
  3438     0276  07C3               	addwf	___flmul@prod+1,f
  3439     0277                     u2101:
  3440     0277  0838               	movf	??___flmul+2,w
  3441     0278  1103               	clrz
  3442     0279  1803               	skipnc
  3443     027A  3E01               	addlw	1
  3444     027B  1903               	skipnz
  3445     027C  2A7E               	goto	u2102
  3446     027D  07C4               	addwf	___flmul@prod+2,f
  3447     027E                     u2102:
  3448     027E  0839               	movf	??___flmul+3,w
  3449     027F  1103               	clrz
  3450     0280  1803               	skipnc
  3451     0281  3E01               	addlw	1
  3452     0282  1903               	skipnz
  3453     0283  2A85               	goto	u2103
  3454     0284  07C5               	addwf	___flmul@prod+3,f
  3455     0285                     u2103:
  3456     0285                     l1735:
  3457     0285  3008               	movlw	8
  3458     0286  00B6               	movwf	??___flmul
  3459     0287                     u2115:
  3460     0287  1003               	clrc
  3461     0288  0DBC               	rlf	___flmul@grs,f
  3462     0289  0DBD               	rlf	___flmul@grs+1,f
  3463     028A  0DBE               	rlf	___flmul@grs+2,f
  3464     028B  0DBF               	rlf	___flmul@grs+3,f
  3465     028C  0BB6               	decfsz	??___flmul,f
  3466     028D  2A87               	goto	u2115
  3467     028E                     l1737:
  3468     028E  0841               	movf	___flmul@bexp,w
  3469     028F  0740               	addwf	___flmul@aexp,w
  3470     0290  00B6               	movwf	??___flmul
  3471     0291  01B7               	clrf	??___flmul+1
  3472     0292  0DB7               	rlf	??___flmul+1,f
  3473     0293  0836               	movf	??___flmul,w
  3474     0294  3E82               	addlw	130
  3475     0295  00C6               	movwf	___flmul@temp
  3476     0296  0837               	movf	??___flmul+1,w
  3477     0297  1803               	skipnc
  3478     0298  3E01               	addlw	1
  3479     0299  3EFF               	addlw	255
  3480     029A  00C7               	movwf	___flmul@temp+1
  3481     029B  2AB9               	goto	l1749
  3482     029C                     l1739:
  3483     029C  3001               	movlw	1
  3484     029D  00B6               	movwf	??___flmul
  3485     029E                     u2125:
  3486     029E  1003               	clrc
  3487     029F  0DC2               	rlf	___flmul@prod,f
  3488     02A0  0DC3               	rlf	___flmul@prod+1,f
  3489     02A1  0DC4               	rlf	___flmul@prod+2,f
  3490     02A2  0DC5               	rlf	___flmul@prod+3,f
  3491     02A3  0BB6               	decfsz	??___flmul,f
  3492     02A4  2A9E               	goto	u2125
  3493     02A5                     l1741:
  3494     02A5  1FBF               	btfss	___flmul@grs+3,7
  3495     02A6  2AA8               	goto	u2131
  3496     02A7  2AA9               	goto	u2130
  3497     02A8                     u2131:
  3498     02A8  2AAA               	goto	l1745
  3499     02A9                     u2130:
  3500     02A9                     l1743:
  3501     02A9  1442               	bsf	___flmul@prod,0
  3502     02AA                     l1745:
  3503     02AA  3001               	movlw	1
  3504     02AB  00B6               	movwf	??___flmul
  3505     02AC                     u2145:
  3506     02AC  1003               	clrc
  3507     02AD  0DBC               	rlf	___flmul@grs,f
  3508     02AE  0DBD               	rlf	___flmul@grs+1,f
  3509     02AF  0DBE               	rlf	___flmul@grs+2,f
  3510     02B0  0DBF               	rlf	___flmul@grs+3,f
  3511     02B1  0BB6               	decfsz	??___flmul,f
  3512     02B2  2AAC               	goto	u2145
  3513     02B3                     l1747:
  3514     02B3  30FF               	movlw	255
  3515     02B4  07C6               	addwf	___flmul@temp,f
  3516     02B5  1803               	skipnc
  3517     02B6  0AC7               	incf	___flmul@temp+1,f
  3518     02B7  30FF               	movlw	255
  3519     02B8  07C7               	addwf	___flmul@temp+1,f
  3520     02B9                     l1749:
  3521     02B9  1FC4               	btfss	___flmul@prod+2,7
  3522     02BA  2ABC               	goto	u2151
  3523     02BB  2ABD               	goto	u2150
  3524     02BC                     u2151:
  3525     02BC  2A9C               	goto	l1739
  3526     02BD                     u2150:
  3527     02BD                     l1751:
  3528     02BD  01C0               	clrf	___flmul@aexp
  3529     02BE                     l1753:
  3530     02BE  1FBF               	btfss	___flmul@grs+3,7
  3531     02BF  2AC1               	goto	u2161
  3532     02C0  2AC2               	goto	u2160
  3533     02C1                     u2161:
  3534     02C1  2ADE               	goto	l1761
  3535     02C2                     u2160:
  3536     02C2                     l1755:
  3537     02C2  30FF               	movlw	255
  3538     02C3  053C               	andwf	___flmul@grs,w
  3539     02C4  00B6               	movwf	??___flmul
  3540     02C5  30FF               	movlw	255
  3541     02C6  053D               	andwf	___flmul@grs+1,w
  3542     02C7  00B7               	movwf	??___flmul+1
  3543     02C8  30FF               	movlw	255
  3544     02C9  053E               	andwf	___flmul@grs+2,w
  3545     02CA  00B8               	movwf	??___flmul+2
  3546     02CB  307F               	movlw	127
  3547     02CC  053F               	andwf	___flmul@grs+3,w
  3548     02CD  00B9               	movwf	??___flmul+3
  3549     02CE  0839               	movf	??___flmul+3,w
  3550     02CF  0438               	iorwf	??___flmul+2,w
  3551     02D0  0437               	iorwf	??___flmul+1,w
  3552     02D1  0436               	iorwf	??___flmul,w
  3553     02D2  1903               	skipnz
  3554     02D3  2AD5               	goto	u2171
  3555     02D4  2AD6               	goto	u2170
  3556     02D5                     u2171:
  3557     02D5  2AD9               	goto	l654
  3558     02D6                     u2170:
  3559     02D6                     l1757:
  3560     02D6  01C0               	clrf	___flmul@aexp
  3561     02D7  0AC0               	incf	___flmul@aexp,f
  3562     02D8  2ADE               	goto	l1761
  3563     02D9                     l654:
  3564     02D9  1C42               	btfss	___flmul@prod,0
  3565     02DA  2ADC               	goto	u2181
  3566     02DB  2ADD               	goto	u2180
  3567     02DC                     u2181:
  3568     02DC  2ADE               	goto	l1761
  3569     02DD                     u2180:
  3570     02DD  2AD6               	goto	l1757
  3571     02DE                     l1761:
  3572     02DE  0840               	movf	___flmul@aexp,w
  3573     02DF  1903               	btfsc	3,2
  3574     02E0  2AE2               	goto	u2191
  3575     02E1  2AE3               	goto	u2190
  3576     02E2                     u2191:
  3577     02E2  2B14               	goto	l1771
  3578     02E3                     u2190:
  3579     02E3                     l1763:
  3580     02E3  3001               	movlw	1
  3581     02E4  07C2               	addwf	___flmul@prod,f
  3582     02E5  3000               	movlw	0
  3583     02E6  1803               	skipnc
  3584     02E7  3001               	movlw	1
  3585     02E8  07C3               	addwf	___flmul@prod+1,f
  3586     02E9  3000               	movlw	0
  3587     02EA  1803               	skipnc
  3588     02EB  3001               	movlw	1
  3589     02EC  07C4               	addwf	___flmul@prod+2,f
  3590     02ED  3000               	movlw	0
  3591     02EE  1803               	skipnc
  3592     02EF  3001               	movlw	1
  3593     02F0  07C5               	addwf	___flmul@prod+3,f
  3594     02F1                     l1765:
  3595     02F1  1C45               	btfss	___flmul@prod+3,0
  3596     02F2  2AF4               	goto	u2201
  3597     02F3  2AF5               	goto	u2200
  3598     02F4                     u2201:
  3599     02F4  2B14               	goto	l1771
  3600     02F5                     u2200:
  3601     02F5                     l1767:
  3602     02F5  0842               	movf	___flmul@prod,w
  3603     02F6  00B6               	movwf	??___flmul
  3604     02F7  0843               	movf	___flmul@prod+1,w
  3605     02F8  00B7               	movwf	??___flmul+1
  3606     02F9  0844               	movf	___flmul@prod+2,w
  3607     02FA  00B8               	movwf	??___flmul+2
  3608     02FB  0845               	movf	___flmul@prod+3,w
  3609     02FC  00B9               	movwf	??___flmul+3
  3610     02FD  3001               	movlw	1
  3611     02FE  00BA               	movwf	??___flmul+4
  3612     02FF                     u2215:
  3613     02FF  0D39               	rlf	??___flmul+3,w
  3614     0300  0CB9               	rrf	??___flmul+3,f
  3615     0301  0CB8               	rrf	??___flmul+2,f
  3616     0302  0CB7               	rrf	??___flmul+1,f
  3617     0303  0CB6               	rrf	??___flmul,f
  3618     0304                     u2210:
  3619     0304  0BBA               	decfsz	??___flmul+4,f
  3620     0305  2AFF               	goto	u2215
  3621     0306  0839               	movf	??___flmul+3,w
  3622     0307  00C5               	movwf	___flmul@prod+3
  3623     0308  0838               	movf	??___flmul+2,w
  3624     0309  00C4               	movwf	___flmul@prod+2
  3625     030A  0837               	movf	??___flmul+1,w
  3626     030B  00C3               	movwf	___flmul@prod+1
  3627     030C  0836               	movf	??___flmul,w
  3628     030D  00C2               	movwf	___flmul@prod
  3629     030E                     l1769:
  3630     030E  3001               	movlw	1
  3631     030F  07C6               	addwf	___flmul@temp,f
  3632     0310  1803               	skipnc
  3633     0311  0AC7               	incf	___flmul@temp+1,f
  3634     0312  3000               	movlw	0
  3635     0313  07C7               	addwf	___flmul@temp+1,f
  3636     0314                     l1771:
  3637     0314  0847               	movf	___flmul@temp+1,w
  3638     0315  3A80               	xorlw	128
  3639     0316  00FF               	movwf	btemp+1
  3640     0317  3080               	movlw	128
  3641     0318  027F               	subwf	btemp+1,w
  3642     0319  1D03               	skipz
  3643     031A  2B1D               	goto	u2225
  3644     031B  30FF               	movlw	255
  3645     031C  0246               	subwf	___flmul@temp,w
  3646     031D                     u2225:
  3647     031D  1C03               	skipc
  3648     031E  2B20               	goto	u2221
  3649     031F  2B21               	goto	u2220
  3650     0320                     u2221:
  3651     0320  2B2C               	goto	l1775
  3652     0321                     u2220:
  3653     0321                     l1773:
  3654     0321  307F               	movlw	127
  3655     0322  1283               	bcf	3,5	;RP0=0, select bank0
  3656     0323  1303               	bcf	3,6	;RP1=0, select bank0
  3657     0324  00C5               	movwf	___flmul@prod+3
  3658     0325  3080               	movlw	128
  3659     0326  00C4               	movwf	___flmul@prod+2
  3660     0327  3000               	movlw	0
  3661     0328  00C3               	movwf	___flmul@prod+1
  3662     0329  3000               	movlw	0
  3663     032A  00C2               	movwf	___flmul@prod
  3664     032B  2B5D               	goto	l660
  3665     032C                     l1775:
  3666     032C  1283               	bcf	3,5	;RP0=0, select bank0
  3667     032D  1303               	bcf	3,6	;RP1=0, select bank0
  3668     032E  0847               	movf	___flmul@temp+1,w
  3669     032F  3A80               	xorlw	128
  3670     0330  00FF               	movwf	btemp+1
  3671     0331  3080               	movlw	128
  3672     0332  027F               	subwf	btemp+1,w
  3673     0333  1D03               	skipz
  3674     0334  2B37               	goto	u2235
  3675     0335  3001               	movlw	1
  3676     0336  0246               	subwf	___flmul@temp,w
  3677     0337                     u2235:
  3678     0337  1803               	skipnc
  3679     0338  2B3A               	goto	u2231
  3680     0339  2B3B               	goto	u2230
  3681     033A                     u2231:
  3682     033A  2B47               	goto	l1781
  3683     033B                     u2230:
  3684     033B                     l1777:
  3685     033B  3000               	movlw	0
  3686     033C  1283               	bcf	3,5	;RP0=0, select bank0
  3687     033D  1303               	bcf	3,6	;RP1=0, select bank0
  3688     033E  00C5               	movwf	___flmul@prod+3
  3689     033F  3000               	movlw	0
  3690     0340  00C4               	movwf	___flmul@prod+2
  3691     0341  3000               	movlw	0
  3692     0342  00C3               	movwf	___flmul@prod+1
  3693     0343  3000               	movlw	0
  3694     0344  00C2               	movwf	___flmul@prod
  3695     0345                     l1779:
  3696     0345  01BB               	clrf	___flmul@sign
  3697     0346  2B5D               	goto	l660
  3698     0347                     l1781:
  3699     0347  1283               	bcf	3,5	;RP0=0, select bank0
  3700     0348  1303               	bcf	3,6	;RP1=0, select bank0
  3701     0349  0846               	movf	___flmul@temp,w
  3702     034A  00C1               	movwf	___flmul@bexp
  3703     034B  30FF               	movlw	255
  3704     034C  05C2               	andwf	___flmul@prod,f
  3705     034D  30FF               	movlw	255
  3706     034E  05C3               	andwf	___flmul@prod+1,f
  3707     034F  307F               	movlw	127
  3708     0350  05C4               	andwf	___flmul@prod+2,f
  3709     0351  3000               	movlw	0
  3710     0352  05C5               	andwf	___flmul@prod+3,f
  3711     0353                     l1783:
  3712     0353  1C41               	btfss	___flmul@bexp,0
  3713     0354  2B56               	goto	u2241
  3714     0355  2B57               	goto	u2240
  3715     0356                     u2241:
  3716     0356  2B58               	goto	l1787
  3717     0357                     u2240:
  3718     0357                     l1785:
  3719     0357  17C4               	bsf	___flmul@prod+2,7
  3720     0358                     l1787:
  3721     0358  0841               	movf	___flmul@bexp,w
  3722     0359  00B6               	movwf	??___flmul
  3723     035A  1003               	clrc
  3724     035B  0C36               	rrf	??___flmul,w
  3725     035C  00C5               	movwf	___flmul@prod+3
  3726     035D                     l660:
  3727     035D  083B               	movf	___flmul@sign,w
  3728     035E  00B6               	movwf	??___flmul
  3729     035F  0836               	movf	??___flmul,w
  3730     0360  04C5               	iorwf	___flmul@prod+3,f
  3731     0361                     l1789:
  3732     0361  0845               	movf	___flmul@prod+3,w
  3733     0362  00B1               	movwf	?___flmul+3
  3734     0363  0844               	movf	___flmul@prod+2,w
  3735     0364  00B0               	movwf	?___flmul+2
  3736     0365  0843               	movf	___flmul@prod+1,w
  3737     0366  00AF               	movwf	?___flmul+1
  3738     0367  0842               	movf	___flmul@prod,w
  3739     0368  00AE               	movwf	?___flmul
  3740     0369                     l648:
  3741     0369  0008               	return
  3742     036A                     __end_of___flmul:
  3743                           
  3744                           	psect	text15
  3745     0D8D                     __ptext15:	
  3746 ;; *************** function __Umul8_16 *****************
  3747 ;; Defined at:
  3748 ;;		line 4 in file "C:\Program Files\Microchip\xc8\v2.40\pic\sources\c90\common\Umul8_16.c"
  3749 ;; Parameters:    Size  Location     Type
  3750 ;;  multiplier      1    wreg     unsigned char 
  3751 ;;  multiplicand    1    0[BANK0 ] unsigned char 
  3752 ;; Auto vars:     Size  Location     Type
  3753 ;;  multiplier      1    8[BANK0 ] unsigned char 
  3754 ;;  word_mpld       2    6[BANK0 ] unsigned int 
  3755 ;;  product         2    4[BANK0 ] unsigned int 
  3756 ;; Return value:  Size  Location     Type
  3757 ;;                  2    0[BANK0 ] unsigned int 
  3758 ;; Registers used:
  3759 ;;		wreg, status,2, status,0
  3760 ;; Tracked objects:
  3761 ;;		On entry : 0/0
  3762 ;;		On exit  : 0/0
  3763 ;;		Unchanged: 0/0
  3764 ;; Data sizes:     COMMON   BANK0   BANK1   BANK3   BANK2
  3765 ;;      Params:         0       2       0       0       0
  3766 ;;      Locals:         0       5       0       0       0
  3767 ;;      Temps:          0       2       0       0       0
  3768 ;;      Totals:         0       9       0       0       0
  3769 ;;Total ram usage:        9 bytes
  3770 ;; Hardware stack levels used: 1
  3771 ;; Hardware stack levels required when called: 1
  3772 ;; This function calls:
  3773 ;;		Nothing
  3774 ;; This function is called by:
  3775 ;;		___flmul
  3776 ;; This function uses a non-reentrant model
  3777 ;;
  3778                           
  3779     0D8D                     __Umul8_16:	
  3780                           ;psect for function __Umul8_16
  3781                           
  3782                           
  3783                           ;incstack = 0
  3784                           ; Regs used in __Umul8_16: [wreg+status,2+status,0]
  3785                           ;__Umul8_16@multiplier stored from wreg
  3786     0D8D  1283               	bcf	3,5	;RP0=0, select bank0
  3787     0D8E  1303               	bcf	3,6	;RP1=0, select bank0
  3788     0D8F  00A8               	movwf	__Umul8_16@multiplier
  3789     0D90                     l1409:
  3790     0D90  01A4               	clrf	__Umul8_16@product
  3791     0D91  01A5               	clrf	__Umul8_16@product+1
  3792     0D92                     l1411:
  3793     0D92  0820               	movf	__Umul8_16@multiplicand,w
  3794     0D93  00A2               	movwf	??__Umul8_16
  3795     0D94  01A3               	clrf	??__Umul8_16+1
  3796     0D95  0822               	movf	??__Umul8_16,w
  3797     0D96  00A6               	movwf	__Umul8_16@word_mpld
  3798     0D97  0823               	movf	??__Umul8_16+1,w
  3799     0D98  00A7               	movwf	__Umul8_16@word_mpld+1
  3800     0D99                     l1413:
  3801     0D99  1C28               	btfss	__Umul8_16@multiplier,0
  3802     0D9A  2D9C               	goto	u1291
  3803     0D9B  2D9D               	goto	u1290
  3804     0D9C                     u1291:
  3805     0D9C  2DA3               	goto	l667
  3806     0D9D                     u1290:
  3807     0D9D                     l1415:
  3808     0D9D  0826               	movf	__Umul8_16@word_mpld,w
  3809     0D9E  07A4               	addwf	__Umul8_16@product,f
  3810     0D9F  1803               	skipnc
  3811     0DA0  0AA5               	incf	__Umul8_16@product+1,f
  3812     0DA1  0827               	movf	__Umul8_16@word_mpld+1,w
  3813     0DA2  07A5               	addwf	__Umul8_16@product+1,f
  3814     0DA3                     l667:
  3815     0DA3  3001               	movlw	1
  3816     0DA4                     u1305:
  3817     0DA4  1003               	clrc
  3818     0DA5  0DA6               	rlf	__Umul8_16@word_mpld,f
  3819     0DA6  0DA7               	rlf	__Umul8_16@word_mpld+1,f
  3820     0DA7  3EFF               	addlw	-1
  3821     0DA8  1D03               	skipz
  3822     0DA9  2DA4               	goto	u1305
  3823     0DAA  1003               	clrc
  3824     0DAB  0CA8               	rrf	__Umul8_16@multiplier,f
  3825     0DAC                     l1417:
  3826     0DAC  0828               	movf	__Umul8_16@multiplier,w
  3827     0DAD  1D03               	btfss	3,2
  3828     0DAE  2DB0               	goto	u1311
  3829     0DAF  2DB1               	goto	u1310
  3830     0DB0                     u1311:
  3831     0DB0  2D99               	goto	l1413
  3832     0DB1                     u1310:
  3833     0DB1                     l1419:
  3834     0DB1  0825               	movf	__Umul8_16@product+1,w
  3835     0DB2  00A1               	movwf	?__Umul8_16+1
  3836     0DB3  0824               	movf	__Umul8_16@product,w
  3837     0DB4  00A0               	movwf	?__Umul8_16
  3838     0DB5                     l669:
  3839     0DB5  0008               	return
  3840     0DB6                     __end_of__Umul8_16:
  3841                           
  3842                           	psect	text16
  3843     036A                     __ptext16:	
  3844 ;; *************** function ___fladd *****************
  3845 ;; Defined at:
  3846 ;;		line 10 in file "C:\Program Files\Microchip\xc8\v2.40\pic\sources\c90\common\sprcadd.c"
  3847 ;; Parameters:    Size  Location     Type
  3848 ;;  b               4   40[BANK0 ] unsigned int 
  3849 ;;  a               4   44[BANK0 ] unsigned int 
  3850 ;; Auto vars:     Size  Location     Type
  3851 ;;  grs             1   59[BANK0 ] unsigned char 
  3852 ;;  bexp            1   58[BANK0 ] unsigned char 
  3853 ;;  aexp            1   57[BANK0 ] unsigned char 
  3854 ;;  signs           1   56[BANK0 ] unsigned char 
  3855 ;; Return value:  Size  Location     Type
  3856 ;;                  4   40[BANK0 ] unsigned char 
  3857 ;; Registers used:
  3858 ;;		wreg, status,2, status,0, btemp+1
  3859 ;; Tracked objects:
  3860 ;;		On entry : 0/0
  3861 ;;		On exit  : 0/0
  3862 ;;		Unchanged: 0/0
  3863 ;; Data sizes:     COMMON   BANK0   BANK1   BANK3   BANK2
  3864 ;;      Params:         0       8       0       0       0
  3865 ;;      Locals:         0       4       0       0       0
  3866 ;;      Temps:          0       8       0       0       0
  3867 ;;      Totals:         0      20       0       0       0
  3868 ;;Total ram usage:       20 bytes
  3869 ;; Hardware stack levels used: 1
  3870 ;; Hardware stack levels required when called: 1
  3871 ;; This function calls:
  3872 ;;		Nothing
  3873 ;; This function is called by:
  3874 ;;		_PWM1
  3875 ;;		_PWM2
  3876 ;;		_map
  3877 ;; This function uses a non-reentrant model
  3878 ;;
  3879                           
  3880     036A                     ___fladd:	
  3881                           ;psect for function ___fladd
  3882                           
  3883     036A                     l1459:	
  3884                           ;incstack = 0
  3885                           ; Regs used in ___fladd: [wreg+status,2+status,0+btemp+1]
  3886                           
  3887     036A  1283               	bcf	3,5	;RP0=0, select bank0
  3888     036B  1303               	bcf	3,6	;RP1=0, select bank0
  3889     036C  084B               	movf	___fladd@b+3,w
  3890     036D  3980               	andlw	128
  3891     036E  00D8               	movwf	___fladd@signs
  3892     036F                     l1461:
  3893     036F  084B               	movf	___fladd@b+3,w
  3894     0370  00D0               	movwf	??___fladd
  3895     0371  0750               	addwf	??___fladd,w
  3896     0372  00DA               	movwf	___fladd@bexp
  3897     0373                     l1463:
  3898     0373  1FCA               	btfss	___fladd@b+2,7
  3899     0374  2B76               	goto	u1421
  3900     0375  2B77               	goto	u1420
  3901     0376                     u1421:
  3902     0376  2B78               	goto	l1467
  3903     0377                     u1420:
  3904     0377                     l1465:
  3905     0377  145A               	bsf	___fladd@bexp,0
  3906     0378                     l1467:
  3907     0378  085A               	movf	___fladd@bexp,w
  3908     0379  1903               	btfsc	3,2
  3909     037A  2B7C               	goto	u1431
  3910     037B  2B7D               	goto	u1430
  3911     037C                     u1431:
  3912     037C  2B8D               	goto	l1477
  3913     037D                     u1430:
  3914     037D                     l1469:
  3915     037D  0A5A               	incf	___fladd@bexp,w
  3916     037E  1D03               	btfss	3,2
  3917     037F  2B81               	goto	u1441
  3918     0380  2B82               	goto	u1440
  3919     0381                     u1441:
  3920     0381  2B8A               	goto	l1473
  3921     0382                     u1440:
  3922     0382                     l1471:
  3923     0382  3000               	movlw	0
  3924     0383  00CB               	movwf	___fladd@b+3
  3925     0384  3000               	movlw	0
  3926     0385  00CA               	movwf	___fladd@b+2
  3927     0386  3000               	movlw	0
  3928     0387  00C9               	movwf	___fladd@b+1
  3929     0388  3000               	movlw	0
  3930     0389  00C8               	movwf	___fladd@b
  3931     038A                     l1473:
  3932     038A  17CA               	bsf	___fladd@b+2,7
  3933     038B                     l1475:
  3934     038B  01CB               	clrf	___fladd@b+3
  3935     038C  2B95               	goto	l1479
  3936     038D                     l1477:
  3937     038D  3000               	movlw	0
  3938     038E  00CB               	movwf	___fladd@b+3
  3939     038F  3000               	movlw	0
  3940     0390  00CA               	movwf	___fladd@b+2
  3941     0391  3000               	movlw	0
  3942     0392  00C9               	movwf	___fladd@b+1
  3943     0393  3000               	movlw	0
  3944     0394  00C8               	movwf	___fladd@b
  3945     0395                     l1479:
  3946     0395  084F               	movf	___fladd@a+3,w
  3947     0396  3980               	andlw	128
  3948     0397  00D9               	movwf	___fladd@aexp
  3949     0398                     l1481:
  3950     0398  0859               	movf	___fladd@aexp,w
  3951     0399  0658               	xorwf	___fladd@signs,w
  3952     039A  1903               	skipnz
  3953     039B  2B9D               	goto	u1451
  3954     039C  2B9E               	goto	u1450
  3955     039D                     u1451:
  3956     039D  2B9F               	goto	l1485
  3957     039E                     u1450:
  3958     039E                     l1483:
  3959     039E  1758               	bsf	___fladd@signs,6
  3960     039F                     l1485:
  3961     039F  084F               	movf	___fladd@a+3,w
  3962     03A0  00D0               	movwf	??___fladd
  3963     03A1  0750               	addwf	??___fladd,w
  3964     03A2  00D9               	movwf	___fladd@aexp
  3965     03A3                     l1487:
  3966     03A3  1FCE               	btfss	___fladd@a+2,7
  3967     03A4  2BA6               	goto	u1461
  3968     03A5  2BA7               	goto	u1460
  3969     03A6                     u1461:
  3970     03A6  2BA8               	goto	l1491
  3971     03A7                     u1460:
  3972     03A7                     l1489:
  3973     03A7  1459               	bsf	___fladd@aexp,0
  3974     03A8                     l1491:
  3975     03A8  0859               	movf	___fladd@aexp,w
  3976     03A9  1903               	btfsc	3,2
  3977     03AA  2BAC               	goto	u1471
  3978     03AB  2BAD               	goto	u1470
  3979     03AC                     u1471:
  3980     03AC  2BBD               	goto	l1501
  3981     03AD                     u1470:
  3982     03AD                     l1493:
  3983     03AD  0A59               	incf	___fladd@aexp,w
  3984     03AE  1D03               	btfss	3,2
  3985     03AF  2BB1               	goto	u1481
  3986     03B0  2BB2               	goto	u1480
  3987     03B1                     u1481:
  3988     03B1  2BBA               	goto	l1497
  3989     03B2                     u1480:
  3990     03B2                     l1495:
  3991     03B2  3000               	movlw	0
  3992     03B3  00CF               	movwf	___fladd@a+3
  3993     03B4  3000               	movlw	0
  3994     03B5  00CE               	movwf	___fladd@a+2
  3995     03B6  3000               	movlw	0
  3996     03B7  00CD               	movwf	___fladd@a+1
  3997     03B8  3000               	movlw	0
  3998     03B9  00CC               	movwf	___fladd@a
  3999     03BA                     l1497:
  4000     03BA  17CE               	bsf	___fladd@a+2,7
  4001     03BB                     l1499:
  4002     03BB  01CF               	clrf	___fladd@a+3
  4003     03BC  2BC5               	goto	l552
  4004     03BD                     l1501:
  4005     03BD  3000               	movlw	0
  4006     03BE  00CF               	movwf	___fladd@a+3
  4007     03BF  3000               	movlw	0
  4008     03C0  00CE               	movwf	___fladd@a+2
  4009     03C1  3000               	movlw	0
  4010     03C2  00CD               	movwf	___fladd@a+1
  4011     03C3  3000               	movlw	0
  4012     03C4  00CC               	movwf	___fladd@a
  4013     03C5                     l552:
  4014     03C5  085A               	movf	___fladd@bexp,w
  4015     03C6  0259               	subwf	___fladd@aexp,w
  4016     03C7  1803               	skipnc
  4017     03C8  2BCA               	goto	u1491
  4018     03C9  2BCB               	goto	u1490
  4019     03CA                     u1491:
  4020     03CA  2BF1               	goto	l1537
  4021     03CB                     u1490:
  4022     03CB                     l1503:
  4023     03CB  1F58               	btfss	___fladd@signs,6
  4024     03CC  2BCE               	goto	u1501
  4025     03CD  2BCF               	goto	u1500
  4026     03CE                     u1501:
  4027     03CE  2BD3               	goto	l1507
  4028     03CF                     u1500:
  4029     03CF                     l1505:
  4030     03CF  3080               	movlw	128
  4031     03D0  00D0               	movwf	??___fladd
  4032     03D1  0850               	movf	??___fladd,w
  4033     03D2  06D8               	xorwf	___fladd@signs,f
  4034     03D3                     l1507:
  4035     03D3  085A               	movf	___fladd@bexp,w
  4036     03D4  00DB               	movwf	___fladd@grs
  4037     03D5                     l1509:
  4038     03D5  0859               	movf	___fladd@aexp,w
  4039     03D6  00DA               	movwf	___fladd@bexp
  4040     03D7                     l1511:
  4041     03D7  085B               	movf	___fladd@grs,w
  4042     03D8  00D9               	movwf	___fladd@aexp
  4043     03D9                     l1513:
  4044     03D9  0848               	movf	___fladd@b,w
  4045     03DA  00DB               	movwf	___fladd@grs
  4046     03DB                     l1515:
  4047     03DB  084C               	movf	___fladd@a,w
  4048     03DC  00C8               	movwf	___fladd@b
  4049     03DD                     l1517:
  4050     03DD  085B               	movf	___fladd@grs,w
  4051     03DE  00CC               	movwf	___fladd@a
  4052     03DF                     l1519:
  4053     03DF  0849               	movf	___fladd@b+1,w
  4054     03E0  00DB               	movwf	___fladd@grs
  4055     03E1                     l1521:
  4056     03E1  084D               	movf	___fladd@a+1,w
  4057     03E2  00C9               	movwf	___fladd@b+1
  4058     03E3                     l1523:
  4059     03E3  085B               	movf	___fladd@grs,w
  4060     03E4  00CD               	movwf	___fladd@a+1
  4061     03E5                     l1525:
  4062     03E5  084A               	movf	___fladd@b+2,w
  4063     03E6  00DB               	movwf	___fladd@grs
  4064     03E7                     l1527:
  4065     03E7  084E               	movf	___fladd@a+2,w
  4066     03E8  00CA               	movwf	___fladd@b+2
  4067     03E9                     l1529:
  4068     03E9  085B               	movf	___fladd@grs,w
  4069     03EA  00CE               	movwf	___fladd@a+2
  4070     03EB                     l1531:
  4071     03EB  084B               	movf	___fladd@b+3,w
  4072     03EC  00DB               	movwf	___fladd@grs
  4073     03ED                     l1533:
  4074     03ED  084F               	movf	___fladd@a+3,w
  4075     03EE  00CB               	movwf	___fladd@b+3
  4076     03EF                     l1535:
  4077     03EF  085B               	movf	___fladd@grs,w
  4078     03F0  00CF               	movwf	___fladd@a+3
  4079     03F1                     l1537:
  4080     03F1  01DB               	clrf	___fladd@grs
  4081     03F2                     l1539:
  4082     03F2  0859               	movf	___fladd@aexp,w
  4083     03F3  00D0               	movwf	??___fladd
  4084     03F4  01D1               	clrf	??___fladd+1
  4085     03F5  0851               	movf	??___fladd+1,w
  4086     03F6  00D3               	movwf	??___fladd+3
  4087     03F7  085A               	movf	___fladd@bexp,w
  4088     03F8  0250               	subwf	??___fladd,w
  4089     03F9  00D2               	movwf	??___fladd+2
  4090     03FA  1C03               	skipc
  4091     03FB  03D3               	decf	??___fladd+3,f
  4092     03FC  0853               	movf	??___fladd+3,w
  4093     03FD  3A80               	xorlw	128
  4094     03FE  00FF               	movwf	btemp+1
  4095     03FF  3080               	movlw	128
  4096     0400  027F               	subwf	btemp+1,w
  4097     0401  1D03               	skipz
  4098     0402  2C05               	goto	u1515
  4099     0403  301A               	movlw	26
  4100     0404  0252               	subwf	??___fladd+2,w
  4101     0405                     u1515:
  4102     0405  1C03               	skipc
  4103     0406  2C08               	goto	u1511
  4104     0407  2C09               	goto	u1510
  4105     0408                     u1511:
  4106     0408  2C40               	goto	l1555
  4107     0409                     u1510:
  4108     0409                     l1541:
  4109     0409  1283               	bcf	3,5	;RP0=0, select bank0
  4110     040A  1303               	bcf	3,6	;RP1=0, select bank0
  4111     040B  084B               	movf	___fladd@b+3,w
  4112     040C  044A               	iorwf	___fladd@b+2,w
  4113     040D  0449               	iorwf	___fladd@b+1,w
  4114     040E  0448               	iorwf	___fladd@b,w
  4115     040F  1D03               	skipz
  4116     0410  2C12               	goto	u1521
  4117     0411  2C14               	goto	u1520
  4118     0412                     u1521:
  4119     0412  3001               	movlw	1
  4120     0413  2C15               	goto	u1530
  4121     0414                     u1520:
  4122     0414  3000               	movlw	0
  4123     0415                     u1530:
  4124     0415  00DB               	movwf	___fladd@grs
  4125     0416  3000               	movlw	0
  4126     0417  00CB               	movwf	___fladd@b+3
  4127     0418  3000               	movlw	0
  4128     0419  00CA               	movwf	___fladd@b+2
  4129     041A  3000               	movlw	0
  4130     041B  00C9               	movwf	___fladd@b+1
  4131     041C  3000               	movlw	0
  4132     041D  00C8               	movwf	___fladd@b
  4133     041E  0859               	movf	___fladd@aexp,w
  4134     041F  00DA               	movwf	___fladd@bexp
  4135     0420  2C48               	goto	l556
  4136     0421                     l558:
  4137     0421  1C5B               	btfss	___fladd@grs,0
  4138     0422  2C24               	goto	u1541
  4139     0423  2C25               	goto	u1540
  4140     0424                     u1541:
  4141     0424  2C2C               	goto	l1545
  4142     0425                     u1540:
  4143     0425                     l1543:
  4144     0425  085B               	movf	___fladd@grs,w
  4145     0426  00D0               	movwf	??___fladd
  4146     0427  1003               	clrc
  4147     0428  0C50               	rrf	??___fladd,w
  4148     0429  3801               	iorlw	1
  4149     042A  00DB               	movwf	___fladd@grs
  4150     042B  2C2E               	goto	l1547
  4151     042C                     l1545:
  4152     042C  1003               	clrc
  4153     042D  0CDB               	rrf	___fladd@grs,f
  4154     042E                     l1547:
  4155     042E  1C48               	btfss	___fladd@b,0
  4156     042F  2C31               	goto	u1551
  4157     0430  2C32               	goto	u1550
  4158     0431                     u1551:
  4159     0431  2C33               	goto	l1551
  4160     0432                     u1550:
  4161     0432                     l1549:
  4162     0432  17DB               	bsf	___fladd@grs,7
  4163     0433                     l1551:
  4164     0433  3001               	movlw	1
  4165     0434  00D0               	movwf	??___fladd
  4166     0435                     u1565:
  4167     0435  0D4B               	rlf	___fladd@b+3,w
  4168     0436  0CCB               	rrf	___fladd@b+3,f
  4169     0437  0CCA               	rrf	___fladd@b+2,f
  4170     0438  0CC9               	rrf	___fladd@b+1,f
  4171     0439  0CC8               	rrf	___fladd@b,f
  4172     043A  0BD0               	decfsz	??___fladd& (0+127),f
  4173     043B  2C35               	goto	u1565
  4174     043C                     l1553:
  4175     043C  3001               	movlw	1
  4176     043D  00D0               	movwf	??___fladd
  4177     043E  0850               	movf	??___fladd,w
  4178     043F  07DA               	addwf	___fladd@bexp,f
  4179     0440                     l1555:
  4180     0440  1283               	bcf	3,5	;RP0=0, select bank0
  4181     0441  1303               	bcf	3,6	;RP1=0, select bank0
  4182     0442  0859               	movf	___fladd@aexp,w
  4183     0443  025A               	subwf	___fladd@bexp,w
  4184     0444  1C03               	skipc
  4185     0445  2C47               	goto	u1571
  4186     0446  2C48               	goto	u1570
  4187     0447                     u1571:
  4188     0447  2C21               	goto	l558
  4189     0448                     u1570:
  4190     0448                     l556:
  4191     0448  1B58               	btfsc	___fladd@signs,6
  4192     0449  2C4B               	goto	u1581
  4193     044A  2C4C               	goto	u1580
  4194     044B                     u1581:
  4195     044B  2C95               	goto	l1581
  4196     044C                     u1580:
  4197     044C                     l1557:
  4198     044C  085A               	movf	___fladd@bexp,w
  4199     044D  1D03               	btfss	3,2
  4200     044E  2C50               	goto	u1591
  4201     044F  2C51               	goto	u1590
  4202     0450                     u1591:
  4203     0450  2C5A               	goto	l1563
  4204     0451                     u1590:
  4205     0451                     l1559:
  4206     0451  3000               	movlw	0
  4207     0452  00CB               	movwf	?___fladd+3
  4208     0453  3000               	movlw	0
  4209     0454  00CA               	movwf	?___fladd+2
  4210     0455  3000               	movlw	0
  4211     0456  00C9               	movwf	?___fladd+1
  4212     0457  3000               	movlw	0
  4213     0458  00C8               	movwf	?___fladd
  4214     0459  2DC1               	goto	l565
  4215     045A                     l1563:
  4216     045A  084C               	movf	___fladd@a,w
  4217     045B  07C8               	addwf	___fladd@b,f
  4218     045C  084D               	movf	___fladd@a+1,w
  4219     045D  1103               	clrz
  4220     045E  1803               	skipnc
  4221     045F  3E01               	addlw	1
  4222     0460  1903               	skipnz
  4223     0461  2C63               	goto	u1601
  4224     0462  07C9               	addwf	___fladd@b+1,f
  4225     0463                     u1601:
  4226     0463  084E               	movf	___fladd@a+2,w
  4227     0464  1103               	clrz
  4228     0465  1803               	skipnc
  4229     0466  3E01               	addlw	1
  4230     0467  1903               	skipnz
  4231     0468  2C6A               	goto	u1602
  4232     0469  07CA               	addwf	___fladd@b+2,f
  4233     046A                     u1602:
  4234     046A  084F               	movf	___fladd@a+3,w
  4235     046B  1103               	clrz
  4236     046C  1803               	skipnc
  4237     046D  3E01               	addlw	1
  4238     046E  1903               	skipnz
  4239     046F  2C71               	goto	u1603
  4240     0470  07CB               	addwf	___fladd@b+3,f
  4241     0471                     u1603:
  4242     0471                     l1565:
  4243     0471  1C4B               	btfss	___fladd@b+3,0
  4244     0472  2C74               	goto	u1611
  4245     0473  2C75               	goto	u1610
  4246     0474                     u1611:
  4247     0474  2D49               	goto	l1615
  4248     0475                     u1610:
  4249     0475                     l1567:
  4250     0475  1C5B               	btfss	___fladd@grs,0
  4251     0476  2C78               	goto	u1621
  4252     0477  2C79               	goto	u1620
  4253     0478                     u1621:
  4254     0478  2C80               	goto	l1571
  4255     0479                     u1620:
  4256     0479                     l1569:
  4257     0479  085B               	movf	___fladd@grs,w
  4258     047A  00D0               	movwf	??___fladd
  4259     047B  1003               	clrc
  4260     047C  0C50               	rrf	??___fladd,w
  4261     047D  3801               	iorlw	1
  4262     047E  00DB               	movwf	___fladd@grs
  4263     047F  2C82               	goto	l1573
  4264     0480                     l1571:
  4265     0480  1003               	clrc
  4266     0481  0CDB               	rrf	___fladd@grs,f
  4267     0482                     l1573:
  4268     0482  1C48               	btfss	___fladd@b,0
  4269     0483  2C85               	goto	u1631
  4270     0484  2C86               	goto	u1630
  4271     0485                     u1631:
  4272     0485  2C87               	goto	l1577
  4273     0486                     u1630:
  4274     0486                     l1575:
  4275     0486  17DB               	bsf	___fladd@grs,7
  4276     0487                     l1577:
  4277     0487  3001               	movlw	1
  4278     0488  00D0               	movwf	??___fladd
  4279     0489                     u1645:
  4280     0489  0D4B               	rlf	___fladd@b+3,w
  4281     048A  0CCB               	rrf	___fladd@b+3,f
  4282     048B  0CCA               	rrf	___fladd@b+2,f
  4283     048C  0CC9               	rrf	___fladd@b+1,f
  4284     048D  0CC8               	rrf	___fladd@b,f
  4285     048E  0BD0               	decfsz	??___fladd& (0+127),f
  4286     048F  2C89               	goto	u1645
  4287     0490                     l1579:
  4288     0490  3001               	movlw	1
  4289     0491  00D0               	movwf	??___fladd
  4290     0492  0850               	movf	??___fladd,w
  4291     0493  07DA               	addwf	___fladd@bexp,f
  4292     0494  2D49               	goto	l1615
  4293     0495                     l1581:
  4294     0495  084B               	movf	___fladd@b+3,w
  4295     0496  3A80               	xorlw	128
  4296     0497  00FF               	movwf	btemp+1
  4297     0498  084F               	movf	___fladd@a+3,w
  4298     0499  3A80               	xorlw	128
  4299     049A  027F               	subwf	btemp+1,w
  4300     049B  1D03               	skipz
  4301     049C  2CA7               	goto	u1653
  4302     049D  084E               	movf	___fladd@a+2,w
  4303     049E  024A               	subwf	___fladd@b+2,w
  4304     049F  1D03               	skipz
  4305     04A0  2CA7               	goto	u1653
  4306     04A1  084D               	movf	___fladd@a+1,w
  4307     04A2  0249               	subwf	___fladd@b+1,w
  4308     04A3  1D03               	skipz
  4309     04A4  2CA7               	goto	u1653
  4310     04A5  084C               	movf	___fladd@a,w
  4311     04A6  0248               	subwf	___fladd@b,w
  4312     04A7                     u1653:
  4313     04A7  1803               	skipnc
  4314     04A8  2CAA               	goto	u1651
  4315     04A9  2CAB               	goto	u1650
  4316     04AA                     u1651:
  4317     04AA  2D03               	goto	l1591
  4318     04AB                     u1650:
  4319     04AB                     l1583:
  4320     04AB  30FF               	movlw	255
  4321     04AC  00D0               	movwf	??___fladd
  4322     04AD  30FF               	movlw	255
  4323     04AE  00D1               	movwf	??___fladd+1
  4324     04AF  30FF               	movlw	255
  4325     04B0  00D2               	movwf	??___fladd+2
  4326     04B1  30FF               	movlw	255
  4327     04B2  00D3               	movwf	??___fladd+3
  4328     04B3  084C               	movf	___fladd@a,w
  4329     04B4  00D4               	movwf	??___fladd+4
  4330     04B5  084D               	movf	___fladd@a+1,w
  4331     04B6  00D5               	movwf	??___fladd+5
  4332     04B7  084E               	movf	___fladd@a+2,w
  4333     04B8  00D6               	movwf	??___fladd+6
  4334     04B9  084F               	movf	___fladd@a+3,w
  4335     04BA  00D7               	movwf	??___fladd+7
  4336     04BB  0848               	movf	___fladd@b,w
  4337     04BC  02D4               	subwf	??___fladd+4,f
  4338     04BD  0849               	movf	___fladd@b+1,w
  4339     04BE  1C03               	skipc
  4340     04BF  0F49               	incfsz	___fladd@b+1,w
  4341     04C0  2CC2               	goto	u1661
  4342     04C1  2CC3               	goto	u1662
  4343     04C2                     u1661:
  4344     04C2  02D5               	subwf	??___fladd+5,f
  4345     04C3                     u1662:
  4346     04C3  084A               	movf	___fladd@b+2,w
  4347     04C4  1C03               	skipc
  4348     04C5  0F4A               	incfsz	___fladd@b+2,w
  4349     04C6  2CC8               	goto	u1663
  4350     04C7  2CC9               	goto	u1664
  4351     04C8                     u1663:
  4352     04C8  02D6               	subwf	??___fladd+6,f
  4353     04C9                     u1664:
  4354     04C9  084B               	movf	___fladd@b+3,w
  4355     04CA  1C03               	skipc
  4356     04CB  0F4B               	incfsz	___fladd@b+3,w
  4357     04CC  2CCE               	goto	u1665
  4358     04CD  2CCF               	goto	u1666
  4359     04CE                     u1665:
  4360     04CE  02D7               	subwf	??___fladd+7,f
  4361     04CF                     u1666:
  4362     04CF  0854               	movf	??___fladd+4,w
  4363     04D0  07D0               	addwf	??___fladd,f
  4364     04D1  0855               	movf	??___fladd+5,w
  4365     04D2  1803               	skipnc
  4366     04D3  0F55               	incfsz	??___fladd+5,w
  4367     04D4  2CD6               	goto	u1670
  4368     04D5  2CD7               	goto	u1671
  4369     04D6                     u1670:
  4370     04D6  07D1               	addwf	??___fladd+1,f
  4371     04D7                     u1671:
  4372     04D7  0856               	movf	??___fladd+6,w
  4373     04D8  1803               	skipnc
  4374     04D9  0F56               	incfsz	??___fladd+6,w
  4375     04DA  2CDC               	goto	u1672
  4376     04DB  2CDD               	goto	u1673
  4377     04DC                     u1672:
  4378     04DC  07D2               	addwf	??___fladd+2,f
  4379     04DD                     u1673:
  4380     04DD  0857               	movf	??___fladd+7,w
  4381     04DE  1803               	skipnc
  4382     04DF  0A57               	incf	??___fladd+7,w
  4383     04E0  07D3               	addwf	??___fladd+3,f
  4384     04E1  0853               	movf	??___fladd+3,w
  4385     04E2  00CB               	movwf	___fladd@b+3
  4386     04E3  0852               	movf	??___fladd+2,w
  4387     04E4  00CA               	movwf	___fladd@b+2
  4388     04E5  0851               	movf	??___fladd+1,w
  4389     04E6  00C9               	movwf	___fladd@b+1
  4390     04E7  0850               	movf	??___fladd,w
  4391     04E8  00C8               	movwf	___fladd@b
  4392     04E9                     l1585:
  4393     04E9  3080               	movlw	128
  4394     04EA  00D0               	movwf	??___fladd
  4395     04EB  0850               	movf	??___fladd,w
  4396     04EC  06D8               	xorwf	___fladd@signs,f
  4397     04ED  09DB               	comf	___fladd@grs,f
  4398     04EE  0ADB               	incf	___fladd@grs,f
  4399     04EF                     l1587:
  4400     04EF  085B               	movf	___fladd@grs,w
  4401     04F0  1D03               	btfss	3,2
  4402     04F1  2CF3               	goto	u1681
  4403     04F2  2CF4               	goto	u1680
  4404     04F3                     u1681:
  4405     04F3  2D11               	goto	l573
  4406     04F4                     u1680:
  4407     04F4                     l1589:
  4408     04F4  3001               	movlw	1
  4409     04F5  07C8               	addwf	___fladd@b,f
  4410     04F6  3000               	movlw	0
  4411     04F7  1803               	skipnc
  4412     04F8  3001               	movlw	1
  4413     04F9  07C9               	addwf	___fladd@b+1,f
  4414     04FA  3000               	movlw	0
  4415     04FB  1803               	skipnc
  4416     04FC  3001               	movlw	1
  4417     04FD  07CA               	addwf	___fladd@b+2,f
  4418     04FE  3000               	movlw	0
  4419     04FF  1803               	skipnc
  4420     0500  3001               	movlw	1
  4421     0501  07CB               	addwf	___fladd@b+3,f
  4422     0502  2D11               	goto	l573
  4423     0503                     l1591:
  4424     0503  084C               	movf	___fladd@a,w
  4425     0504  02C8               	subwf	___fladd@b,f
  4426     0505  084D               	movf	___fladd@a+1,w
  4427     0506  1C03               	skipc
  4428     0507  0F4D               	incfsz	___fladd@a+1,w
  4429     0508  02C9               	subwf	___fladd@b+1,f
  4430     0509  084E               	movf	___fladd@a+2,w
  4431     050A  1C03               	skipc
  4432     050B  0F4E               	incfsz	___fladd@a+2,w
  4433     050C  02CA               	subwf	___fladd@b+2,f
  4434     050D  084F               	movf	___fladd@a+3,w
  4435     050E  1C03               	skipc
  4436     050F  0F4F               	incfsz	___fladd@a+3,w
  4437     0510  02CB               	subwf	___fladd@b+3,f
  4438     0511                     l573:
  4439     0511  084B               	movf	___fladd@b+3,w
  4440     0512  044A               	iorwf	___fladd@b+2,w
  4441     0513  0449               	iorwf	___fladd@b+1,w
  4442     0514  0448               	iorwf	___fladd@b,w
  4443     0515  1D03               	skipz
  4444     0516  2D18               	goto	u1691
  4445     0517  2D19               	goto	u1690
  4446     0518                     u1691:
  4447     0518  2D45               	goto	l1613
  4448     0519                     u1690:
  4449     0519                     l1593:
  4450     0519  085B               	movf	___fladd@grs,w
  4451     051A  1D03               	btfss	3,2
  4452     051B  2D1D               	goto	u1701
  4453     051C  2D1E               	goto	u1700
  4454     051D                     u1701:
  4455     051D  2D45               	goto	l1613
  4456     051E                     u1700:
  4457     051E                     l1595:
  4458     051E  3000               	movlw	0
  4459     051F  00CB               	movwf	?___fladd+3
  4460     0520  3000               	movlw	0
  4461     0521  00CA               	movwf	?___fladd+2
  4462     0522  3000               	movlw	0
  4463     0523  00C9               	movwf	?___fladd+1
  4464     0524  3000               	movlw	0
  4465     0525  00C8               	movwf	?___fladd
  4466     0526  2DC1               	goto	l565
  4467     0527                     l1599:
  4468     0527  3001               	movlw	1
  4469     0528  00D0               	movwf	??___fladd
  4470     0529                     u1715:
  4471     0529  1003               	clrc
  4472     052A  0DC8               	rlf	___fladd@b,f
  4473     052B  0DC9               	rlf	___fladd@b+1,f
  4474     052C  0DCA               	rlf	___fladd@b+2,f
  4475     052D  0DCB               	rlf	___fladd@b+3,f
  4476     052E  0BD0               	decfsz	??___fladd,f
  4477     052F  2D29               	goto	u1715
  4478     0530                     l1601:
  4479     0530  1FDB               	btfss	___fladd@grs,7
  4480     0531  2D33               	goto	u1721
  4481     0532  2D34               	goto	u1720
  4482     0533                     u1721:
  4483     0533  2D35               	goto	l577
  4484     0534                     u1720:
  4485     0534                     l1603:
  4486     0534  1448               	bsf	___fladd@b,0
  4487     0535                     l577:
  4488     0535  1C5B               	btfss	___fladd@grs,0
  4489     0536  2D38               	goto	u1731
  4490     0537  2D39               	goto	u1730
  4491     0538                     u1731:
  4492     0538  2D3C               	goto	l1607
  4493     0539                     u1730:
  4494     0539                     l1605:
  4495     0539  1403               	setc
  4496     053A  0DDB               	rlf	___fladd@grs,f
  4497     053B  2D3E               	goto	l1609
  4498     053C                     l1607:
  4499     053C  1003               	clrc
  4500     053D  0DDB               	rlf	___fladd@grs,f
  4501     053E                     l1609:
  4502     053E  085A               	movf	___fladd@bexp,w
  4503     053F  1903               	btfsc	3,2
  4504     0540  2D42               	goto	u1741
  4505     0541  2D43               	goto	u1740
  4506     0542                     u1741:
  4507     0542  2D45               	goto	l1613
  4508     0543                     u1740:
  4509     0543                     l1611:
  4510     0543  3001               	movlw	1
  4511     0544  02DA               	subwf	___fladd@bexp,f
  4512     0545                     l1613:
  4513     0545  1FCA               	btfss	___fladd@b+2,7
  4514     0546  2D48               	goto	u1751
  4515     0547  2D49               	goto	u1750
  4516     0548                     u1751:
  4517     0548  2D27               	goto	l1599
  4518     0549                     u1750:
  4519     0549                     l1615:
  4520     0549  01D9               	clrf	___fladd@aexp
  4521     054A                     l1617:
  4522     054A  1FDB               	btfss	___fladd@grs,7
  4523     054B  2D4D               	goto	u1761
  4524     054C  2D4E               	goto	u1760
  4525     054D                     u1761:
  4526     054D  2D5C               	goto	l1625
  4527     054E                     u1760:
  4528     054E                     l1619:
  4529     054E  085B               	movf	___fladd@grs,w
  4530     054F  397F               	andlw	127
  4531     0550  1903               	btfsc	3,2
  4532     0551  2D53               	goto	u1771
  4533     0552  2D54               	goto	u1770
  4534     0553                     u1771:
  4535     0553  2D57               	goto	l583
  4536     0554                     u1770:
  4537     0554                     l1621:
  4538     0554  01D9               	clrf	___fladd@aexp
  4539     0555  0AD9               	incf	___fladd@aexp,f
  4540     0556  2D5C               	goto	l1625
  4541     0557                     l583:
  4542     0557  1C48               	btfss	___fladd@b,0
  4543     0558  2D5A               	goto	u1781
  4544     0559  2D5B               	goto	u1780
  4545     055A                     u1781:
  4546     055A  2D5C               	goto	l1625
  4547     055B                     u1780:
  4548     055B  2D54               	goto	l1621
  4549     055C                     l1625:
  4550     055C  0859               	movf	___fladd@aexp,w
  4551     055D  1903               	btfsc	3,2
  4552     055E  2D60               	goto	u1791
  4553     055F  2D61               	goto	u1790
  4554     0560                     u1791:
  4555     0560  2D95               	goto	l586
  4556     0561                     u1790:
  4557     0561                     l1627:
  4558     0561  3001               	movlw	1
  4559     0562  07C8               	addwf	___fladd@b,f
  4560     0563  3000               	movlw	0
  4561     0564  1803               	skipnc
  4562     0565  3001               	movlw	1
  4563     0566  07C9               	addwf	___fladd@b+1,f
  4564     0567  3000               	movlw	0
  4565     0568  1803               	skipnc
  4566     0569  3001               	movlw	1
  4567     056A  07CA               	addwf	___fladd@b+2,f
  4568     056B  3000               	movlw	0
  4569     056C  1803               	skipnc
  4570     056D  3001               	movlw	1
  4571     056E  07CB               	addwf	___fladd@b+3,f
  4572     056F                     l1629:
  4573     056F  1C4B               	btfss	___fladd@b+3,0
  4574     0570  2D72               	goto	u1801
  4575     0571  2D73               	goto	u1800
  4576     0572                     u1801:
  4577     0572  2D95               	goto	l586
  4578     0573                     u1800:
  4579     0573                     l1631:
  4580     0573  0848               	movf	___fladd@b,w
  4581     0574  00D0               	movwf	??___fladd
  4582     0575  0849               	movf	___fladd@b+1,w
  4583     0576  00D1               	movwf	??___fladd+1
  4584     0577  084A               	movf	___fladd@b+2,w
  4585     0578  00D2               	movwf	??___fladd+2
  4586     0579  084B               	movf	___fladd@b+3,w
  4587     057A  00D3               	movwf	??___fladd+3
  4588     057B  3001               	movlw	1
  4589     057C  00D4               	movwf	??___fladd+4
  4590     057D                     u1815:
  4591     057D  0D53               	rlf	??___fladd+3,w
  4592     057E  0CD3               	rrf	??___fladd+3,f
  4593     057F  0CD2               	rrf	??___fladd+2,f
  4594     0580  0CD1               	rrf	??___fladd+1,f
  4595     0581  0CD0               	rrf	??___fladd,f
  4596     0582                     u1810:
  4597     0582  0BD4               	decfsz	??___fladd+4,f
  4598     0583  2D7D               	goto	u1815
  4599     0584  0853               	movf	??___fladd+3,w
  4600     0585  00CB               	movwf	___fladd@b+3
  4601     0586  0852               	movf	??___fladd+2,w
  4602     0587  00CA               	movwf	___fladd@b+2
  4603     0588  0851               	movf	??___fladd+1,w
  4604     0589  00C9               	movwf	___fladd@b+1
  4605     058A  0850               	movf	??___fladd,w
  4606     058B  00C8               	movwf	___fladd@b
  4607     058C  0A5A               	incf	___fladd@bexp,w
  4608     058D  1903               	btfsc	3,2
  4609     058E  2D90               	goto	u1821
  4610     058F  2D91               	goto	u1820
  4611     0590                     u1821:
  4612     0590  2D95               	goto	l586
  4613     0591                     u1820:
  4614     0591                     l1633:
  4615     0591  3001               	movlw	1
  4616     0592  00D0               	movwf	??___fladd
  4617     0593  0850               	movf	??___fladd,w
  4618     0594  07DA               	addwf	___fladd@bexp,f
  4619     0595                     l586:
  4620     0595  0A5A               	incf	___fladd@bexp,w
  4621     0596  1903               	btfsc	3,2
  4622     0597  2D99               	goto	u1831
  4623     0598  2D9A               	goto	u1830
  4624     0599                     u1831:
  4625     0599  2D9F               	goto	l1637
  4626     059A                     u1830:
  4627     059A                     l1635:
  4628     059A  085A               	movf	___fladd@bexp,w
  4629     059B  1D03               	btfss	3,2
  4630     059C  2D9E               	goto	u1841
  4631     059D  2D9F               	goto	u1840
  4632     059E                     u1841:
  4633     059E  2DAD               	goto	l1643
  4634     059F                     u1840:
  4635     059F                     l1637:
  4636     059F  3000               	movlw	0
  4637     05A0  00CB               	movwf	___fladd@b+3
  4638     05A1  3000               	movlw	0
  4639     05A2  00CA               	movwf	___fladd@b+2
  4640     05A3  3000               	movlw	0
  4641     05A4  00C9               	movwf	___fladd@b+1
  4642     05A5  3000               	movlw	0
  4643     05A6  00C8               	movwf	___fladd@b
  4644     05A7                     l1639:
  4645     05A7  085A               	movf	___fladd@bexp,w
  4646     05A8  1D03               	btfss	3,2
  4647     05A9  2DAB               	goto	u1851
  4648     05AA  2DAC               	goto	u1850
  4649     05AB                     u1851:
  4650     05AB  2DAD               	goto	l1643
  4651     05AC                     u1850:
  4652     05AC                     l1641:
  4653     05AC  01D8               	clrf	___fladd@signs
  4654     05AD                     l1643:
  4655     05AD  1C5A               	btfss	___fladd@bexp,0
  4656     05AE  2DB0               	goto	u1861
  4657     05AF  2DB1               	goto	u1860
  4658     05B0                     u1861:
  4659     05B0  2DB3               	goto	l1647
  4660     05B1                     u1860:
  4661     05B1                     l1645:
  4662     05B1  17CA               	bsf	___fladd@b+2,7
  4663     05B2  2DB7               	goto	l594
  4664     05B3                     l1647:
  4665     05B3  307F               	movlw	127
  4666     05B4  00D0               	movwf	??___fladd
  4667     05B5  0850               	movf	??___fladd,w
  4668     05B6  05CA               	andwf	___fladd@b+2,f
  4669     05B7                     l594:
  4670     05B7  085A               	movf	___fladd@bexp,w
  4671     05B8  00D0               	movwf	??___fladd
  4672     05B9  1003               	clrc
  4673     05BA  0C50               	rrf	??___fladd,w
  4674     05BB  00CB               	movwf	___fladd@b+3
  4675     05BC                     l1649:
  4676     05BC  1FD8               	btfss	___fladd@signs,7
  4677     05BD  2DBF               	goto	u1871
  4678     05BE  2DC0               	goto	u1870
  4679     05BF                     u1871:
  4680     05BF  2DC1               	goto	l595
  4681     05C0                     u1870:
  4682     05C0                     l1651:
  4683     05C0  17CB               	bsf	___fladd@b+3,7
  4684     05C1                     l595:
  4685     05C1                     l565:
  4686     05C1  0008               	return
  4687     05C2                     __end_of___fladd:
  4688                           
  4689                           	psect	text17
  4690     0E23                     __ptext17:	
  4691 ;; *************** function _isr *****************
  4692 ;; Defined at:
  4693 ;;		line 62 in file "main.c"
  4694 ;; Parameters:    Size  Location     Type
  4695 ;;		None
  4696 ;; Auto vars:     Size  Location     Type
  4697 ;;		None
  4698 ;; Return value:  Size  Location     Type
  4699 ;;                  1    wreg      void 
  4700 ;; Registers used:
  4701 ;;		wreg, status,2, status,0
  4702 ;; Tracked objects:
  4703 ;;		On entry : 0/0
  4704 ;;		On exit  : 0/0
  4705 ;;		Unchanged: 0/0
  4706 ;; Data sizes:     COMMON   BANK0   BANK1   BANK3   BANK2
  4707 ;;      Params:         0       0       0       0       0
  4708 ;;      Locals:         0       0       0       0       0
  4709 ;;      Temps:         11       0       0       0       0
  4710 ;;      Totals:        11       0       0       0       0
  4711 ;;Total ram usage:       11 bytes
  4712 ;; Hardware stack levels used: 1
  4713 ;; This function calls:
  4714 ;;		Nothing
  4715 ;; This function is called by:
  4716 ;;		Interrupt level 1
  4717 ;; This function uses a non-reentrant model
  4718 ;;
  4719                           
  4720     0E23                     _isr:	
  4721                           ;psect for function _isr
  4722                           
  4723     0E23                     i1l1999:
  4724                           
  4725                           ;main.c: 63:     if (INTCONbits.T0IF){
  4726     0E23  1D0B               	btfss	11,2	;volatile
  4727     0E24  2E26               	goto	u251_21
  4728     0E25  2E27               	goto	u251_20
  4729     0E26                     u251_21:
  4730     0E26  2E3D               	goto	i1l2013
  4731     0E27                     u251_20:
  4732     0E27                     i1l2001:
  4733                           
  4734                           ;main.c: 64:         if (PORTCbits.RC3){
  4735     0E27  1283               	bcf	3,5	;RP0=0, select bank0
  4736     0E28  1303               	bcf	3,6	;RP1=0, select bank0
  4737     0E29  1D87               	btfss	7,3	;volatile
  4738     0E2A  2E2C               	goto	u252_21
  4739     0E2B  2E2D               	goto	u252_20
  4740     0E2C                     u252_21:
  4741     0E2C  2E35               	goto	i1l2007
  4742     0E2D                     u252_20:
  4743     0E2D                     i1l2003:
  4744                           
  4745                           ;main.c: 65:             TMR0 = 255-pulso;
  4746     0E2D  1683               	bsf	3,5	;RP0=1, select bank1
  4747     0E2E  1303               	bcf	3,6	;RP1=0, select bank1
  4748     0E2F  0922               	comf	_pulso^(0+128),w
  4749     0E30  1283               	bcf	3,5	;RP0=0, select bank0
  4750     0E31  1303               	bcf	3,6	;RP1=0, select bank0
  4751     0E32  0081               	movwf	1	;volatile
  4752     0E33                     i1l2005:
  4753                           
  4754                           ;main.c: 66:             PORTCbits.RC3 = 0;
  4755     0E33  1187               	bcf	7,3	;volatile
  4756                           
  4757                           ;main.c: 67:         }
  4758     0E34  2E3C               	goto	i1l2011
  4759     0E35                     i1l2007:
  4760                           
  4761                           ;main.c: 69:             TMR0 = pulso;
  4762     0E35  1683               	bsf	3,5	;RP0=1, select bank1
  4763     0E36  1303               	bcf	3,6	;RP1=0, select bank1
  4764     0E37  0822               	movf	_pulso^(0+128),w
  4765     0E38  1283               	bcf	3,5	;RP0=0, select bank0
  4766     0E39  1303               	bcf	3,6	;RP1=0, select bank0
  4767     0E3A  0081               	movwf	1	;volatile
  4768     0E3B                     i1l2009:
  4769                           
  4770                           ;main.c: 70:             PORTCbits.RC3 = 1;
  4771     0E3B  1587               	bsf	7,3	;volatile
  4772     0E3C                     i1l2011:
  4773                           
  4774                           ;main.c: 72:         INTCONbits.T0IF = 0;
  4775     0E3C  110B               	bcf	11,2	;volatile
  4776     0E3D                     i1l2013:
  4777                           
  4778                           ;main.c: 74:     if (PIR1bits.TMR1IF){
  4779     0E3D  1283               	bcf	3,5	;RP0=0, select bank0
  4780     0E3E  1303               	bcf	3,6	;RP1=0, select bank0
  4781     0E3F  1C0C               	btfss	12,0	;volatile
  4782     0E40  2E42               	goto	u253_21
  4783     0E41  2E43               	goto	u253_20
  4784     0E42                     u253_21:
  4785     0E42  2E8F               	goto	i1l109
  4786     0E43                     u253_20:
  4787     0E43                     i1l2015:
  4788                           
  4789                           ;main.c: 75:         if (PORTCbits.RC4){
  4790     0E43  1E07               	btfss	7,4	;volatile
  4791     0E44  2E46               	goto	u254_21
  4792     0E45  2E47               	goto	u254_20
  4793     0E46                     u254_21:
  4794     0E46  2E81               	goto	i1l2021
  4795     0E47                     u254_20:
  4796     0E47                     i1l2017:
  4797                           
  4798                           ;main.c: 76:             TMR1H = ((63036+(65535-pulso2)) & 0xFF00) >> 8;
  4799     0E47  1683               	bsf	3,5	;RP0=1, select bank1
  4800     0E48  1303               	bcf	3,6	;RP1=0, select bank1
  4801     0E49  0820               	movf	_pulso2^(0+128),w
  4802     0E4A  00F0               	movwf	??_isr
  4803     0E4B  0821               	movf	(_pulso2+1)^(0+128),w
  4804     0E4C  00F1               	movwf	??_isr+1
  4805     0E4D  01F2               	clrf	??_isr+2
  4806     0E4E  01F3               	clrf	??_isr+3
  4807     0E4F  303B               	movlw	59
  4808     0E50  00F4               	movwf	??_isr+4
  4809     0E51  30F6               	movlw	246
  4810     0E52  00F5               	movwf	??_isr+5
  4811     0E53  3001               	movlw	1
  4812     0E54  00F6               	movwf	??_isr+6
  4813     0E55  3000               	movlw	0
  4814     0E56  00F7               	movwf	??_isr+7
  4815     0E57  0870               	movf	??_isr,w
  4816     0E58  02F4               	subwf	??_isr+4,f
  4817     0E59  0871               	movf	??_isr+1,w
  4818     0E5A  1C03               	skipc
  4819     0E5B  0F71               	incfsz	??_isr+1,w
  4820     0E5C  2E5E               	goto	u255_21
  4821     0E5D  2E5F               	goto	u255_22
  4822     0E5E                     u255_21:
  4823     0E5E  02F5               	subwf	??_isr+5,f
  4824     0E5F                     u255_22:
  4825     0E5F  0872               	movf	??_isr+2,w
  4826     0E60  1C03               	skipc
  4827     0E61  0F72               	incfsz	??_isr+2,w
  4828     0E62  2E64               	goto	u255_23
  4829     0E63  2E65               	goto	u255_24
  4830     0E64                     u255_23:
  4831     0E64  02F6               	subwf	??_isr+6,f
  4832     0E65                     u255_24:
  4833     0E65  0873               	movf	??_isr+3,w
  4834     0E66  1C03               	skipc
  4835     0E67  0F73               	incfsz	??_isr+3,w
  4836     0E68  2E6A               	goto	u255_25
  4837     0E69  2E6B               	goto	u255_26
  4838     0E6A                     u255_25:
  4839     0E6A  02F7               	subwf	??_isr+7,f
  4840     0E6B                     u255_26:
  4841     0E6B  3008               	movlw	8
  4842     0E6C  00F8               	movwf	??_isr+8
  4843     0E6D                     u256_25:
  4844     0E6D  0D77               	rlf	??_isr+7,w
  4845     0E6E  0CF7               	rrf	??_isr+7,f
  4846     0E6F  0CF6               	rrf	??_isr+6,f
  4847     0E70  0CF5               	rrf	??_isr+5,f
  4848     0E71  0CF4               	rrf	??_isr+4,f
  4849     0E72                     u256_20:
  4850     0E72  0BF8               	decfsz	??_isr+8,f
  4851     0E73  2E6D               	goto	u256_25
  4852     0E74  0874               	movf	??_isr+4,w
  4853     0E75  1283               	bcf	3,5	;RP0=0, select bank0
  4854     0E76  1303               	bcf	3,6	;RP1=0, select bank0
  4855     0E77  008F               	movwf	15	;volatile
  4856                           
  4857                           ;main.c: 77:             TMR1L = (63036+(65535-pulso2)) & 0x00FF;
  4858     0E78  1683               	bsf	3,5	;RP0=1, select bank1
  4859     0E79  1303               	bcf	3,6	;RP1=0, select bank1
  4860     0E7A  0820               	movf	_pulso2^(0+128),w
  4861     0E7B  3C3B               	sublw	59
  4862     0E7C  1283               	bcf	3,5	;RP0=0, select bank0
  4863     0E7D  1303               	bcf	3,6	;RP1=0, select bank0
  4864     0E7E  008E               	movwf	14	;volatile
  4865     0E7F                     i1l2019:
  4866                           
  4867                           ;main.c: 78:             PORTCbits.RC4 = 0;
  4868     0E7F  1207               	bcf	7,4	;volatile
  4869                           
  4870                           ;main.c: 79:         }
  4871     0E80  2E8E               	goto	i1l2027
  4872     0E81                     i1l2021:
  4873                           
  4874                           ;main.c: 81:             TMR1H = (pulso2&0xFF00) >> 8;
  4875     0E81  1683               	bsf	3,5	;RP0=1, select bank1
  4876     0E82  1303               	bcf	3,6	;RP1=0, select bank1
  4877     0E83  0821               	movf	(_pulso2+1)^(0+128),w
  4878     0E84  1283               	bcf	3,5	;RP0=0, select bank0
  4879     0E85  1303               	bcf	3,6	;RP1=0, select bank0
  4880     0E86  008F               	movwf	15	;volatile
  4881     0E87                     i1l2023:
  4882                           
  4883                           ;main.c: 82:             TMR1L = pulso2&0x00FF;
  4884     0E87  1683               	bsf	3,5	;RP0=1, select bank1
  4885     0E88  1303               	bcf	3,6	;RP1=0, select bank1
  4886     0E89  0820               	movf	_pulso2^(0+128),w
  4887     0E8A  1283               	bcf	3,5	;RP0=0, select bank0
  4888     0E8B  1303               	bcf	3,6	;RP1=0, select bank0
  4889     0E8C  008E               	movwf	14	;volatile
  4890     0E8D                     i1l2025:
  4891                           
  4892                           ;main.c: 83:             PORTCbits.RC4 = 1;
  4893     0E8D  1607               	bsf	7,4	;volatile
  4894     0E8E                     i1l2027:
  4895                           
  4896                           ;main.c: 85:         PIR1bits.TMR1IF = 0;
  4897     0E8E  100C               	bcf	12,0	;volatile
  4898     0E8F                     i1l109:
  4899     0E8F  087A               	movf	??_isr+10,w
  4900     0E90  008A               	movwf	10
  4901     0E91  0E79               	swapf	??_isr+9,w
  4902     0E92  0083               	movwf	3
  4903     0E93  0EFE               	swapf	btemp,f
  4904     0E94  0E7E               	swapf	btemp,w
  4905     0E95  0009               	retfie
  4906     0E96                     __end_of_isr:
  4907     007E                     btemp	set	126	;btemp
  4908     007E                     wtemp0	set	126
  4909                           
  4910                           	psect	intentry
  4911     0004                     __pintentry:	
  4912                           ;incstack = 0
  4913                           ; Regs used in _isr: [wreg+status,2+status,0]
  4914                           
  4915     0004                     interrupt_function:
  4916     007E                     saved_w	set	btemp
  4917     0004  00FE               	movwf	btemp
  4918     0005  0E03               	swapf	3,w
  4919     0006  00F9               	movwf	??_isr+9
  4920     0007  080A               	movf	10,w
  4921     0008  00FA               	movwf	??_isr+10
  4922     0009  120A  158A  2E23   	ljmp	_isr
  4923                           
  4924                           	psect	idloc
  4925                           
  4926                           ;Config register IDLOC0 @ 0x2000
  4927                           ;	unspecified, using default values
  4928     2000                     	org	8192
  4929     2000  3FFF               	dw	16383
  4930                           
  4931                           ;Config register IDLOC1 @ 0x2001
  4932                           ;	unspecified, using default values
  4933     2001                     	org	8193
  4934     2001  3FFF               	dw	16383
  4935                           
  4936                           ;Config register IDLOC2 @ 0x2002
  4937                           ;	unspecified, using default values
  4938     2002                     	org	8194
  4939     2002  3FFF               	dw	16383
  4940                           
  4941                           ;Config register IDLOC3 @ 0x2003
  4942                           ;	unspecified, using default values
  4943     2003                     	org	8195
  4944     2003  3FFF               	dw	16383
  4945                           
  4946                           	psect	config
  4947                           
  4948                           ;Config register CONFIG1 @ 0x2007
  4949                           ;	Oscillator Selection bits
  4950                           ;	FOSC = INTRC_NOCLKOUT, INTOSCIO oscillator: I/O function on RA6/OSC2/CLKOUT pin, I/O f
      +                          unction on RA7/OSC1/CLKIN
  4951                           ;	Watchdog Timer Enable bit
  4952                           ;	WDTE = OFF, WDT disabled and can be enabled by SWDTEN bit of the WDTCON register
  4953                           ;	Power-up Timer Enable bit
  4954                           ;	PWRTE = OFF, PWRT disabled
  4955                           ;	RE3/MCLR pin function select bit
  4956                           ;	MCLRE = OFF, RE3/MCLR pin function is digital input, MCLR internally tied to VDD
  4957                           ;	Code Protection bit
  4958                           ;	CP = OFF, Program memory code protection is disabled
  4959                           ;	Data Code Protection bit
  4960                           ;	CPD = OFF, Data memory code protection is disabled
  4961                           ;	Brown Out Reset Selection bits
  4962                           ;	BOREN = OFF, BOR disabled
  4963                           ;	Internal External Switchover bit
  4964                           ;	IESO = OFF, Internal/External Switchover mode is disabled
  4965                           ;	Fail-Safe Clock Monitor Enabled bit
  4966                           ;	FCMEN = OFF, Fail-Safe Clock Monitor is disabled
  4967                           ;	Low Voltage Programming Enable bit
  4968                           ;	LVP = OFF, RB3 pin has digital I/O, HV on MCLR must be used for programming
  4969                           ;	In-Circuit Debugger Mode bit
  4970                           ;	DEBUG = 0x1, unprogramme  4971     2007                     	org	8199
  4972     2007  20D4               	dw	8404
  4973                           
  4974                           ;Config register CONFIG2 @ 0x2008
  4975                           ;	Brown-out Reset Selection bit
  4976                           ;	BOR4V = BOR40V, Brown-out Reset set to 4.0V
  4977                           ;	Flash Program Memory Self Write Enable bits
  4978                           ;	WRT = OFF, Write protection off
  4979     2008                     	org	8200
  4980     2008  3FFF               	dw	16383

Data Sizes:
    Strings     0
    Constant    0
    Data        0
    BSS         16
    Persistent  0
    Stack       0

Auto Spaces:
    Space          Size  Autos    Used
    COMMON           14     11      13
    BANK0            80     79      79
    BANK1            80      0      14
    BANK3            96      0       0
    BANK2            96      0       0

Pointer List with Targets:

    None.

Critical Paths under _main in COMMON

    None.

Critical Paths under _isr in COMMON

    None.

Critical Paths under _main in BANK0

    _main->_controlmotores
    _controlmotores->_PWM1
    _controlmotores->_PWM2
    _controlmotores->_map
    _map->___fltol
    _PWM2->___fltol
    _PWM1->___fltol
    ___fltol->___fladd
    ___flmul->___xxtofl
    ___fladd->___flmul

Critical Paths under _isr in BANK0

    None.

Critical Paths under _main in BANK1

    None.

Critical Paths under _isr in BANK1

    None.

Critical Paths under _main in BANK3

    None.

Critical Paths under _isr in BANK3

    None.

Critical Paths under _main in BANK2

    None.

Critical Paths under _isr in BANK2

    None.

Call Graph Tables:

 ---------------------------------------------------------------------------------
 (Depth) Function   	        Calls       Base Space   Used Autos Params    Refs
 ---------------------------------------------------------------------------------
 (0) _main                                                 1     1      0   18948
                                             78 BANK0      1     1      0
                     _controlmotores
                              _setup
                           _setupADC
                        _setupINTOSC
                           _setupPWM
                          _setupPWM2
                          _setupTMR0
                          _setupTMR1
 ---------------------------------------------------------------------------------
 (1) _setupTMR1                                            0     0      0       0
 ---------------------------------------------------------------------------------
 (1) _setupTMR0                                            0     0      0       0
 ---------------------------------------------------------------------------------
 (1) _setupPWM2                                            0     0      0       0
 ---------------------------------------------------------------------------------
 (1) _setupPWM                                             1     1      0       0
                                              0 BANK0      1     1      0
 ---------------------------------------------------------------------------------
 (1) _setupINTOSC                                          1     1      0      66
                                              0 BANK0      1     1      0
 ---------------------------------------------------------------------------------
 (1) _setupADC                                             1     1      0       0
                                              0 BANK0      1     1      0
 ---------------------------------------------------------------------------------
 (1) _setup                                                0     0      0       0
 ---------------------------------------------------------------------------------
 (1) _controlmotores                                       3     3      0   18882
                                             75 BANK0      3     3      0
                               _PWM1
                               _PWM2
                                _map
 ---------------------------------------------------------------------------------
 (2) _map                                                  5     5      0    6294
                                             70 BANK0      5     5      0
                            ___fladd
                            ___flmul
                            ___fltol
                           ___xxtofl
 ---------------------------------------------------------------------------------
 (2) _PWM2                                                 5     5      0    6294
                                             70 BANK0      5     5      0
                            ___fladd
                            ___flmul
                            ___fltol
                           ___xxtofl
 ---------------------------------------------------------------------------------
 (2) _PWM1                                                 5     5      0    6294
                                             70 BANK0      5     5      0
                            ___fladd
                            ___flmul
                            ___fltol
                           ___xxtofl
 ---------------------------------------------------------------------------------
 (3) ___xxtofl                                            14    10      4     550
                                              0 BANK0     14    10      4
 ---------------------------------------------------------------------------------
 (3) ___fltol                                             10     6      4     457
                                             60 BANK0     10     6      4
                            ___fladd (ARG)
                            ___flmul (ARG)
                           ___xxtofl (ARG)
 ---------------------------------------------------------------------------------
 (3) ___flmul                                             26    18      8    2721
                                             14 BANK0     26    18      8
                          __Umul8_16
                           ___xxtofl (ARG)
 ---------------------------------------------------------------------------------
 (4) __Umul8_16                                            9     7      2     799
                                              0 BANK0      9     7      2
 ---------------------------------------------------------------------------------
 (3) ___fladd                                             20    12      8    2566
                                             40 BANK0     20    12      8
                            ___flmul (ARG)
                           ___xxtofl (ARG)
 ---------------------------------------------------------------------------------
 Estimated maximum stack depth 4
 ---------------------------------------------------------------------------------
 (Depth) Function   	        Calls       Base Space   Used Autos Params    Refs
 ---------------------------------------------------------------------------------
 (5) _isr                                                 11    11      0       0
                                              0 COMMON    11    11      0
 ---------------------------------------------------------------------------------
 Estimated maximum stack depth 5
 ---------------------------------------------------------------------------------

 Call Graph Graphs:

 _main (ROOT)
   _controlmotores
     _PWM1
       ___fladd
         ___flmul (ARG)
           __Umul8_16
           ___xxtofl (ARG)
         ___xxtofl (ARG)
       ___flmul
       ___fltol
         ___fladd (ARG)
         ___flmul (ARG)
         ___xxtofl (ARG)
       ___xxtofl
     _PWM2
       ___fladd
       ___flmul
       ___fltol
       ___xxtofl
     _map
       ___fladd
       ___flmul
       ___fltol
       ___xxtofl
   _setup
   _setupADC
   _setupINTOSC
   _setupPWM
   _setupPWM2
   _setupTMR0
   _setupTMR1

 _isr (ROOT)

 Address spaces:
Name               Size   Autos  Total    Cost      Usage
BITCOMMON            E      0       0       0        0.0%
EEDATA             100      0       0       0        0.0%
NULL                 0      0       0       0        0.0%
CODE                 0      0       0       0        0.0%
COMMON               E      B       D       1       92.9%
BITSFR0              0      0       0       1        0.0%
SFR0                 0      0       0       1        0.0%
BITSFR1              0      0       0       2        0.0%
SFR1                 0      0       0       2        0.0%
STACK                0      0       0       2        0.0%
ABS                  0      0      6A       3        0.0%
BITBANK0            50      0       0       4        0.0%
BITSFR3              0      0       0       4        0.0%
SFR3                 0      0       0       4        0.0%
BANK0               50     4F      4F       5       98.8%
BITSFR2              0      0       0       5        0.0%
SFR2                 0      0       0       5        0.0%
BITBANK1            50      0       0       6        0.0%
BANK1               50      0       E       7       17.5%
BITBANK3            60      0       0       8        0.0%
BANK3               60      0       0       9        0.0%
BITBANK2            60      0       0      10        0.0%
BANK2               60      0       0      11        0.0%
DATA                 0      0      6A      12        0.0%


Microchip Technology PIC Macro Assembler V2.40 build 20220703182018 
Symbol Table                                                                                   Mon Nov 14 22:40:53 2022

    __Umul8_16@word_mpld 0026                      l120 0D21                      l123 0DE3  
                    l132 0D5E                      l141 0D43                      l150 07D4  
                    l126 0D85                      l134 0D62                      l135 0D65  
                    l144 0F0C                      l128 0D89                      l161 0651  
                    l153 05CF                      l129 0D8C                      l162 066D  
                    l170 07E2                      l138 0D30                      l147 0FFF  
                    l155 05D3                      l171 07EF                      l156 0601  
                    l165 067D                      l173 07FF                      l158 0605  
                    l159 064D                      l452 0F6F                      l445 0F84  
                    l455 0F84                      l552 03C5                      l705 0701  
                    l706 070D                      l556 0448                      l660 035D  
                    l573 0511                      l565 05C1                      l558 0421  
                    l654 02D9                      l583 0557                      l648 0369  
                    l577 0535                      l594 05B7                      l586 0595  
                    l595 05C1                      l667 0DA3                      l692 06A2  
                    l669 0DB5                      l694 0737                      l698 06E5  
                    _PR2 0092                      _map 0738                      _isr 0E23  
           ___flmul@aexp 0040             ___flmul@bexp 0041             ___flmul@sign 003B  
           ___flmul@temp 0046             ___flmul@prod 0042             ___fltol@exp1 0065  
                   l2031 0DE9                     l2041 0E03                     l2033 0DEF  
                   l1411 0D92                     l2051 0E19                     l2043 0E08  
                   l2035 0DF4                     l1501 03BD                     l1413 0D99  
                   l2045 0E0C                     l2037 0DF9                     l2029 0DE4  
                   l1511 03D7                     l1503 03CB                     l1415 0D9D  
                   l1431 0F34                     l1423 0F0D                     l2047 0E10  
                   l2039 0DFE                     l1601 0530                     l1521 03E1  
                   l1513 03D9                     l1505 03CF                     l1417 0DAC  
                   l1409 0D90                     l1433 0F35                     l1425 0F18  
                   l2049 0E14                     l1611 0543                     l1603 0534  
                   l1531 03EB                     l1523 03E3                     l1515 03DB  
                   l1507 03D3                     l1419 0DB1                     l1435 0F3D  
                   l1621 0554                     l1605 0539                     l1613 0545  
                   l1541 0409                     l1533 03ED                     l1525 03E5  
                   l1517 03DD                     l1509 03D5                     l1461 036F  
                   l1701 00A7                     l1453 0F64                     l1445 0F4B  
                   l1437 0F3F                     l1429 0F21                     l1631 0573  
                   l1607 053C                     l1615 0549                     l1551 0433  
                   l1543 0425                     l1535 03EF                     l1527 03E7  
                   l1519 03DF                     l1471 0382                     l1463 0373  
                   l1711 0140                     l1703 00C2                     l1455 0F74  
                   l1439 0F43                     l1447 0F5D                     l1641 05AC  
                   l1633 0591                     l1625 055C                     l1617 054A  
                   l1609 053E                     l1553 043C                     l1545 042C  
                   l1529 03E9                     l1537 03F1                     l1481 0398  
                   l1473 038A                     l1465 0377                     l1721 019F  
                   l1713 0149                     l1705 00DE                     l1457 0F79  
                   l1801 06AA                     l1651 05C0                     l1643 05AD  
                   l1635 059A                     l1627 0561                     l1619 054E  
                   l1571 0480                     l1563 045A                     l1547 042E  
                   l1555 0440                     l1539 03F2                     l1491 03A8  
                   l1483 039E                     l1475 038B                     l1467 0378  
                   l1459 036A                     l1731 0237                     l1723 01B6  
                   l1715 0157                     l1707 0108                     l1811 06CA  
                   l1645 05B1                     l1637 059F                     l1629 056F  
                   l1573 0482                     l1565 0471                     l1557 044C  
                   l1581 0495                     l1549 0432                     l1493 03AD  
                   l1485 039F                     l1469 037D                     l1477 038D  
                   l1741 02A5                     l1733 025D                     l1725 01D3  
                   l1717 0174                     l1709 0124                     l1661 0033  
                   l1653 0025                     l1821 06FB                     l1813 06CE  
                   l1805 06B3                     l1901 0D69                     l1647 05B3  
                   l1639 05A7                     l1583 04AB                     l1591 0503  
                   l1575 0486                     l1567 0475                     l1559 0451  
                   l1495 03B2                     l1487 03A3                     l1479 0395  
                   l1751 02BD                     l1743 02A9                     l1735 0285  
                   l1727 01FE                     l1719 0182                     l1671 004F  
                   l1663 0038                     l1655 002A                     l1831 072E  
                   l1823 0705                     l1815 06DC                     l1807 06B6  
                   l1903 0D6F                     l1911 0D44                     l1649 05BC  
                   l1593 0519                     l1585 04E9                     l1577 0487  
                   l1569 0479                     l1497 03BA                     l1489 03A7  
                   l1761 02DE                     l1753 02BE                     l1745 02AA  
                   l1737 028E                     l1729 020C                     l1681 0062  
                   l1673 0054                     l1665 003D                     l1657 002E  
                   l1833 072F                     l1825 070F                     l1817 06EC  
                   l1809 06C3                     l1841 0F85                     l1905 0D7B  
                   l1921 0D57                     l1913 0D47                     l1595 051E  
                   l1587 04EF                     l1579 0490                     l1499 03BB  
                   l1763 02E3                     l1771 0314                     l1755 02C2  
                   l1747 02B3                     l1739 029C                     l1691 007E  
                   l1683 0067                     l1675 0058                     l1667 0045  
                   l1659 0032                     l1827 0725                     l1819 06F7  
                   l1843 0FA6                     l1851 07B4                     l1907 0D81  
                   l1923 0D5D                     l1915 0D49                     l1931 0D31  
                   l1589 04F4                     l1781 0347                     l1773 0321  
                   l1765 02F1                     l1757 02D6                     l1749 02B9  
                   l1693 0083                     l1685 006F                     l1677 005C  
                   l1669 0047                     l1829 072A                     l1837 0E96  
                   l1845 0FFB                     l1853 07BC                     l1861 07E9  
                   l1909 0D84                     l1917 0D4D                     l1925 0D22  
                   l1941 0D3A                     l1933 0D35                     l1599 0527  
                   l1783 0353                     l1775 032C                     l1767 02F5  
                   l1687 0071                     l1679 005D                     l1839 0EB7  
                   l1847 0738                     l1951 05C6                     l1855 0D15  
                   l1871 0DBC                     l1863 07F6                     l1919 0D56  
                   l1927 0D29                     l1943 0D3C                     l1935 0D36  
                   l1785 0357                     l1777 033B                     l1769 030E  
                   l1697 008C                     l1689 0079                     l1793 0681  
                   l1849 075F                     l1961 05EB                     l1953 05CC  
                   l1881 0DCB                     l1873 0DBF                     l1865 07FC  
                   l1857 07D8                     l1929 0D2D                     l1945 0D3D  
                   l1937 0D37                     l1787 0358                     l1779 0345  
                   l1699 009A                     l1795 0686                     l1971 060B  
                   l1963 05F2                     l1955 05D4                     l1891 0DD8  
                   l1883 0DCE                     l1875 0DC2                     l1867 0DB6  
                   l1859 07DE                     l1947 0D40                     l1939 0D38  
                   l1789 0361                     l1797 068A                     l1981 0644  
                   l1973 0618                     l1965 05F8                     l1957 05D9  
                   l1949 05C2                     l1893 0DD9                     l1885 0DD1  
                   l1877 0DC5                     l1869 0DB9                     ?_map 0070  
                   l1799 069A                     l1991 0664                     l1983 064A  
                   l1975 0631                     l1967 05FE                     l1959 05E5  
                   l1895 0DDA                     l1887 0DD4                     l1879 0DC8  
                   l1993 066A                     l1985 0652                     l1977 0637  
                   l1969 0606                     l1897 0DDD                     l1889 0DD5  
                   l1995 0671                     l1987 0657                     l1979 063E  
                   l1899 0D66                     l1997 0676                     l1989 065E  
                   _ADIF 0066                     ?_isr 0070                     u2011 0166  
                   u2012 016D                     u2101 0277                     u2021 0191  
                   u2013 0174                     u2005 0142                     u1310 0DB1  
                   u2102 027E                     u2022 0198                     u1311 0DB0  
                   u2103 0285                     u2023 019F                     u2200 02F5  
                   u1400 0F74                     u1320 0F18                     u1305 0DA4  
                   u2201 02F4                     u2041 01C5                     u1401 0F73  
                   u1321 0F17                     u2210 0304                     u2130 02A9  
                   u2042 01CC                     u1410 0F79                     u1330 0F2F  
                   u2131 02A8                     u2115 0287                     u2051 01F0  
                   u2043 01D3                     u2035 01A1                     u1411 0F78  
                   u1500 03CF                     u1420 0377                     u2220 0321  
                   u2052 01F7                     u1340 0F43                     u1501 03CE  
                   u1421 0376                     u2221 0320                     u2125 029E  
                   u2061 021B                     u2053 01FE                     u1341 0F42  
                   u1510 0409                     u1430 037D                     u2230 033B  
                   u2150 02BD                     u2070 0243                     u2062 0222  
                   u1350 0F4A                     u2310 06EB                     u1511 0408  
                   u1431 037C                     u2231 033A                     u2215 02FF  
                   u2151 02BC                     u2063 0229                     u1351 0F49  
                   u1335 0F2A                     u2311 06EA                     u1520 0414  
                   u1440 0382                     u2240 0357                     u2160 02C2  
                   u1601 0463                     u1521 0412                     u1441 0381  
                   u2241 0356                     u2225 031D                     u2161 02C1  
                   u2145 02AC                     u2081 024F                     u2305 06DD  
                   u1610 0475                     u1602 046A                     u1530 0415  
                   u1450 039E                     u1290 0D9D                     u2170 02D6  
                   u2090 026B                     u2082 0256                     u1370 0F5C  
                   u2330 06FB                     u2250 0686                     u1611 0474  
                   u1603 0471                     u1515 0405                     u1451 039D  
                   u1291 0D9C                     u2235 0337                     u2171 02D5  
                   u2083 025D                     u2075 023E                     u1371 0F5B  
                   u2331 06FA                     u2251 0685                     u1700 051E  
                   u1620 0479                     u1540 0425                     u1460 03A7  
                   u2180 02DD                     u1380 0F63                     u2340 0701  
                   u2260 068A                     u2500 0671                     u2420 07DE  
                   u1701 051D                     u1621 0478                     u1541 0424  
                   u1461 03A6                     u2181 02DC                     u1381 0F62  
                   u1365 0F4C                     u2341 0700                     u2325 06F0  
                   u2261 0689                     u2405 0F8C                     u2501 0670  
                   u2421 07DD                     u1630 0486                     u1550 0432  
                   u1470 03AD                     u2190 02E3                     u2350 0705  
                   u2270 06AA                     u2430 07E9                     u1631 0485  
                   u1551 0431                     u1471 03AC                     u2191 02E2  
                   u2095 0266                     u2351 0704                     u2271 06A9  
                   u2415 073F                     u2431 07E8                     u1800 0573  
                   u1720 0534                     u1480 03B2                     u2360 071A  
                   u2440 07F6                     u1801 0572                     u1721 0533  
                   u1481 03B1                     u2441 07F5                     u1810 0582  
                   u1730 0539                     u1650 04AB                     u1570 0448  
                   u1490 03CB                     u2370 072A                     u2290 06C9  
                   u2450 0D89                     u1731 0538                     u1715 0529  
                   u1651 04AA                     u1571 0447                     u1491 03CA  
                   u1395 0F66                     u2371 0729                     u2291 06C8  
                   u2451 0D88                     u1820 0591                     u1740 0543  
                   u1580 044C                     u1900 003D                     u2380 072E  
                   u2460 0D62                     u1821 0590                     u1741 0542  
                   u1661 04C2                     u1653 04A7                     u1645 0489  
                   u1581 044B                     u1565 0435                     u1901 003C  
                   u2381 072D                     u2365 0715                     u2285 06BB  
                   u2461 0D61                     u1830 059A                     u1750 0549  
                   u1670 04D6                     u1662 04C3                     u1590 0451  
                   u1910 005C                     u2470 05D3                     u1831 0599  
                   u1815 057D                     u1751 0548                     u1671 04D7  
                   u1663 04C8                     u1591 0450                     u1911 005B  
                   u2607 05EF                     u2471 05D2                     u1840 059F  
                   u1760 054E                     u1680 04F4                     u1672 04DC  
                   u1664 04C9                     u1920 0062                     u2480 0605  
                   u1841 059E                     u1761 054D                     u1681 04F3  
                   u1673 04DD                     u1665 04CE                     u1921 0061  
                   u2481 0604                     u2617 05FC                     u1850 05AC  
                   u1770 0554                     u1690 0519                     u1666 04CF  
                   u1930 0067                     u2490 0651                     u1851 05AB  
                   u1771 0553                     u1691 0518                     u1931 0066  
                   u2395 0E9D                     u2491 0650                     u2627 063B  
                   u1860 05B1                     u1780 055B                     u1940 007E  
                   u1861 05B0                     u1781 055A                     u1941 007D  
                   u2637 0648                     u1870 05C0                     u1790 0561  
                   u1950 0083                     u1871 05BF                     u1791 0560  
                   u1951 0082                     u2647 065B                     u1880 0032  
                   u1961 00D0                     u1881 0031                     u2657 0668  
                   u2577 0E1D                     u1962 00D7                     u1890 0038  
                   u1971 00EC                     u1963 00DE                     u1891 0037  
                   u2667 067A                     u2587 0DE1                     u1972 00F3  
                   u1981 0116                     u1973 00FA                     u2597 05CA  
                   u1982 011D                     u1991 0132                     u1983 0124  
                   u1992 0139                     u1993 0140                     _PWM1 0E96  
                   _TMR0 0001                     _PWM2 0F85                     _cont 00A4  
                   _main 0DE4                     btemp 007E                     start 000C  
                  ??_map 0066                    ??_isr 0070                    ?_PWM1 0070  
                  ?_PWM2 0070            ___fltol@sign1 0064          __end_of___fladd 05C2  
                  ?_main 0070          __end_of___flmul 036A          __end_of___fltol 0F85  
                  i1l109 0E8F                    _TMR1H 000F                    _TMR1L 000E  
                  _PORTA 0005                    _PORTC 0007                    _PORTD 0008  
                  _TRISC 0087                    _TRISD 0088                    _valDC 007B  
                  _setup 0D15                    _pulso 00A2                    pclath 000A  
                  status 0003                    wtemp0 007E             __end_of_PWM1 0F0D  
           __end_of_PWM2 1000          __initialization 000F             __end_of_main 0E23  
                 ??_PWM1 0066                   ??_PWM2 0066                   ??_main 006E  
                 _ADRESH 001E                   _ADRESL 009E                   _CCPR1L 0015  
                 _CCPR2L 001B                   ?_setup 0070                   _ANSELH 0189  
                 i1l2001 0E27                   i1l2011 0E3C                   i1l2003 0E2D  
                 i1l2021 0E81                   i1l2005 0E33                   i1l2013 0E3D  
                 i1l2023 0E87                   i1l2015 0E43                   i1l2007 0E35  
                 i1l2025 0E8D                   i1l2017 0E47                   i1l2009 0E3B  
                 i1l2027 0E8E                   i1l2019 0E7F                   i1l1999 0E23  
                 u251_20 0E27                   u251_21 0E26                   u252_20 0E2D  
                 u252_21 0E2C                   u253_20 0E43                   u253_21 0E42  
                 u254_20 0E47                   u254_21 0E46                   u255_21 0E5E  
                 u255_22 0E5F                   u255_23 0E64                   u255_24 0E65  
                 u255_25 0E6A                   u255_26 0E6B                   u256_20 0E72  
                 u256_25 0E6D                   _TMR2IF 0061                   _TMR2ON 0092  
       __end_of___xxtofl 0738                ??___fladd 0050                ??___flmul 0036  
              ??___fltol 0060                   _valDCH 00A8                   _valDCL 00AA  
                 _pulso2 00A0             ?_setupINTOSC 0070         __end_of_setupADC 0DE4  
       __end_of_setupPWM 0D8D                   saved_w 007E           _controlmotores 05C2  
           ___xxtofl@arg 002A             ___xxtofl@exp 0029             ___xxtofl@val 0020  
__end_of__initialization 0021               ___fltol@f1 005C           __pcstackCOMMON 0070  
          __end_of_setup 0D22           _OPTION_REGbits 0081   __end_of_controlmotores 067E  
                ??_setup 0020               __pbssBANK1 00A0        __end_of__Umul8_16 0DB6  
             __pmaintext 0DE4               __pintentry 0004                  _CCP1CON 0017  
                _ADC_RES 00AC                  _ADC_led 00A6                ?___xxtofl 0020  
        ?_controlmotores 0070                ?_setupADC 0070                ?_setupPWM 0070  
                ___fladd 036A                  ___flmul 0025                  ___fltol 0F0D  
              _ANSELbits 0188                  __ptext1 0D31                  __ptext2 0D22  
                __ptext3 0D44                  __ptext4 0D66                  __ptext5 07D5  
                __ptext6 0DB6                  __ptext7 0D15                  __ptext8 05C2  
                __ptext9 0738                _T1CONbits 0010                _T2CONbits 0012  
             ??___xxtofl 0024     end_of_initialization 0021        __end_of_setupPWM2 0D66  
      __end_of_setupTMR0 0D31        __end_of_setupTMR1 0D44               ??_setupADC 0020  
             ??_setupPWM 0020                _PORTCbits 0007              ___fladd@grs 005B  
          ___xxtofl@sign 0028                _TRISAbits 0085                _TRISCbits 0087  
            ___flmul@grs 003C              _CCP1CONbits 0017              _CCP2CONbits 001D  
    start_initialization 000F              __end_of_map 07D5              __end_of_isr 0E96  
              __Umul8_16 0D8D         ??_controlmotores 006B                ___fladd@a 004C  
              ___fladd@b 0048                ___flmul@a 0032                ___flmul@b 002E  
            __pbssCOMMON 007B                ___latbits 0002            __pcstackBANK0 0020  
        setupINTOSC@IRCF 0020                 ?___fladd 0048                 ?___flmul 002E  
               ?___fltol 005C               ?__Umul8_16 0020        interrupt_function 0004  
               _PIE1bits 008C                 _PIR1bits 000C                _setupTMR0 0D22  
              _setupPWM2 0D44                _setupTMR1 0D31               _ADCON0bits 001F  
             _ADCON1bits 009F            ??_setupINTOSC 0020               ?_setupTMR0 0070  
             ?_setupPWM2 0070               ?_setupTMR1 0070              ??__Umul8_16 0022  
               ___xxtofl 067E                 __ptext10 0F85                 __ptext11 0E96  
               __ptext12 067E                 __ptext13 0F0D                 __ptext14 0025  
               __ptext15 0D8D                 __ptext16 036A                 __ptext17 0E23  
    __end_of_setupINTOSC 0800                 _setupADC 0DB6                 _setupPWM 0D66  
             _INTCONbits 000B                 intlevel1 0000               _OSCCONbits 008F  
            ??_setupTMR0 0020              ??_setupPWM2 0020              ??_setupTMR1 0020  
 __Umul8_16@multiplicand 0020              _setupINTOSC 07D5            ___fladd@signs 0058  
           ___fladd@aexp 0059             ___fladd@bexp 005A     __Umul8_16@multiplier 0028  
      __Umul8_16@product 0024  
