

Microchip MPLAB XC8 Assembler V2.40 build 20220703182018 
                                                                                               Tue Nov 15 22:33:04 2022

Microchip MPLAB XC8 C Compiler v2.40 (Free license) build 20220703182018 Og1 
     1                           	processor	16F887
     2                           	pagewidth 120
     3                           	opt	flic
     4                           	psect	cinit,global,class=CODE,merge=1,delta=2
     5                           	psect	bssCOMMON,global,class=COMMON,space=1,delta=1,noexec
     6                           	psect	bssBANK1,global,class=BANK1,space=1,delta=1,noexec
     7                           	psect	cstackCOMMON,global,class=COMMON,space=1,delta=1,noexec
     8                           	psect	cstackBANK0,global,class=BANK0,space=1,delta=1,noexec
     9                           	psect	maintext,global,class=CODE,split=1,delta=2
    10                           	psect	text1,local,class=CODE,merge=1,delta=2
    11                           	psect	text2,local,class=CODE,merge=1,delta=2
    12                           	psect	text3,local,class=CODE,merge=1,delta=2
    13                           	psect	text4,local,class=CODE,merge=1,delta=2
    14                           	psect	text5,local,class=CODE,merge=1,delta=2
    15                           	psect	text6,local,class=CODE,merge=1,delta=2
    16                           	psect	text7,local,class=CODE,merge=1,delta=2
    17                           	psect	text8,local,class=CODE,merge=1,delta=2
    18                           	psect	text9,local,class=CODE,merge=1,delta=2,group=1
    19                           	psect	text10,local,class=CODE,merge=1,delta=2,group=1
    20                           	psect	text11,local,class=CODE,merge=1,delta=2,group=1
    21                           	psect	text12,local,class=CODE,merge=1,delta=2,group=1
    22                           	psect	text13,local,class=CODE,merge=1,delta=2,group=1
    23                           	psect	text14,local,class=CODE,merge=1,delta=2
    24                           	psect	text15,local,class=CODE,merge=1,delta=2,group=1
    25                           	psect	text16,local,class=CODE,merge=1,delta=2,group=1
    26                           	psect	text17,local,class=CODE,merge=1,delta=2
    27                           	psect	intentry,global,class=CODE,delta=2
    28                           	psect	text18,local,class=CODE,merge=1,delta=2
    29                           	psect	idloc,global,abs,ovrld,class=IDLOC,space=5,delta=2,noexec
    30                           	psect	config,global,abs,ovrld,class=CONFIG,space=4,delta=2,noexec
    31                           	dabs	1,0x7E,2
    32     0000                     
    33                           ; Version 2.40
    34                           ; Generated 17/11/2021 GMT
    35                           ; 
    36                           ; Copyright © 2021, Microchip Technology Inc. and its subsidiaries ("Microchip")
    37                           ; All rights reserved.
    38                           ; 
    39                           ; This software is developed by Microchip Technology Inc. and its subsidiaries ("Microch
      +                          ip").
    40                           ; 
    41                           ; Redistribution and use in source and binary forms, with or without modification, are
    42                           ; permitted provided that the following conditions are met:
    43                           ; 
    44                           ;     1. Redistributions of source code must retain the above copyright notice, this lis
      +                          t of
    45                           ;        conditions and the following disclaimer.
    46                           ; 
    47                           ;     2. Redistributions in binary form must reproduce the above copyright notice, this 
      +                          list
    48                           ;        of conditions and the following disclaimer in the documentation and/or other
    49                           ;        materials provided with the distribution. Publication is not required when
    50                           ;        this file is used in an embedded application.
    51                           ; 
    52                           ;     3. Microchip's name may not be used to endorse or promote products derived from th
      +                          is
    53                           ;        software without specific prior written permission.
    54                           ; 
    55                           ; THIS SOFTWARE IS PROVIDED BY MICROCHIP "AS IS" AND ANY EXPRESS OR IMPLIED WARRANTIES,
    56                           ; INCLUDING, BUT NOT LIMITED TO, THE IMPLIED WARRANTIES OF MERCHANTABILITY AND FITNESS F
      +                          OR
    57                           ; PURPOSE ARE DISCLAIMED.  IN NO EVENT SHALL MICROCHIP BE LIABLE FOR ANY DIRECT, INDIREC
      +                          T,
    58                           ; INCIDENTAL, SPECIAL, EXEMPLARY, OR CONSEQUENTIAL DAMAGES (INCLUDING BUT NOT LIMITED TO
    59                           ; PROCUREMENT OF SUBSTITUTE GOODS OR SERVICES; LOSS OF USE, DATA OR PROFITS; OR BUSINESS
    60                           ; INTERRUPTION) HOWSOEVER CAUSED AND ON ANY THEORY OF LIABILITY, WHETHER IN CONTRACT, ST
      +                          RICT
    61                           ; LIABILITY, OR TORT (INCLUDING NEGLIGENCE OR OTHERWISE) ARISING IN ANY WAY OUT OF THE U
      +                          SE OF
    62                           ; THIS SOFTWARE, EVEN IF ADVISED OF THE POSSIBILITY OF SUCH DAMAGE.
    63                           ; 
    64                           ; 
    65                           ; Code-generator required, PIC16F887 Definitions
    66                           ; 
    67                           ; SFR Addresses
    68     0000                     	;# 
    69     0001                     	;# 
    70     0002                     	;# 
    71     0003                     	;# 
    72     0004                     	;# 
    73     0005                     	;# 
    74     0006                     	;# 
    75     0007                     	;# 
    76     0008                     	;# 
    77     0009                     	;# 
    78     000A                     	;# 
    79     000B                     	;# 
    80     000C                     	;# 
    81     000D                     	;# 
    82     000E                     	;# 
    83     000E                     	;# 
    84     000F                     	;# 
    85     0010                     	;# 
    86     0011                     	;# 
    87     0012                     	;# 
    88     0013                     	;# 
    89     0014                     	;# 
    90     0015                     	;# 
    91     0015                     	;# 
    92     0016                     	;# 
    93     0017                     	;# 
    94     0018                     	;# 
    95     0019                     	;# 
    96     001A                     	;# 
    97     001B                     	;# 
    98     001B                     	;# 
    99     001C                     	;# 
   100     001D                     	;# 
   101     001E                     	;# 
   102     001F                     	;# 
   103     0081                     	;# 
   104     0085                     	;# 
   105     0086                     	;# 
   106     0087                     	;# 
   107     0088                     	;# 
   108     0089                     	;# 
   109     008C                     	;# 
   110     008D                     	;# 
   111     008E                     	;# 
   112     008F                     	;# 
   113     0090                     	;# 
   114     0091                     	;# 
   115     0092                     	;# 
   116     0093                     	;# 
   117     0093                     	;# 
   118     0093                     	;# 
   119     0094                     	;# 
   120     0095                     	;# 
   121     0096                     	;# 
   122     0097                     	;# 
   123     0098                     	;# 
   124     0099                     	;# 
   125     009A                     	;# 
   126     009B                     	;# 
   127     009C                     	;# 
   128     009D                     	;# 
   129     009E                     	;# 
   130     009F                     	;# 
   131     0105                     	;# 
   132     0107                     	;# 
   133     0108                     	;# 
   134     0109                     	;# 
   135     010C                     	;# 
   136     010C                     	;# 
   137     010D                     	;# 
   138     010E                     	;# 
   139     010F                     	;# 
   140     0185                     	;# 
   141     0187                     	;# 
   142     0188                     	;# 
   143     0189                     	;# 
   144     018C                     	;# 
   145     018D                     	;# 
   146     0000                     	;# 
   147     0001                     	;# 
   148     0002                     	;# 
   149     0003                     	;# 
   150     0004                     	;# 
   151     0005                     	;# 
   152     0006                     	;# 
   153     0007                     	;# 
   154     0008                     	;# 
   155     0009                     	;# 
   156     000A                     	;# 
   157     000B                     	;# 
   158     000C                     	;# 
   159     000D                     	;# 
   160     000E                     	;# 
   161     000E                     	;# 
   162     000F                     	;# 
   163     0010                     	;# 
   164     0011                     	;# 
   165     0012                     	;# 
   166     0013                     	;# 
   167     0014                     	;# 
   168     0015                     	;# 
   169     0015                     	;# 
   170     0016                     	;# 
   171     0017                     	;# 
   172     0018                     	;# 
   173     0019                     	;# 
   174     001A                     	;# 
   175     001B                     	;# 
   176     001B                     	;# 
   177     001C                     	;# 
   178     001D                     	;# 
   179     001E                     	;# 
   180     001F                     	;# 
   181     0081                     	;# 
   182     0085                     	;# 
   183     0086                     	;# 
   184     0087                     	;# 
   185     0088                     	;# 
   186     0089                     	;# 
   187     008C                     	;# 
   188     008D                     	;# 
   189     008E                     	;# 
   190     008F                     	;# 
   191     0090                     	;# 
   192     0091                     	;# 
   193     0092                     	;# 
   194     0093                     	;# 
   195     0093                     	;# 
   196     0093                     	;# 
   197     0094                     	;# 
   198     0095                     	;# 
   199     0096                     	;# 
   200     0097                     	;# 
   201     0098                     	;# 
   202     0099                     	;# 
   203     009A                     	;# 
   204     009B                     	;# 
   205     009C                     	;# 
   206     009D                     	;# 
   207     009E                     	;# 
   208     009F                     	;# 
   209     0105                     	;# 
   210     0107                     	;# 
   211     0108                     	;# 
   212     0109                     	;# 
   213     010C                     	;# 
   214     010C                     	;# 
   215     010D                     	;# 
   216     010E                     	;# 
   217     010F                     	;# 
   218     0185                     	;# 
   219     0187                     	;# 
   220     0188                     	;# 
   221     0189                     	;# 
   222     018C                     	;# 
   223     018D                     	;# 
   224     0000                     	;# 
   225     0001                     	;# 
   226     0002                     	;# 
   227     0003                     	;# 
   228     0004                     	;# 
   229     0005                     	;# 
   230     0006                     	;# 
   231     0007                     	;# 
   232     0008                     	;# 
   233     0009                     	;# 
   234     000A                     	;# 
   235     000B                     	;# 
   236     000C                     	;# 
   237     000D                     	;# 
   238     000E                     	;# 
   239     000E                     	;# 
   240     000F                     	;# 
   241     0010                     	;# 
   242     0011                     	;# 
   243     0012                     	;# 
   244     0013                     	;# 
   245     0014                     	;# 
   246     0015                     	;# 
   247     0015                     	;# 
   248     0016                     	;# 
   249     0017                     	;# 
   250     0018                     	;# 
   251     0019                     	;# 
   252     001A                     	;# 
   253     001B                     	;# 
   254     001B                     	;# 
   255     001C                     	;# 
   256     001D                     	;# 
   257     001E                     	;# 
   258     001F                     	;# 
   259     0081                     	;# 
   260     0085                     	;# 
   261     0086                     	;# 
   262     0087                     	;# 
   263     0088                     	;# 
   264     0089                     	;# 
   265     008C                     	;# 
   266     008D                     	;# 
   267     008E                     	;# 
   268     008F                     	;# 
   269     0090                     	;# 
   270     0091                     	;# 
   271     0092                     	;# 
   272     0093                     	;# 
   273     0093                     	;# 
   274     0093                     	;# 
   275     0094                     	;# 
   276     0095                     	;# 
   277     0096                     	;# 
   278     0097                     	;# 
   279     0098                     	;# 
   280     0099                     	;# 
   281     009A                     	;# 
   282     009B                     	;# 
   283     009C                     	;# 
   284     009D                     	;# 
   285     009E                     	;# 
   286     009F                     	;# 
   287     0105                     	;# 
   288     0107                     	;# 
   289     0108                     	;# 
   290     0109                     	;# 
   291     010C                     	;# 
   292     010C                     	;# 
   293     010D                     	;# 
   294     010E                     	;# 
   295     010F                     	;# 
   296     0185                     	;# 
   297     0187                     	;# 
   298     0188                     	;# 
   299     0189                     	;# 
   300     018C                     	;# 
   301     018D                     	;# 
   302     001E                     _ADRESH	set	30
   303     001B                     _CCPR2L	set	27
   304     001D                     _CCP2CONbits	set	29
   305     0012                     _T2CONbits	set	18
   306     0015                     _CCPR1L	set	21
   307     0017                     _CCP1CONbits	set	23
   308     0017                     _CCP1CON	set	23
   309     001F                     _ADCON0bits	set	31
   310     000C                     _PIR1bits	set	12
   311     0007                     _PORTC	set	7
   312     0005                     _PORTA	set	5
   313     0008                     _PORTD	set	8
   314     0008                     _PORTDbits	set	8
   315     0006                     _PORTBbits	set	6
   316     0007                     _PORTCbits	set	7
   317     0001                     _TMR0	set	1
   318     000B                     _INTCONbits	set	11
   319     0066                     _ADIF	set	102
   320     0092                     _TMR2ON	set	146
   321     0061                     _TMR2IF	set	97
   322     008F                     _OSCCONbits	set	143
   323     009E                     _ADRESL	set	158
   324     0092                     _PR2	set	146
   325     0087                     _TRISCbits	set	135
   326     009F                     _ADCON1bits	set	159
   327     0085                     _TRISAbits	set	133
   328     0081                     _OPTION_REGbits	set	129
   329     008C                     _PIE1bits	set	140
   330     0087                     _TRISC	set	135
   331     0088                     _TRISD	set	136
   332     0095                     _WPUB	set	149
   333     0096                     _IOCB	set	150
   334     0188                     _ANSELbits	set	392
   335     0189                     _ANSELH	set	393
   336                           
   337                           	psect	cinit
   338     000F                     start_initialization:	
   339                           ; #config settings
   340                           
   341     000F                     __initialization:
   342                           
   343                           ; Clear objects allocated to COMMON
   344     000F  01F0               	clrf	__pbssCOMMON& (0+127)
   345     0010  01F1               	clrf	(__pbssCOMMON+1)& (0+127)
   346     0011  01F2               	clrf	(__pbssCOMMON+2)& (0+127)
   347     0012  01F3               	clrf	(__pbssCOMMON+3)& (0+127)
   348     0013  01F4               	clrf	(__pbssCOMMON+4)& (0+127)
   349     0014  01F5               	clrf	(__pbssCOMMON+5)& (0+127)
   350                           
   351                           ; Clear objects allocated to BANK1
   352     0015  1683               	bsf	3,5	;RP0=1, select bank1
   353     0016  1303               	bcf	3,6	;RP1=0, select bank1
   354     0017  01A0               	clrf	__pbssBANK1& (0+127)
   355     0018  01A1               	clrf	(__pbssBANK1+1)& (0+127)
   356     0019  01A2               	clrf	(__pbssBANK1+2)& (0+127)
   357     001A  01A3               	clrf	(__pbssBANK1+3)& (0+127)
   358     001B  01A4               	clrf	(__pbssBANK1+4)& (0+127)
   359     001C  01A5               	clrf	(__pbssBANK1+5)& (0+127)
   360     001D  01A6               	clrf	(__pbssBANK1+6)& (0+127)
   361     001E  01A7               	clrf	(__pbssBANK1+7)& (0+127)
   362     001F  01A8               	clrf	(__pbssBANK1+8)& (0+127)
   363     0020  01A9               	clrf	(__pbssBANK1+9)& (0+127)
   364     0021                     end_of_initialization:	
   365                           ;End of C runtime variable initialization code
   366                           
   367     0021                     __end_of__initialization:
   368     0021  0183               	clrf	3
   369     0022  120A  158A  2E59   	ljmp	_main	;jump to C main() function
   370                           
   371                           	psect	bssCOMMON
   372     0070                     __pbssCOMMON:
   373     0070                     _valDCH:
   374     0070                     	ds	2
   375     0072                     _valDCL:
   376     0072                     	ds	2
   377     0074                     _modo:
   378     0074                     	ds	2
   379                           
   380                           	psect	bssBANK1
   381     00A0                     __pbssBANK1:
   382     00A0                     _micro:
   383     00A0                     	ds	2
   384     00A2                     _pot1:
   385     00A2                     	ds	2
   386     00A4                     _pot:
   387     00A4                     	ds	2
   388     00A6                     _valDC:
   389     00A6                     	ds	2
   390     00A8                     _ADC_RES:
   391     00A8                     	ds	2
   392                           
   393                           	psect	cstackCOMMON
   394     0076                     __pcstackCOMMON:
   395     0076                     ?_delay:
   396     0076                     ?_setup:	
   397                           ; 1 bytes @ 0x0
   398                           
   399     0076                     ?_setupINTOSC:	
   400                           ; 1 bytes @ 0x0
   401                           
   402     0076                     ?_setupADC:	
   403                           ; 1 bytes @ 0x0
   404                           
   405     0076                     ?_setupPWM:	
   406                           ; 1 bytes @ 0x0
   407                           
   408     0076                     ?_setupPWM2:	
   409                           ; 1 bytes @ 0x0
   410                           
   411     0076                     ?_setupTMR0:	
   412                           ; 1 bytes @ 0x0
   413                           
   414     0076                     ?_controlmotores:	
   415                           ; 1 bytes @ 0x0
   416                           
   417     0076                     ?_isr:	
   418                           ; 1 bytes @ 0x0
   419                           
   420     0076                     ?_main:	
   421                           ; 1 bytes @ 0x0
   422                           
   423     0076                     ?_mapeo:	
   424                           ; 1 bytes @ 0x0
   425                           
   426     0076                     delay@micro:	
   427                           ; 1 bytes @ 0x0
   428                           
   429                           
   430                           ; 2 bytes @ 0x0
   431     0076                     	ds	2
   432     0078                     ??_delay:
   433     0078                     ??_isr:	
   434                           ; 1 bytes @ 0x2
   435                           
   436                           
   437                           ; 1 bytes @ 0x2
   438     0078                     	ds	4
   439                           
   440                           	psect	cstackBANK0
   441     0020                     __pcstackBANK0:
   442     0020                     ??_setup:
   443     0020                     ??_setupINTOSC:	
   444                           ; 1 bytes @ 0x0
   445                           
   446     0020                     ??_setupADC:	
   447                           ; 1 bytes @ 0x0
   448                           
   449     0020                     ??_setupPWM:	
   450                           ; 1 bytes @ 0x0
   451                           
   452     0020                     ??_setupPWM2:	
   453                           ; 1 bytes @ 0x0
   454                           
   455     0020                     ??_setupTMR0:	
   456                           ; 1 bytes @ 0x0
   457                           
   458     0020                     ?__Umul8_16:	
   459                           ; 1 bytes @ 0x0
   460                           
   461     0020                     ?___wmul:	
   462                           ; 2 bytes @ 0x0
   463                           
   464     0020                     ?___xxtofl:	
   465                           ; 2 bytes @ 0x0
   466                           
   467     0020                     setupINTOSC@IRCF:	
   468                           ; 4 bytes @ 0x0
   469                           
   470     0020                     __Umul8_16@multiplicand:	
   471                           ; 1 bytes @ 0x0
   472                           
   473     0020                     ___wmul@multiplier:	
   474                           ; 1 bytes @ 0x0
   475                           
   476     0020                     ___xxtofl@val:	
   477                           ; 2 bytes @ 0x0
   478                           
   479                           
   480                           ; 4 bytes @ 0x0
   481     0020                     	ds	2
   482     0022                     ??__Umul8_16:
   483     0022                     ___wmul@multiplicand:	
   484                           ; 1 bytes @ 0x2
   485                           
   486                           
   487                           ; 2 bytes @ 0x2
   488     0022                     	ds	2
   489     0024                     ??___wmul:
   490     0024                     ??___xxtofl:	
   491                           ; 1 bytes @ 0x4
   492                           
   493     0024                     ___wmul@product:	
   494                           ; 1 bytes @ 0x4
   495                           
   496     0024                     __Umul8_16@product:	
   497                           ; 2 bytes @ 0x4
   498                           
   499                           
   500                           ; 2 bytes @ 0x4
   501     0024                     	ds	2
   502     0026                     ?___awdiv:
   503     0026                     ___awdiv@divisor:	
   504                           ; 2 bytes @ 0x6
   505                           
   506     0026                     __Umul8_16@word_mpld:	
   507                           ; 2 bytes @ 0x6
   508                           
   509                           
   510                           ; 2 bytes @ 0x6
   511     0026                     	ds	2
   512     0028                     __Umul8_16@multiplier:
   513     0028                     ___xxtofl@sign:	
   514                           ; 1 bytes @ 0x8
   515                           
   516     0028                     ___awdiv@dividend:	
   517                           ; 1 bytes @ 0x8
   518                           
   519                           
   520                           ; 2 bytes @ 0x8
   521     0028                     	ds	1
   522     0029                     ___xxtofl@exp:
   523                           
   524                           ; 1 bytes @ 0x9
   525     0029                     	ds	1
   526     002A                     ??___awdiv:
   527     002A                     ___xxtofl@arg:	
   528                           ; 1 bytes @ 0xA
   529                           
   530                           
   531                           ; 4 bytes @ 0xA
   532     002A                     	ds	1
   533     002B                     ___awdiv@counter:
   534                           
   535                           ; 1 bytes @ 0xB
   536     002B                     	ds	1
   537     002C                     ___awdiv@sign:
   538                           
   539                           ; 1 bytes @ 0xC
   540     002C                     	ds	1
   541     002D                     ___awdiv@quotient:
   542                           
   543                           ; 2 bytes @ 0xD
   544     002D                     	ds	1
   545     002E                     ?___flmul:
   546     002E                     ___flmul@b:	
   547                           ; 4 bytes @ 0xE
   548                           
   549                           
   550                           ; 4 bytes @ 0xE
   551     002E                     	ds	1
   552     002F                     ?_map:
   553     002F                     map@inputmin:	
   554                           ; 2 bytes @ 0xF
   555                           
   556                           
   557                           ; 2 bytes @ 0xF
   558     002F                     	ds	2
   559     0031                     map@inputmax:
   560                           
   561                           ; 2 bytes @ 0x11
   562     0031                     	ds	1
   563     0032                     ___flmul@a:
   564                           
   565                           ; 4 bytes @ 0x12
   566     0032                     	ds	1
   567     0033                     map@outmin:
   568                           
   569                           ; 2 bytes @ 0x13
   570     0033                     	ds	2
   571     0035                     map@outmax:
   572                           
   573                           ; 2 bytes @ 0x15
   574     0035                     	ds	1
   575     0036                     ??___flmul:
   576                           
   577                           ; 1 bytes @ 0x16
   578     0036                     	ds	1
   579     0037                     ??_map:
   580                           
   581                           ; 1 bytes @ 0x17
   582     0037                     	ds	1
   583     0038                     map@value:
   584                           
   585                           ; 1 bytes @ 0x18
   586     0038                     	ds	3
   587     003B                     ___flmul@sign:
   588                           
   589                           ; 1 bytes @ 0x1B
   590     003B                     	ds	1
   591     003C                     ___flmul@aexp:
   592                           
   593                           ; 1 bytes @ 0x1C
   594     003C                     	ds	1
   595     003D                     ___flmul@grs:
   596                           
   597                           ; 4 bytes @ 0x1D
   598     003D                     	ds	4
   599     0041                     ___flmul@bexp:
   600                           
   601                           ; 1 bytes @ 0x21
   602     0041                     	ds	1
   603     0042                     ___flmul@prod:
   604                           
   605                           ; 4 bytes @ 0x22
   606     0042                     	ds	4
   607     0046                     ___flmul@temp:
   608                           
   609                           ; 2 bytes @ 0x26
   610     0046                     	ds	2
   611     0048                     ?___fladd:
   612     0048                     ___fladd@b:	
   613                           ; 4 bytes @ 0x28
   614                           
   615                           
   616                           ; 4 bytes @ 0x28
   617     0048                     	ds	4
   618     004C                     ___fladd@a:
   619                           
   620                           ; 4 bytes @ 0x2C
   621     004C                     	ds	4
   622     0050                     ??___fladd:
   623                           
   624                           ; 1 bytes @ 0x30
   625     0050                     	ds	8
   626     0058                     ___fladd@signs:
   627                           
   628                           ; 1 bytes @ 0x38
   629     0058                     	ds	1
   630     0059                     ___fladd@aexp:
   631                           
   632                           ; 1 bytes @ 0x39
   633     0059                     	ds	1
   634     005A                     ___fladd@bexp:
   635                           
   636                           ; 1 bytes @ 0x3A
   637     005A                     	ds	1
   638     005B                     ___fladd@grs:
   639                           
   640                           ; 1 bytes @ 0x3B
   641     005B                     	ds	1
   642     005C                     ?___fltol:
   643     005C                     ___fltol@f1:	
   644                           ; 4 bytes @ 0x3C
   645                           
   646                           
   647                           ; 4 bytes @ 0x3C
   648     005C                     	ds	4
   649     0060                     ??___fltol:
   650                           
   651                           ; 1 bytes @ 0x40
   652     0060                     	ds	4
   653     0064                     ___fltol@sign1:
   654                           
   655                           ; 1 bytes @ 0x44
   656     0064                     	ds	1
   657     0065                     ___fltol@exp1:
   658                           
   659                           ; 1 bytes @ 0x45
   660     0065                     	ds	1
   661     0066                     ??_mapeo:
   662                           
   663                           ; 1 bytes @ 0x46
   664     0066                     	ds	5
   665     006B                     ??_controlmotores:
   666                           
   667                           ; 1 bytes @ 0x4B
   668     006B                     	ds	3
   669     006E                     ??_main:
   670                           
   671                           ; 1 bytes @ 0x4E
   672     006E                     	ds	1
   673                           
   674                           	psect	maintext
   675     0E59                     __pmaintext:	
   676 ;;
   677 ;;Main: autosize = 0, tempsize = 1, incstack = 0, save=0
   678 ;;
   679 ;; *************** function _main *****************
   680 ;; Defined at:
   681 ;;		line 102 in file "main.c"
   682 ;; Parameters:    Size  Location     Type
   683 ;;		None
   684 ;; Auto vars:     Size  Location     Type
   685 ;;		None
   686 ;; Return value:  Size  Location     Type
   687 ;;                  1    wreg      void 
   688 ;; Registers used:
   689 ;;		wreg, status,2, status,0, btemp+1, pclath, cstack
   690 ;; Tracked objects:
   691 ;;		On entry : B00/0
   692 ;;		On exit  : 0/0
   693 ;;		Unchanged: 0/0
   694 ;; Data sizes:     COMMON   BANK0   BANK1   BANK3   BANK2
   695 ;;      Params:         0       0       0       0       0
   696 ;;      Locals:         0       0       0       0       0
   697 ;;      Temps:          0       1       0       0       0
   698 ;;      Totals:         0       1       0       0       0
   699 ;;Total ram usage:        1 bytes
   700 ;; Hardware stack levels required when called: 6
   701 ;; This function calls:
   702 ;;		_controlmotores
   703 ;;		_setup
   704 ;;		_setupADC
   705 ;;		_setupINTOSC
   706 ;;		_setupPWM
   707 ;;		_setupPWM2
   708 ;;		_setupTMR0
   709 ;; This function is called by:
   710 ;;		Startup code after reset
   711 ;; This function uses a non-reentrant model
   712 ;;
   713                           
   714     0E59                     _main:	
   715                           ;psect for function _main
   716                           
   717     0E59                     l2432:	
   718                           ;incstack = 0
   719                           ; Regs used in _main: [wreg+status,2+status,0+btemp+1+pclath+cstack]
   720                           
   721                           
   722                           ;main.c: 104:     setup();
   723     0E59  120A  158A  2526  120A  158A  	fcall	_setup
   724                           
   725                           ;main.c: 105:     setupINTOSC(3);
   726     0E5E  3003               	movlw	3
   727     0E5F  120A  158A  25C9  120A  158A  	fcall	_setupINTOSC
   728                           
   729                           ;main.c: 106:     setupADC();
   730     0E64  120A  158A  25F4  120A  158A  	fcall	_setupADC
   731                           
   732                           ;main.c: 107:     setupPWM();
   733     0E69  120A  158A  255A  120A  158A  	fcall	_setupPWM
   734                           
   735                           ;main.c: 108:     setupPWM2();
   736     0E6E  120A  158A  2540  120A  158A  	fcall	_setupPWM2
   737                           
   738                           ;main.c: 109:     setupTMR0();
   739     0E73  120A  158A  2505  120A  158A  	fcall	_setupTMR0
   740     0E78                     l2434:
   741                           
   742                           ;main.c: 111:     modo = 0;
   743     0E78  01F4               	clrf	_modo
   744     0E79  01F5               	clrf	_modo+1
   745     0E7A                     l2436:
   746                           
   747                           ;main.c: 114:        if (modo == 0){
   748     0E7A  0874               	movf	_modo,w
   749     0E7B  0475               	iorwf	_modo+1,w
   750     0E7C  1D03               	btfss	3,2
   751     0E7D  2E7F               	goto	u3381
   752     0E7E  2E80               	goto	u3380
   753     0E7F                     u3381:
   754     0E7F  2E90               	goto	l2446
   755     0E80                     u3380:
   756     0E80                     l2438:
   757                           
   758                           ;main.c: 115:             PORTD = 0b00000001;
   759     0E80  3001               	movlw	1
   760     0E81  1283               	bcf	3,5	;RP0=0, select bank0
   761     0E82  1303               	bcf	3,6	;RP1=0, select bank0
   762     0E83  0088               	movwf	8	;volatile
   763     0E84                     l2440:
   764                           
   765                           ;main.c: 116:             controlmotores();
   766     0E84  120A  118A  25C2  120A  158A  	fcall	_controlmotores
   767     0E89                     l2442:
   768                           
   769                           ;main.c: 117:             IOCB = 0b00000001;
   770     0E89  3001               	movlw	1
   771     0E8A  1683               	bsf	3,5	;RP0=1, select bank1
   772     0E8B  1303               	bcf	3,6	;RP1=0, select bank1
   773     0E8C  0096               	movwf	22	;volatile
   774     0E8D                     l2444:
   775                           
   776                           ;main.c: 118:             WPUB = 0b00000001;
   777     0E8D  3001               	movlw	1
   778     0E8E  0095               	movwf	21	;volatile
   779                           
   780                           ;main.c: 119:         }
   781     0E8F  2EB1               	goto	l2460
   782     0E90                     l2446:
   783     0E90  0374               	decf	_modo,w
   784     0E91  0475               	iorwf	_modo+1,w
   785     0E92  1D03               	btfss	3,2
   786     0E93  2E95               	goto	u3391
   787     0E94  2E96               	goto	u3390
   788     0E95                     u3391:
   789     0E95  2EA6               	goto	l2456
   790     0E96                     u3390:
   791     0E96                     l2448:
   792                           
   793                           ;main.c: 121:             PORTD = 0b00000010;
   794     0E96  3002               	movlw	2
   795     0E97  1283               	bcf	3,5	;RP0=0, select bank0
   796     0E98  1303               	bcf	3,6	;RP1=0, select bank0
   797     0E99  0088               	movwf	8	;volatile
   798     0E9A                     l2450:
   799                           
   800                           ;main.c: 122:             controlmotores();
   801     0E9A  120A  118A  25C2  120A  158A  	fcall	_controlmotores
   802     0E9F                     l2452:
   803                           
   804                           ;main.c: 123:             IOCB = 0b00000111;
   805     0E9F  3007               	movlw	7
   806     0EA0  1683               	bsf	3,5	;RP0=1, select bank1
   807     0EA1  1303               	bcf	3,6	;RP1=0, select bank1
   808     0EA2  0096               	movwf	22	;volatile
   809     0EA3                     l2454:
   810                           
   811                           ;main.c: 124:             WPUB = 0b00000111;
   812     0EA3  3007               	movlw	7
   813     0EA4  0095               	movwf	21	;volatile
   814                           
   815                           ;main.c: 125:         }
   816     0EA5  2EB1               	goto	l2460
   817     0EA6                     l2456:
   818     0EA6  3000               	movlw	0
   819     0EA7  0275               	subwf	_modo+1,w
   820     0EA8  3002               	movlw	2
   821     0EA9  1903               	skipnz
   822     0EAA  0274               	subwf	_modo,w
   823     0EAB  1C03               	skipc
   824     0EAC  2EAE               	goto	u3401
   825     0EAD  2EAF               	goto	u3400
   826     0EAE                     u3401:
   827     0EAE  2EB1               	goto	l2460
   828     0EAF                     u3400:
   829     0EAF                     l2458:
   830                           
   831                           ;main.c: 127:             modo = 0;
   832     0EAF  01F4               	clrf	_modo
   833     0EB0  01F5               	clrf	_modo+1
   834     0EB1                     l2460:
   835                           
   836                           ;main.c: 129:         _delay((unsigned long)((100)*(500000/4000000.0)));
   837     0EB1  3003               	movlw	3
   838     0EB2  1283               	bcf	3,5	;RP0=0, select bank0
   839     0EB3  1303               	bcf	3,6	;RP1=0, select bank0
   840     0EB4  00EE               	movwf	??_main
   841     0EB5                     u3417:
   842     0EB5  0BEE               	decfsz	??_main,f
   843     0EB6  2EB5               	goto	u3417
   844     0EB7  2E7A               	goto	l2436
   845     0EB8  120A  118A  280C   	ljmp	start
   846     0EBB                     __end_of_main:
   847                           
   848                           	psect	text1
   849     0D05                     __ptext1:	
   850 ;; *************** function _setupTMR0 *****************
   851 ;; Defined at:
   852 ;;		line 222 in file "main.c"
   853 ;; Parameters:    Size  Location     Type
   854 ;;		None
   855 ;; Auto vars:     Size  Location     Type
   856 ;;		None
   857 ;; Return value:  Size  Location     Type
   858 ;;                  1    wreg      void 
   859 ;; Registers used:
   860 ;;		wreg, status,2, status,0
   861 ;; Tracked objects:
   862 ;;		On entry : 0/0
   863 ;;		On exit  : 0/0
   864 ;;		Unchanged: 0/0
   865 ;; Data sizes:     COMMON   BANK0   BANK1   BANK3   BANK2
   866 ;;      Params:         0       0       0       0       0
   867 ;;      Locals:         0       0       0       0       0
   868 ;;      Temps:          0       0       0       0       0
   869 ;;      Totals:         0       0       0       0       0
   870 ;;Total ram usage:        0 bytes
   871 ;; Hardware stack levels used: 1
   872 ;; Hardware stack levels required when called: 2
   873 ;; This function calls:
   874 ;;		Nothing
   875 ;; This function is called by:
   876 ;;		_main
   877 ;; This function uses a non-reentrant model
   878 ;;
   879                           
   880     0D05                     _setupTMR0:	
   881                           ;psect for function _setupTMR0
   882                           
   883     0D05                     l2376:	
   884                           ;incstack = 0
   885                           ; Regs used in _setupTMR0: [wreg+status,2+status,0]
   886                           
   887                           
   888                           ;main.c: 223:     INTCONbits.GIE = 1;
   889     0D05  178B               	bsf	11,7	;volatile
   890                           
   891                           ;main.c: 224:     INTCONbits.T0IE = 1;
   892     0D06  168B               	bsf	11,5	;volatile
   893                           
   894                           ;main.c: 225:     INTCONbits.T0IF = 0;
   895     0D07  110B               	bcf	11,2	;volatile
   896                           
   897                           ;main.c: 227:     OPTION_REGbits.T0CS = 0;
   898     0D08  1683               	bsf	3,5	;RP0=1, select bank1
   899     0D09  1303               	bcf	3,6	;RP1=0, select bank1
   900     0D0A  1281               	bcf	1,5	;volatile
   901                           
   902                           ;main.c: 228:     OPTION_REGbits.PSA = 0;
   903     0D0B  1181               	bcf	1,3	;volatile
   904     0D0C                     l2378:
   905                           
   906                           ;main.c: 229:     OPTION_REGbits.PS = 0b011;
   907     0D0C  0801               	movf	1,w	;volatile
   908     0D0D  39F8               	andlw	-8
   909     0D0E  3803               	iorlw	3
   910     0D0F  0081               	movwf	1	;volatile
   911     0D10                     l2380:
   912                           
   913                           ;main.c: 230:     TMR0 = 240;
   914     0D10  30F0               	movlw	240
   915     0D11  1283               	bcf	3,5	;RP0=0, select bank0
   916     0D12  1303               	bcf	3,6	;RP1=0, select bank0
   917     0D13  0081               	movwf	1	;volatile
   918     0D14                     l147:
   919     0D14  0008               	return
   920     0D15                     __end_of_setupTMR0:
   921                           
   922                           	psect	text2
   923     0D40                     __ptext2:	
   924 ;; *************** function _setupPWM2 *****************
   925 ;; Defined at:
   926 ;;		line 202 in file "main.c"
   927 ;; Parameters:    Size  Location     Type
   928 ;;		None
   929 ;; Auto vars:     Size  Location     Type
   930 ;;		None
   931 ;; Return value:  Size  Location     Type
   932 ;;                  1    wreg      void 
   933 ;; Registers used:
   934 ;;		wreg, status,2, status,0
   935 ;; Tracked objects:
   936 ;;		On entry : 0/0
   937 ;;		On exit  : 0/0
   938 ;;		Unchanged: 0/0
   939 ;; Data sizes:     COMMON   BANK0   BANK1   BANK3   BANK2
   940 ;;      Params:         0       0       0       0       0
   941 ;;      Locals:         0       0       0       0       0
   942 ;;      Temps:          0       0       0       0       0
   943 ;;      Totals:         0       0       0       0       0
   944 ;;Total ram usage:        0 bytes
   945 ;; Hardware stack levels used: 1
   946 ;; Hardware stack levels required when called: 2
   947 ;; This function calls:
   948 ;;		Nothing
   949 ;; This function is called by:
   950 ;;		_main
   951 ;; This function uses a non-reentrant model
   952 ;;
   953                           
   954     0D40                     _setupPWM2:	
   955                           ;psect for function _setupPWM2
   956                           
   957     0D40                     l2362:	
   958                           ;incstack = 0
   959                           ; Regs used in _setupPWM2: [wreg+status,2+status,0]
   960                           
   961                           
   962                           ;main.c: 204:     TRISCbits.TRISC1 = 1;
   963     0D40  1683               	bsf	3,5	;RP0=1, select bank1
   964     0D41  1303               	bcf	3,6	;RP1=0, select bank1
   965     0D42  1487               	bsf	7,1	;volatile
   966     0D43                     l2364:
   967                           
   968                           ;main.c: 206:     PR2 = 155;
   969     0D43  309B               	movlw	155
   970     0D44  0092               	movwf	18	;volatile
   971     0D45                     l2366:
   972                           
   973                           ;main.c: 208:     CCP2CONbits.CCP2M = 0b1111;
   974     0D45  300F               	movlw	15
   975     0D46  1283               	bcf	3,5	;RP0=0, select bank0
   976     0D47  1303               	bcf	3,6	;RP1=0, select bank0
   977     0D48  049D               	iorwf	29,f	;volatile
   978     0D49                     l2368:
   979                           
   980                           ;main.c: 210:     CCP2CONbits.DC2B1 = valDCL;
   981     0D49  0C72               	rrf	_valDCL,w
   982     0D4A  1C03               	skipc
   983     0D4B  129D               	bcf	29,5	;volatile
   984     0D4C  1803               	skipnc
   985     0D4D  169D               	bsf	29,5	;volatile
   986     0D4E                     l2370:
   987                           
   988                           ;main.c: 211:     CCP2CONbits.DC2B0 = 0b1;
   989     0D4E  161D               	bsf	29,4	;volatile
   990     0D4F                     l2372:
   991                           
   992                           ;main.c: 212:     CCPR2L = valDCH;
   993     0D4F  0870               	movf	_valDCH,w
   994     0D50  009B               	movwf	27	;volatile
   995     0D51                     l2374:
   996                           
   997                           ;main.c: 214:     TMR2IF = 0;
   998     0D51  108C               	bcf	12,1	;volatile
   999     0D52                     l141:	
  1000                           ;main.c: 216:     while(!TMR2IF);
  1001                           
  1002     0D52  1C8C               	btfss	12,1	;volatile
  1003     0D53  2D55               	goto	u3331
  1004     0D54  2D56               	goto	u3330
  1005     0D55                     u3331:
  1006     0D55  2D52               	goto	l141
  1007     0D56                     u3330:
  1008     0D56                     l143:
  1009                           
  1010                           ;main.c: 217:     TRISCbits.TRISC1 = 0;
  1011     0D56  1683               	bsf	3,5	;RP0=1, select bank1
  1012     0D57  1303               	bcf	3,6	;RP1=0, select bank1
  1013     0D58  1087               	bcf	7,1	;volatile
  1014     0D59                     l144:
  1015     0D59  0008               	return
  1016     0D5A                     __end_of_setupPWM2:
  1017                           
  1018                           	psect	text3
  1019     0D5A                     __ptext3:	
  1020 ;; *************** function _setupPWM *****************
  1021 ;; Defined at:
  1022 ;;		line 184 in file "main.c"
  1023 ;; Parameters:    Size  Location     Type
  1024 ;;		None
  1025 ;; Auto vars:     Size  Location     Type
  1026 ;;		None
  1027 ;; Return value:  Size  Location     Type
  1028 ;;                  1    wreg      void 
  1029 ;; Registers used:
  1030 ;;		wreg, status,2, status,0
  1031 ;; Tracked objects:
  1032 ;;		On entry : 0/0
  1033 ;;		On exit  : 0/0
  1034 ;;		Unchanged: 0/0
  1035 ;; Data sizes:     COMMON   BANK0   BANK1   BANK3   BANK2
  1036 ;;      Params:         0       0       0       0       0
  1037 ;;      Locals:         0       0       0       0       0
  1038 ;;      Temps:          0       1       0       0       0
  1039 ;;      Totals:         0       1       0       0       0
  1040 ;;Total ram usage:        1 bytes
  1041 ;; Hardware stack levels used: 1
  1042 ;; Hardware stack levels required when called: 2
  1043 ;; This function calls:
  1044 ;;		Nothing
  1045 ;; This function is called by:
  1046 ;;		_main
  1047 ;; This function uses a non-reentrant model
  1048 ;;
  1049                           
  1050     0D5A                     _setupPWM:	
  1051                           ;psect for function _setupPWM
  1052                           
  1053     0D5A                     l2350:	
  1054                           ;incstack = 0
  1055                           ; Regs used in _setupPWM: [wreg+status,2+status,0]
  1056                           
  1057                           
  1058                           ;main.c: 186:     TRISCbits.TRISC2 = 1;
  1059     0D5A  1683               	bsf	3,5	;RP0=1, select bank1
  1060     0D5B  1303               	bcf	3,6	;RP1=0, select bank1
  1061     0D5C  1507               	bsf	7,2	;volatile
  1062     0D5D                     l2352:
  1063                           
  1064                           ;main.c: 188:     PR2 = 155;
  1065     0D5D  309B               	movlw	155
  1066     0D5E  0092               	movwf	18	;volatile
  1067                           
  1068                           ;main.c: 190:     CCP1CON = 0b00001100;
  1069     0D5F  300C               	movlw	12
  1070     0D60  1283               	bcf	3,5	;RP0=0, select bank0
  1071     0D61  1303               	bcf	3,6	;RP1=0, select bank0
  1072     0D62  0097               	movwf	23	;volatile
  1073     0D63                     l2354:
  1074                           
  1075                           ;main.c: 192:     CCP1CONbits.DC1B = valDCL;
  1076     0D63  0872               	movf	_valDCL,w
  1077     0D64  00A0               	movwf	??_setupPWM
  1078     0D65  0EA0               	swapf	??_setupPWM,f
  1079     0D66  0817               	movf	23,w	;volatile
  1080     0D67  0620               	xorwf	??_setupPWM,w
  1081     0D68  39CF               	andlw	-49
  1082     0D69  0620               	xorwf	??_setupPWM,w
  1083     0D6A  0097               	movwf	23	;volatile
  1084     0D6B                     l2356:
  1085                           
  1086                           ;main.c: 193:     CCPR1L = valDCH ;
  1087     0D6B  0870               	movf	_valDCH,w
  1088     0D6C  0095               	movwf	21	;volatile
  1089     0D6D                     l2358:
  1090                           
  1091                           ;main.c: 195:     TMR2IF = 0;
  1092     0D6D  108C               	bcf	12,1	;volatile
  1093                           
  1094                           ;main.c: 196:     T2CONbits.T2CKPS = 0b11;
  1095     0D6E  3003               	movlw	3
  1096     0D6F  0492               	iorwf	18,f	;volatile
  1097     0D70                     l2360:
  1098                           
  1099                           ;main.c: 197:     TMR2ON = 1;
  1100     0D70  1512               	bsf	18,2	;volatile
  1101     0D71                     l135:	
  1102                           ;main.c: 199:     while(!TMR2IF);
  1103                           
  1104     0D71  1C8C               	btfss	12,1	;volatile
  1105     0D72  2D74               	goto	u3321
  1106     0D73  2D75               	goto	u3320
  1107     0D74                     u3321:
  1108     0D74  2D71               	goto	l135
  1109     0D75                     u3320:
  1110     0D75                     l137:
  1111                           
  1112                           ;main.c: 200:     TRISCbits.TRISC2 = 0;
  1113     0D75  1683               	bsf	3,5	;RP0=1, select bank1
  1114     0D76  1303               	bcf	3,6	;RP1=0, select bank1
  1115     0D77  1107               	bcf	7,2	;volatile
  1116     0D78                     l138:
  1117     0D78  0008               	return
  1118     0D79                     __end_of_setupPWM:
  1119                           
  1120                           	psect	text4
  1121     0DC9                     __ptext4:	
  1122 ;; *************** function _setupINTOSC *****************
  1123 ;; Defined at:
  1124 ;;		line 14 in file "oscilador.c"
  1125 ;; Parameters:    Size  Location     Type
  1126 ;;  IRCF            1    wreg     unsigned char 
  1127 ;; Auto vars:     Size  Location     Type
  1128 ;;  IRCF            1    0[BANK0 ] unsigned char 
  1129 ;; Return value:  Size  Location     Type
  1130 ;;                  1    wreg      void 
  1131 ;; Registers used:
  1132 ;;		wreg, status,2, status,0
  1133 ;; Tracked objects:
  1134 ;;		On entry : 0/0
  1135 ;;		On exit  : 0/0
  1136 ;;		Unchanged: 0/0
  1137 ;; Data sizes:     COMMON   BANK0   BANK1   BANK3   BANK2
  1138 ;;      Params:         0       0       0       0       0
  1139 ;;      Locals:         0       1       0       0       0
  1140 ;;      Temps:          0       0       0       0       0
  1141 ;;      Totals:         0       1       0       0       0
  1142 ;;Total ram usage:        1 bytes
  1143 ;; Hardware stack levels used: 1
  1144 ;; Hardware stack levels required when called: 2
  1145 ;; This function calls:
  1146 ;;		Nothing
  1147 ;; This function is called by:
  1148 ;;		_main
  1149 ;; This function uses a non-reentrant model
  1150 ;;
  1151                           
  1152     0DC9                     _setupINTOSC:	
  1153                           ;psect for function _setupINTOSC
  1154                           
  1155                           
  1156                           ;incstack = 0
  1157                           ; Regs used in _setupINTOSC: [wreg+status,2+status,0]
  1158                           ;setupINTOSC@IRCF stored from wreg
  1159     0DC9  1283               	bcf	3,5	;RP0=0, select bank0
  1160     0DCA  1303               	bcf	3,6	;RP1=0, select bank0
  1161     0DCB  00A0               	movwf	setupINTOSC@IRCF
  1162     0DCC                     l2308:
  1163                           
  1164                           ;oscilador.c: 17:     if(IRCF == 7){
  1165     0DCC  3007               	movlw	7
  1166     0DCD  0620               	xorwf	setupINTOSC@IRCF,w
  1167     0DCE  1D03               	btfss	3,2
  1168     0DCF  2DD1               	goto	u3291
  1169     0DD0  2DD2               	goto	u3290
  1170     0DD1                     u3291:
  1171     0DD1  2DD6               	goto	l179
  1172     0DD2                     u3290:
  1173     0DD2                     l2310:
  1174                           
  1175                           ;oscilador.c: 18:         OSCCONbits.IRCF = 0b111;
  1176     0DD2  3070               	movlw	112
  1177     0DD3  1683               	bsf	3,5	;RP0=1, select bank1
  1178     0DD4  1303               	bcf	3,6	;RP1=0, select bank1
  1179     0DD5  048F               	iorwf	15,f	;volatile
  1180     0DD6                     l179:	
  1181                           ;oscilador.c: 19:     }
  1182                           
  1183                           
  1184                           ;oscilador.c: 20:     if(IRCF == 6){
  1185     0DD6  3006               	movlw	6
  1186     0DD7  1283               	bcf	3,5	;RP0=0, select bank0
  1187     0DD8  0620               	xorwf	setupINTOSC@IRCF,w
  1188     0DD9  1D03               	btfss	3,2
  1189     0DDA  2DDC               	goto	u3301
  1190     0DDB  2DDD               	goto	u3300
  1191     0DDC                     u3301:
  1192     0DDC  2DE3               	goto	l180
  1193     0DDD                     u3300:
  1194     0DDD                     l2312:
  1195                           
  1196                           ;oscilador.c: 21:         OSCCONbits.IRCF = 0b110;
  1197     0DDD  1683               	bsf	3,5	;RP0=1, select bank1
  1198     0DDE  1303               	bcf	3,6	;RP1=0, select bank1
  1199     0DDF  080F               	movf	15,w	;volatile
  1200     0DE0  398F               	andlw	-113
  1201     0DE1  3860               	iorlw	96
  1202     0DE2  008F               	movwf	15	;volatile
  1203     0DE3                     l180:	
  1204                           ;oscilador.c: 22:     }
  1205                           
  1206                           
  1207                           ;oscilador.c: 23:     if(IRCF == 3){
  1208     0DE3  3003               	movlw	3
  1209     0DE4  1283               	bcf	3,5	;RP0=0, select bank0
  1210     0DE5  0620               	xorwf	setupINTOSC@IRCF,w
  1211     0DE6  1D03               	btfss	3,2
  1212     0DE7  2DE9               	goto	u3311
  1213     0DE8  2DEA               	goto	u3310
  1214     0DE9                     u3311:
  1215     0DE9  2DF0               	goto	l2316
  1216     0DEA                     u3310:
  1217     0DEA                     l2314:
  1218                           
  1219                           ;oscilador.c: 24:         OSCCONbits.IRCF = 0b011;
  1220     0DEA  1683               	bsf	3,5	;RP0=1, select bank1
  1221     0DEB  1303               	bcf	3,6	;RP1=0, select bank1
  1222     0DEC  080F               	movf	15,w	;volatile
  1223     0DED  398F               	andlw	-113
  1224     0DEE  3830               	iorlw	48
  1225     0DEF  008F               	movwf	15	;volatile
  1226     0DF0                     l2316:
  1227                           
  1228                           ;oscilador.c: 27:     OSCCONbits.SCS = 1;
  1229     0DF0  1683               	bsf	3,5	;RP0=1, select bank1
  1230     0DF1  1303               	bcf	3,6	;RP1=0, select bank1
  1231     0DF2  140F               	bsf	15,0	;volatile
  1232     0DF3                     l182:
  1233     0DF3  0008               	return
  1234     0DF4                     __end_of_setupINTOSC:
  1235                           
  1236                           	psect	text5
  1237     0DF4                     __ptext5:	
  1238 ;; *************** function _setupADC *****************
  1239 ;; Defined at:
  1240 ;;		line 154 in file "main.c"
  1241 ;; Parameters:    Size  Location     Type
  1242 ;;		None
  1243 ;; Auto vars:     Size  Location     Type
  1244 ;;		None
  1245 ;; Return value:  Size  Location     Type
  1246 ;;                  1    wreg      void 
  1247 ;; Registers used:
  1248 ;;		wreg, status,2
  1249 ;; Tracked objects:
  1250 ;;		On entry : 0/0
  1251 ;;		On exit  : 0/0
  1252 ;;		Unchanged: 0/0
  1253 ;; Data sizes:     COMMON   BANK0   BANK1   BANK3   BANK2
  1254 ;;      Params:         0       0       0       0       0
  1255 ;;      Locals:         0       0       0       0       0
  1256 ;;      Temps:          0       1       0       0       0
  1257 ;;      Totals:         0       1       0       0       0
  1258 ;;Total ram usage:        1 bytes
  1259 ;; Hardware stack levels used: 1
  1260 ;; Hardware stack levels required when called: 2
  1261 ;; This function calls:
  1262 ;;		Nothing
  1263 ;; This function is called by:
  1264 ;;		_main
  1265 ;; This function uses a non-reentrant model
  1266 ;;
  1267                           
  1268     0DF4                     _setupADC:	
  1269                           ;psect for function _setupADC
  1270                           
  1271     0DF4                     l2318:	
  1272                           ;incstack = 0
  1273                           ; Regs used in _setupADC: [wreg+status,2]
  1274                           
  1275                           
  1276                           ;main.c: 157:     ANSELH = 0;
  1277     0DF4  1683               	bsf	3,5	;RP0=1, select bank3
  1278     0DF5  1703               	bsf	3,6	;RP1=1, select bank3
  1279     0DF6  0189               	clrf	9	;volatile
  1280     0DF7                     l2320:
  1281                           
  1282                           ;main.c: 158:     TRISAbits.TRISA0 = 1;
  1283     0DF7  1683               	bsf	3,5	;RP0=1, select bank1
  1284     0DF8  1303               	bcf	3,6	;RP1=0, select bank1
  1285     0DF9  1405               	bsf	5,0	;volatile
  1286     0DFA                     l2322:
  1287                           
  1288                           ;main.c: 159:     ANSELbits.ANS0 = 1;
  1289     0DFA  1683               	bsf	3,5	;RP0=1, select bank3
  1290     0DFB  1703               	bsf	3,6	;RP1=1, select bank3
  1291     0DFC  1408               	bsf	8,0	;volatile
  1292     0DFD                     l2324:
  1293                           
  1294                           ;main.c: 160:     TRISAbits.TRISA1 = 1;
  1295     0DFD  1683               	bsf	3,5	;RP0=1, select bank1
  1296     0DFE  1303               	bcf	3,6	;RP1=0, select bank1
  1297     0DFF  1485               	bsf	5,1	;volatile
  1298     0E00                     l2326:
  1299                           
  1300                           ;main.c: 161:     ANSELbits.ANS1 = 1;
  1301     0E00  1683               	bsf	3,5	;RP0=1, select bank3
  1302     0E01  1703               	bsf	3,6	;RP1=1, select bank3
  1303     0E02  1488               	bsf	8,1	;volatile
  1304     0E03                     l2328:
  1305                           
  1306                           ;main.c: 162:     TRISAbits.TRISA2 = 1;
  1307     0E03  1683               	bsf	3,5	;RP0=1, select bank1
  1308     0E04  1303               	bcf	3,6	;RP1=0, select bank1
  1309     0E05  1505               	bsf	5,2	;volatile
  1310     0E06                     l2330:
  1311                           
  1312                           ;main.c: 163:     ANSELbits.ANS2 = 1;
  1313     0E06  1683               	bsf	3,5	;RP0=1, select bank3
  1314     0E07  1703               	bsf	3,6	;RP1=1, select bank3
  1315     0E08  1508               	bsf	8,2	;volatile
  1316     0E09                     l2332:
  1317                           
  1318                           ;main.c: 164:     TRISAbits.TRISA3 = 1;
  1319     0E09  1683               	bsf	3,5	;RP0=1, select bank1
  1320     0E0A  1303               	bcf	3,6	;RP1=0, select bank1
  1321     0E0B  1585               	bsf	5,3	;volatile
  1322     0E0C                     l2334:
  1323                           
  1324                           ;main.c: 165:     ANSELbits.ANS3 = 1;
  1325     0E0C  1683               	bsf	3,5	;RP0=1, select bank3
  1326     0E0D  1703               	bsf	3,6	;RP1=1, select bank3
  1327     0E0E  1588               	bsf	8,3	;volatile
  1328     0E0F                     l2336:
  1329                           
  1330                           ;main.c: 170:     ADCON0bits.ADCS1 = 0;
  1331     0E0F  1283               	bcf	3,5	;RP0=0, select bank0
  1332     0E10  1303               	bcf	3,6	;RP1=0, select bank0
  1333     0E11  139F               	bcf	31,7	;volatile
  1334     0E12                     l2338:
  1335                           
  1336                           ;main.c: 171:     ADCON0bits.ADCS0 = 1;
  1337     0E12  171F               	bsf	31,6	;volatile
  1338     0E13                     l2340:
  1339                           
  1340                           ;main.c: 173:     ADCON1bits.VCFG1 = 0;
  1341     0E13  1683               	bsf	3,5	;RP0=1, select bank1
  1342     0E14  1303               	bcf	3,6	;RP1=0, select bank1
  1343     0E15  129F               	bcf	31,5	;volatile
  1344     0E16                     l2342:
  1345                           
  1346                           ;main.c: 174:     ADCON1bits.VCFG0 = 0;
  1347     0E16  121F               	bcf	31,4	;volatile
  1348     0E17                     l2344:
  1349                           
  1350                           ;main.c: 176:     ADCON1bits.ADFM = 0;
  1351     0E17  139F               	bcf	31,7	;volatile
  1352     0E18                     l2346:
  1353                           
  1354                           ;main.c: 178:     ADCON0bits.ADON = 1;
  1355     0E18  1283               	bcf	3,5	;RP0=0, select bank0
  1356     0E19  1303               	bcf	3,6	;RP1=0, select bank0
  1357     0E1A  141F               	bsf	31,0	;volatile
  1358     0E1B                     l2348:
  1359                           
  1360                           ;main.c: 179:     _delay((unsigned long)((100)*(500000/4000000.0)));
  1361     0E1B  3003               	movlw	3
  1362     0E1C  1283               	bcf	3,5	;RP0=0, select bank0
  1363     0E1D  1303               	bcf	3,6	;RP1=0, select bank0
  1364     0E1E  00A0               	movwf	??_setupADC
  1365     0E1F                     u3427:
  1366     0E1F  0BA0               	decfsz	??_setupADC,f
  1367     0E20  2E1F               	goto	u3427
  1368     0E21                     l132:
  1369     0E21  0008               	return
  1370     0E22                     __end_of_setupADC:
  1371                           
  1372                           	psect	text6
  1373     0D26                     __ptext6:	
  1374 ;; *************** function _setup *****************
  1375 ;; Defined at:
  1376 ;;		line 135 in file "main.c"
  1377 ;; Parameters:    Size  Location     Type
  1378 ;;		None
  1379 ;; Auto vars:     Size  Location     Type
  1380 ;;		None
  1381 ;; Return value:  Size  Location     Type
  1382 ;;                  1    wreg      void 
  1383 ;; Registers used:
  1384 ;;		wreg, status,2
  1385 ;; Tracked objects:
  1386 ;;		On entry : 0/0
  1387 ;;		On exit  : 0/0
  1388 ;;		Unchanged: 0/0
  1389 ;; Data sizes:     COMMON   BANK0   BANK1   BANK3   BANK2
  1390 ;;      Params:         0       0       0       0       0
  1391 ;;      Locals:         0       0       0       0       0
  1392 ;;      Temps:          0       0       0       0       0
  1393 ;;      Totals:         0       0       0       0       0
  1394 ;;Total ram usage:        0 bytes
  1395 ;; Hardware stack levels used: 1
  1396 ;; Hardware stack levels required when called: 2
  1397 ;; This function calls:
  1398 ;;		Nothing
  1399 ;; This function is called by:
  1400 ;;		_main
  1401 ;; This function uses a non-reentrant model
  1402 ;;
  1403                           
  1404     0D26                     _setup:	
  1405                           ;psect for function _setup
  1406                           
  1407     0D26                     l2292:	
  1408                           ;incstack = 0
  1409                           ; Regs used in _setup: [wreg+status,2]
  1410                           
  1411                           
  1412                           ;main.c: 136:     ANSELH = 0;
  1413     0D26  1683               	bsf	3,5	;RP0=1, select bank3
  1414     0D27  1703               	bsf	3,6	;RP1=1, select bank3
  1415     0D28  0189               	clrf	9	;volatile
  1416                           
  1417                           ;main.c: 137:     PORTA = 0;
  1418     0D29  1283               	bcf	3,5	;RP0=0, select bank0
  1419     0D2A  1303               	bcf	3,6	;RP1=0, select bank0
  1420     0D2B  0185               	clrf	5	;volatile
  1421                           
  1422                           ;main.c: 138:     PORTC = 0;
  1423     0D2C  0187               	clrf	7	;volatile
  1424                           
  1425                           ;main.c: 139:     PORTD = 0;
  1426     0D2D  0188               	clrf	8	;volatile
  1427                           
  1428                           ;main.c: 140:     TRISD = 0;
  1429     0D2E  1683               	bsf	3,5	;RP0=1, select bank1
  1430     0D2F  1303               	bcf	3,6	;RP1=0, select bank1
  1431     0D30  0188               	clrf	8	;volatile
  1432                           
  1433                           ;main.c: 141:     TRISC = 0;
  1434     0D31  0187               	clrf	7	;volatile
  1435     0D32                     l2294:
  1436                           
  1437                           ;main.c: 142:     PIE1bits.ADIE = 1;
  1438     0D32  170C               	bsf	12,6	;volatile
  1439     0D33                     l2296:
  1440                           
  1441                           ;main.c: 143:     PIR1bits.ADIF = 0;
  1442     0D33  1283               	bcf	3,5	;RP0=0, select bank0
  1443     0D34  1303               	bcf	3,6	;RP1=0, select bank0
  1444     0D35  130C               	bcf	12,6	;volatile
  1445     0D36                     l2298:
  1446                           
  1447                           ;main.c: 145:     INTCONbits.RBIE = 1;
  1448     0D36  158B               	bsf	11,3	;volatile
  1449     0D37                     l2300:
  1450                           
  1451                           ;main.c: 146:     INTCONbits.RBIF = 0;
  1452     0D37  100B               	bcf	11,0	;volatile
  1453     0D38                     l2302:
  1454                           
  1455                           ;main.c: 147:     IOCB = 0b00000111;
  1456     0D38  3007               	movlw	7
  1457     0D39  1683               	bsf	3,5	;RP0=1, select bank1
  1458     0D3A  1303               	bcf	3,6	;RP1=0, select bank1
  1459     0D3B  0096               	movwf	22	;volatile
  1460     0D3C                     l2304:
  1461                           
  1462                           ;main.c: 148:     WPUB = 0b00000111;
  1463     0D3C  3007               	movlw	7
  1464     0D3D  0095               	movwf	21	;volatile
  1465     0D3E                     l2306:
  1466                           
  1467                           ;main.c: 149:     OPTION_REGbits.nRBPU = 0;
  1468     0D3E  1381               	bcf	1,7	;volatile
  1469     0D3F                     l129:
  1470     0D3F  0008               	return
  1471     0D40                     __end_of_setup:
  1472                           
  1473                           	psect	text7
  1474     05C2                     __ptext7:	
  1475 ;; *************** function _controlmotores *****************
  1476 ;; Defined at:
  1477 ;;		line 256 in file "main.c"
  1478 ;; Parameters:    Size  Location     Type
  1479 ;;		None
  1480 ;; Auto vars:     Size  Location     Type
  1481 ;;		None
  1482 ;; Return value:  Size  Location     Type
  1483 ;;                  1    wreg      void 
  1484 ;; Registers used:
  1485 ;;		wreg, status,2, status,0, btemp+1, pclath, cstack
  1486 ;; Tracked objects:
  1487 ;;		On entry : 0/0
  1488 ;;		On exit  : 0/0
  1489 ;;		Unchanged: 0/0
  1490 ;; Data sizes:     COMMON   BANK0   BANK1   BANK3   BANK2
  1491 ;;      Params:         0       0       0       0       0
  1492 ;;      Locals:         0       0       0       0       0
  1493 ;;      Temps:          0       3       0       0       0
  1494 ;;      Totals:         0       3       0       0       0
  1495 ;;Total ram usage:        3 bytes
  1496 ;; Hardware stack levels used: 1
  1497 ;; Hardware stack levels required when called: 5
  1498 ;; This function calls:
  1499 ;;		_map
  1500 ;;		_mapeo
  1501 ;; This function is called by:
  1502 ;;		_main
  1503 ;; This function uses a non-reentrant model
  1504 ;;
  1505                           
  1506     05C2                     _controlmotores:	
  1507                           ;psect for function _controlmotores
  1508                           
  1509     05C2                     l2382:	
  1510                           ;incstack = 0
  1511                           ; Regs used in _controlmotores: [wreg+status,2+status,0+btemp+1+pclath+cstack]
  1512                           
  1513                           
  1514                           ;main.c: 259:     ADCON0bits.CHS = 0b0000;
  1515     05C2  30C3               	movlw	-61
  1516     05C3  1283               	bcf	3,5	;RP0=0, select bank0
  1517     05C4  1303               	bcf	3,6	;RP1=0, select bank0
  1518     05C5  059F               	andwf	31,f	;volatile
  1519     05C6                     l2384:
  1520                           
  1521                           ;main.c: 260:     _delay((unsigned long)((100)*(500000/4000000.0)));
  1522     05C6  3003               	movlw	3
  1523     05C7  1283               	bcf	3,5	;RP0=0, select bank0
  1524     05C8  1303               	bcf	3,6	;RP1=0, select bank0
  1525     05C9  00EB               	movwf	??_controlmotores
  1526     05CA                     u3437:
  1527     05CA  0BEB               	decfsz	??_controlmotores,f
  1528     05CB  2DCA               	goto	u3437
  1529     05CC                     l2386:
  1530                           
  1531                           ;main.c: 261:     ADCON0bits.GO = 1;
  1532     05CC  1283               	bcf	3,5	;RP0=0, select bank0
  1533     05CD  1303               	bcf	3,6	;RP1=0, select bank0
  1534     05CE  149F               	bsf	31,1	;volatile
  1535     05CF                     l162:	
  1536                           ;main.c: 263:     while(ADCON0bits.GO == 1);
  1537                           
  1538     05CF  189F               	btfsc	31,1	;volatile
  1539     05D0  2DD2               	goto	u3341
  1540     05D1  2DD3               	goto	u3340
  1541     05D2                     u3341:
  1542     05D2  2DCF               	goto	l162
  1543     05D3                     u3340:
  1544     05D3                     l164:
  1545                           
  1546                           ;main.c: 264:     ADIF = 0;
  1547     05D3  130C               	bcf	12,6	;volatile
  1548     05D4                     l2388:
  1549                           
  1550                           ;main.c: 265:     mapeo();
  1551     05D4  120A  118A  275D  120A  118A  	fcall	_mapeo
  1552     05D9                     l2390:
  1553                           
  1554                           ;main.c: 266:     CCP1CONbits.DC1B = valDCL;
  1555     05D9  0872               	movf	_valDCL,w
  1556     05DA  1283               	bcf	3,5	;RP0=0, select bank0
  1557     05DB  1303               	bcf	3,6	;RP1=0, select bank0
  1558     05DC  00EB               	movwf	??_controlmotores
  1559     05DD  0EEB               	swapf	??_controlmotores,f
  1560     05DE  0817               	movf	23,w	;volatile
  1561     05DF  066B               	xorwf	??_controlmotores,w
  1562     05E0  39CF               	andlw	-49
  1563     05E1  066B               	xorwf	??_controlmotores,w
  1564     05E2  0097               	movwf	23	;volatile
  1565     05E3                     l2392:
  1566                           
  1567                           ;main.c: 267:     CCPR1L = valDCH;
  1568     05E3  0870               	movf	_valDCH,w
  1569     05E4  0095               	movwf	21	;volatile
  1570     05E5                     l2394:
  1571                           
  1572                           ;main.c: 268:     _delay((unsigned long)((1)*(500000/4000.0)));
  1573     05E5  3028               	movlw	40
  1574     05E6  1283               	bcf	3,5	;RP0=0, select bank0
  1575     05E7  1303               	bcf	3,6	;RP1=0, select bank0
  1576     05E8  00EB               	movwf	??_controlmotores
  1577     05E9                     u3447:
  1578     05E9  0BEB               	decfsz	??_controlmotores,f
  1579     05EA  2DE9               	goto	u3447
  1580     05EB  2DEC               	nop2
  1581     05EC                     l2396:
  1582                           
  1583                           ;main.c: 272:     ADCON0bits.CHS = 0b0001;
  1584     05EC  1283               	bcf	3,5	;RP0=0, select bank0
  1585     05ED  1303               	bcf	3,6	;RP1=0, select bank0
  1586     05EE  081F               	movf	31,w	;volatile
  1587     05EF  39C3               	andlw	-61
  1588     05F0  3804               	iorlw	4
  1589     05F1  009F               	movwf	31	;volatile
  1590     05F2                     l2398:
  1591                           
  1592                           ;main.c: 273:     _delay((unsigned long)((100)*(500000/4000000.0)));
  1593     05F2  3003               	movlw	3
  1594     05F3  1283               	bcf	3,5	;RP0=0, select bank0
  1595     05F4  1303               	bcf	3,6	;RP1=0, select bank0
  1596     05F5  00EB               	movwf	??_controlmotores
  1597     05F6                     u3457:
  1598     05F6  0BEB               	decfsz	??_controlmotores,f
  1599     05F7  2DF6               	goto	u3457
  1600     05F8                     l2400:
  1601                           
  1602                           ;main.c: 274:     ADCON0bits.GO = 1;
  1603     05F8  1283               	bcf	3,5	;RP0=0, select bank0
  1604     05F9  1303               	bcf	3,6	;RP1=0, select bank0
  1605     05FA  149F               	bsf	31,1	;volatile
  1606     05FB                     l165:	
  1607                           ;main.c: 276:     while(ADCON0bits.GO == 1);
  1608                           
  1609     05FB  189F               	btfsc	31,1	;volatile
  1610     05FC  2DFE               	goto	u3351
  1611     05FD  2DFF               	goto	u3350
  1612     05FE                     u3351:
  1613     05FE  2DFB               	goto	l165
  1614     05FF                     u3350:
  1615     05FF                     l167:
  1616                           
  1617                           ;main.c: 277:     ADIF = 0;
  1618     05FF  130C               	bcf	12,6	;volatile
  1619     0600                     l2402:
  1620                           
  1621                           ;main.c: 278:     mapeo();
  1622     0600  120A  118A  275D  120A  118A  	fcall	_mapeo
  1623     0605                     l2404:
  1624                           
  1625                           ;main.c: 279:     CCP2CONbits.DC2B0 = valDCL & 0x01;
  1626     0605  0872               	movf	_valDCL,w
  1627     0606  3901               	andlw	1
  1628     0607  1283               	bcf	3,5	;RP0=0, select bank0
  1629     0608  1303               	bcf	3,6	;RP1=0, select bank0
  1630     0609  00EB               	movwf	??_controlmotores
  1631     060A  0EEB               	swapf	??_controlmotores,f
  1632     060B  081D               	movf	29,w	;volatile
  1633     060C  066B               	xorwf	??_controlmotores,w
  1634     060D  39EF               	andlw	-17
  1635     060E  066B               	xorwf	??_controlmotores,w
  1636     060F  009D               	movwf	29	;volatile
  1637     0610                     l2406:
  1638                           
  1639                           ;main.c: 280:     CCP2CONbits.DC2B1 = (valDCL & 0x02) >> 1;
  1640     0610  0873               	movf	_valDCL+1,w
  1641     0611  00EC               	movwf	??_controlmotores+1
  1642     0612  0872               	movf	_valDCL,w
  1643     0613  00EB               	movwf	??_controlmotores
  1644     0614  1003               	clrc
  1645     0615  0CEC               	rrf	??_controlmotores+1,f
  1646     0616  0CEB               	rrf	??_controlmotores,f
  1647     0617  086B               	movf	??_controlmotores,w
  1648     0618  3901               	andlw	1
  1649     0619  00ED               	movwf	??_controlmotores+2
  1650     061A  0EED               	swapf	??_controlmotores+2,f
  1651     061B  0DED               	rlf	??_controlmotores+2,f
  1652     061C  081D               	movf	29,w	;volatile
  1653     061D  066D               	xorwf	??_controlmotores+2,w
  1654     061E  39DF               	andlw	-33
  1655     061F  066D               	xorwf	??_controlmotores+2,w
  1656     0620  009D               	movwf	29	;volatile
  1657     0621                     l2408:
  1658                           
  1659                           ;main.c: 281:     CCPR2L = valDCH;
  1660     0621  0870               	movf	_valDCH,w
  1661     0622  009B               	movwf	27	;volatile
  1662     0623                     l2410:
  1663                           
  1664                           ;main.c: 282:     _delay((unsigned long)((1)*(500000/4000.0)));
  1665     0623  3028               	movlw	40
  1666     0624  1283               	bcf	3,5	;RP0=0, select bank0
  1667     0625  1303               	bcf	3,6	;RP1=0, select bank0
  1668     0626  00EB               	movwf	??_controlmotores
  1669     0627                     u3467:
  1670     0627  0BEB               	decfsz	??_controlmotores,f
  1671     0628  2E27               	goto	u3467
  1672     0629  2E2A               	nop2
  1673     062A                     l2412:
  1674                           
  1675                           ;main.c: 286:     ADCON0bits.CHS = 0b0010;
  1676     062A  1283               	bcf	3,5	;RP0=0, select bank0
  1677     062B  1303               	bcf	3,6	;RP1=0, select bank0
  1678     062C  081F               	movf	31,w	;volatile
  1679     062D  39C3               	andlw	-61
  1680     062E  3808               	iorlw	8
  1681     062F  009F               	movwf	31	;volatile
  1682     0630                     l2414:
  1683                           
  1684                           ;main.c: 287:     _delay((unsigned long)((100)*(500000/4000000.0)));
  1685     0630  3003               	movlw	3
  1686     0631  1283               	bcf	3,5	;RP0=0, select bank0
  1687     0632  1303               	bcf	3,6	;RP1=0, select bank0
  1688     0633  00EB               	movwf	??_controlmotores
  1689     0634                     u3477:
  1690     0634  0BEB               	decfsz	??_controlmotores,f
  1691     0635  2E34               	goto	u3477
  1692     0636                     l2416:
  1693                           
  1694                           ;main.c: 288:     ADCON0bits.GO = 1;
  1695     0636  1283               	bcf	3,5	;RP0=0, select bank0
  1696     0637  1303               	bcf	3,6	;RP1=0, select bank0
  1697     0638  149F               	bsf	31,1	;volatile
  1698     0639                     l168:	
  1699                           ;main.c: 290:     while(ADCON0bits.GO == 1);
  1700                           
  1701     0639  189F               	btfsc	31,1	;volatile
  1702     063A  2E3C               	goto	u3361
  1703     063B  2E3D               	goto	u3360
  1704     063C                     u3361:
  1705     063C  2E39               	goto	l168
  1706     063D                     u3360:
  1707     063D                     l170:
  1708                           
  1709                           ;main.c: 291:     ADIF = 0;
  1710     063D  130C               	bcf	12,6	;volatile
  1711     063E                     l2418:
  1712                           
  1713                           ;main.c: 292:     pot = map(ADRESH, 0, 255, 1, 17);
  1714     063E  3000               	movlw	0
  1715     063F  00AF               	movwf	map@inputmin
  1716     0640  00B0               	movwf	map@inputmin+1
  1717     0641  30FF               	movlw	255
  1718     0642  00B1               	movwf	map@inputmax
  1719     0643  3000               	movlw	0
  1720     0644  00B2               	movwf	map@inputmax+1
  1721     0645  3001               	movlw	1
  1722     0646  00B3               	movwf	map@outmin
  1723     0647  3000               	movlw	0
  1724     0648  00B4               	movwf	map@outmin+1
  1725     0649  3011               	movlw	17
  1726     064A  00B5               	movwf	map@outmax
  1727     064B  3000               	movlw	0
  1728     064C  00B6               	movwf	map@outmax+1
  1729     064D  081E               	movf	30,w	;volatile
  1730     064E  120A  158A  2622  120A  118A  	fcall	_map
  1731     0653  1283               	bcf	3,5	;RP0=0, select bank0
  1732     0654  1303               	bcf	3,6	;RP1=0, select bank0
  1733     0655  0830               	movf	?_map+1,w
  1734     0656  1683               	bsf	3,5	;RP0=1, select bank1
  1735     0657  1303               	bcf	3,6	;RP1=0, select bank1
  1736     0658  00A5               	movwf	(_pot+1)^(0+128)
  1737     0659  1283               	bcf	3,5	;RP0=0, select bank0
  1738     065A  1303               	bcf	3,6	;RP1=0, select bank0
  1739     065B  082F               	movf	?_map,w
  1740     065C  1683               	bsf	3,5	;RP0=1, select bank1
  1741     065D  1303               	bcf	3,6	;RP1=0, select bank1
  1742     065E  00A4               	movwf	_pot^(0+128)
  1743     065F                     l2420:
  1744                           
  1745                           ;main.c: 294:     _delay((unsigned long)((1)*(500000/4000.0)));
  1746     065F  3028               	movlw	40
  1747     0660  1283               	bcf	3,5	;RP0=0, select bank0
  1748     0661  1303               	bcf	3,6	;RP1=0, select bank0
  1749     0662  00EB               	movwf	??_controlmotores
  1750     0663                     u3487:
  1751     0663  0BEB               	decfsz	??_controlmotores,f
  1752     0664  2E63               	goto	u3487
  1753     0665  2E66               	nop2
  1754     0666                     l2422:
  1755                           
  1756                           ;main.c: 297:     ADCON0bits.CHS = 0b0011;
  1757     0666  1283               	bcf	3,5	;RP0=0, select bank0
  1758     0667  1303               	bcf	3,6	;RP1=0, select bank0
  1759     0668  081F               	movf	31,w	;volatile
  1760     0669  39C3               	andlw	-61
  1761     066A  380C               	iorlw	12
  1762     066B  009F               	movwf	31	;volatile
  1763     066C                     l2424:
  1764                           
  1765                           ;main.c: 298:     _delay((unsigned long)((100)*(500000/4000000.0)));
  1766     066C  3003               	movlw	3
  1767     066D  1283               	bcf	3,5	;RP0=0, select bank0
  1768     066E  1303               	bcf	3,6	;RP1=0, select bank0
  1769     066F  00EB               	movwf	??_controlmotores
  1770     0670                     u3497:
  1771     0670  0BEB               	decfsz	??_controlmotores,f
  1772     0671  2E70               	goto	u3497
  1773     0672                     l2426:
  1774                           
  1775                           ;main.c: 299:     ADCON0bits.GO = 1;
  1776     0672  1283               	bcf	3,5	;RP0=0, select bank0
  1777     0673  1303               	bcf	3,6	;RP1=0, select bank0
  1778     0674  149F               	bsf	31,1	;volatile
  1779     0675                     l171:	
  1780                           ;main.c: 301:     while(ADCON0bits.GO == 1);
  1781                           
  1782     0675  189F               	btfsc	31,1	;volatile
  1783     0676  2E78               	goto	u3371
  1784     0677  2E79               	goto	u3370
  1785     0678                     u3371:
  1786     0678  2E75               	goto	l171
  1787     0679                     u3370:
  1788     0679                     l173:
  1789                           
  1790                           ;main.c: 302:     ADIF = 0;
  1791     0679  130C               	bcf	12,6	;volatile
  1792     067A                     l2428:
  1793                           
  1794                           ;main.c: 303:     pot1 = map(ADRESH, 0, 255, 1, 17);
  1795     067A  3000               	movlw	0
  1796     067B  00AF               	movwf	map@inputmin
  1797     067C  00B0               	movwf	map@inputmin+1
  1798     067D  30FF               	movlw	255
  1799     067E  00B1               	movwf	map@inputmax
  1800     067F  3000               	movlw	0
  1801     0680  00B2               	movwf	map@inputmax+1
  1802     0681  3001               	movlw	1
  1803     0682  00B3               	movwf	map@outmin
  1804     0683  3000               	movlw	0
  1805     0684  00B4               	movwf	map@outmin+1
  1806     0685  3011               	movlw	17
  1807     0686  00B5               	movwf	map@outmax
  1808     0687  3000               	movlw	0
  1809     0688  00B6               	movwf	map@outmax+1
  1810     0689  081E               	movf	30,w	;volatile
  1811     068A  120A  158A  2622  120A  118A  	fcall	_map
  1812     068F  1283               	bcf	3,5	;RP0=0, select bank0
  1813     0690  1303               	bcf	3,6	;RP1=0, select bank0
  1814     0691  0830               	movf	?_map+1,w
  1815     0692  1683               	bsf	3,5	;RP0=1, select bank1
  1816     0693  1303               	bcf	3,6	;RP1=0, select bank1
  1817     0694  00A3               	movwf	(_pot1+1)^(0+128)
  1818     0695  1283               	bcf	3,5	;RP0=0, select bank0
  1819     0696  1303               	bcf	3,6	;RP1=0, select bank0
  1820     0697  082F               	movf	?_map,w
  1821     0698  1683               	bsf	3,5	;RP0=1, select bank1
  1822     0699  1303               	bcf	3,6	;RP1=0, select bank1
  1823     069A  00A2               	movwf	_pot1^(0+128)
  1824     069B                     l2430:
  1825                           
  1826                           ;main.c: 305:     _delay((unsigned long)((1)*(500000/4000.0)));
  1827     069B  3028               	movlw	40
  1828     069C  1283               	bcf	3,5	;RP0=0, select bank0
  1829     069D  1303               	bcf	3,6	;RP1=0, select bank0
  1830     069E  00EB               	movwf	??_controlmotores
  1831     069F                     u3507:
  1832     069F  0BEB               	decfsz	??_controlmotores,f
  1833     06A0  2E9F               	goto	u3507
  1834     06A1  2EA2               	nop2
  1835     06A2                     l174:
  1836     06A2  0008               	return
  1837     06A3                     __end_of_controlmotores:
  1838                           
  1839                           	psect	text8
  1840     075D                     __ptext8:	
  1841 ;; *************** function _mapeo *****************
  1842 ;; Defined at:
  1843 ;;		line 247 in file "main.c"
  1844 ;; Parameters:    Size  Location     Type
  1845 ;;		None
  1846 ;; Auto vars:     Size  Location     Type
  1847 ;;		None
  1848 ;; Return value:  Size  Location     Type
  1849 ;;                  1    wreg      void 
  1850 ;; Registers used:
  1851 ;;		wreg, status,2, status,0, btemp+1, pclath, cstack
  1852 ;; Tracked objects:
  1853 ;;		On entry : 0/0
  1854 ;;		On exit  : 0/0
  1855 ;;		Unchanged: 0/0
  1856 ;; Data sizes:     COMMON   BANK0   BANK1   BANK3   BANK2
  1857 ;;      Params:         0       0       0       0       0
  1858 ;;      Locals:         0       0       0       0       0
  1859 ;;      Temps:          0       5       0       0       0
  1860 ;;      Totals:         0       5       0       0       0
  1861 ;;Total ram usage:        5 bytes
  1862 ;; Hardware stack levels used: 1
  1863 ;; Hardware stack levels required when called: 4
  1864 ;; This function calls:
  1865 ;;		___fladd
  1866 ;;		___flmul
  1867 ;;		___fltol
  1868 ;;		___xxtofl
  1869 ;; This function is called by:
  1870 ;;		_controlmotores
  1871 ;; This function uses a non-reentrant model
  1872 ;;
  1873                           
  1874     075D                     _mapeo:	
  1875                           ;psect for function _mapeo
  1876                           
  1877     075D                     l2284:	
  1878                           ;incstack = 0
  1879                           ; Regs used in _mapeo: [wreg+status,2+status,0+btemp+1+pclath+cstack]
  1880                           
  1881                           
  1882                           ;main.c: 248:     ADC_RES = ((ADRESH<<2)+(ADRESL>>6));
  1883     075D  1683               	bsf	3,5	;RP0=1, select bank1
  1884     075E  1303               	bcf	3,6	;RP1=0, select bank1
  1885     075F  081E               	movf	30,w	;volatile
  1886     0760  1283               	bcf	3,5	;RP0=0, select bank0
  1887     0761  1303               	bcf	3,6	;RP1=0, select bank0
  1888     0762  00E6               	movwf	??_mapeo
  1889     0763  3006               	movlw	6
  1890     0764                     u3285:
  1891     0764  1003               	clrc
  1892     0765  0CE6               	rrf	??_mapeo,f
  1893     0766  3EFF               	addlw	-1
  1894     0767  1D03               	skipz
  1895     0768  2F64               	goto	u3285
  1896     0769  081E               	movf	30,w	;volatile
  1897     076A  00E7               	movwf	??_mapeo+1
  1898     076B  01E8               	clrf	??_mapeo+2
  1899     076C  1003               	clrc
  1900     076D  0DE7               	rlf	??_mapeo+1,f
  1901     076E  0DE8               	rlf	??_mapeo+2,f
  1902     076F  1003               	clrc
  1903     0770  0DE7               	rlf	??_mapeo+1,f
  1904     0771  0DE8               	rlf	??_mapeo+2,f
  1905     0772  0866               	movf	??_mapeo,w
  1906     0773  0767               	addwf	??_mapeo+1,w
  1907     0774  00E9               	movwf	??_mapeo+3
  1908     0775  3000               	movlw	0
  1909     0776  1803               	skipnc
  1910     0777  3001               	movlw	1
  1911     0778  0768               	addwf	??_mapeo+2,w
  1912     0779  00EA               	movwf	??_mapeo+4
  1913     077A  0869               	movf	??_mapeo+3,w
  1914     077B  1683               	bsf	3,5	;RP0=1, select bank1
  1915     077C  1303               	bcf	3,6	;RP1=0, select bank1
  1916     077D  00A8               	movwf	_ADC_RES^(0+128)
  1917     077E  1283               	bcf	3,5	;RP0=0, select bank0
  1918     077F  1303               	bcf	3,6	;RP1=0, select bank0
  1919     0780  086A               	movf	??_mapeo+4,w
  1920     0781  1683               	bsf	3,5	;RP0=1, select bank1
  1921     0782  1303               	bcf	3,6	;RP1=0, select bank1
  1922     0783  00A9               	movwf	(_ADC_RES+1)^(0+128)
  1923     0784                     l2286:
  1924                           
  1925                           ;main.c: 249:     valDC = (0.033*ADC_RES+32);
  1926     0784  0828               	movf	_ADC_RES^(0+128),w
  1927     0785  1283               	bcf	3,5	;RP0=0, select bank0
  1928     0786  1303               	bcf	3,6	;RP1=0, select bank0
  1929     0787  00A0               	movwf	___xxtofl@val
  1930     0788  1683               	bsf	3,5	;RP0=1, select bank1
  1931     0789  1303               	bcf	3,6	;RP1=0, select bank1
  1932     078A  0829               	movf	(_ADC_RES+1)^(0+128),w
  1933     078B  1283               	bcf	3,5	;RP0=0, select bank0
  1934     078C  1303               	bcf	3,6	;RP1=0, select bank0
  1935     078D  00A1               	movwf	___xxtofl@val+1
  1936     078E  01A2               	clrf	___xxtofl@val+2
  1937     078F  01A3               	clrf	___xxtofl@val+3
  1938     0790  3000               	movlw	0
  1939     0791  120A  118A  26A3  120A  118A  	fcall	___xxtofl
  1940     0796  1283               	bcf	3,5	;RP0=0, select bank0
  1941     0797  1303               	bcf	3,6	;RP1=0, select bank0
  1942     0798  0823               	movf	?___xxtofl+3,w
  1943     0799  00B5               	movwf	___flmul@a+3
  1944     079A  0822               	movf	?___xxtofl+2,w
  1945     079B  00B4               	movwf	___flmul@a+2
  1946     079C  0821               	movf	?___xxtofl+1,w
  1947     079D  00B3               	movwf	___flmul@a+1
  1948     079E  0820               	movf	?___xxtofl,w
  1949     079F  00B2               	movwf	___flmul@a
  1950     07A0  303D               	movlw	61
  1951     07A1  00B1               	movwf	___flmul@b+3
  1952     07A2  3007               	movlw	7
  1953     07A3  00B0               	movwf	___flmul@b+2
  1954     07A4  302B               	movlw	43
  1955     07A5  00AF               	movwf	___flmul@b+1
  1956     07A6  3002               	movlw	2
  1957     07A7  00AE               	movwf	___flmul@b
  1958     07A8  120A  118A  2025  120A  118A  	fcall	___flmul
  1959     07AD  1283               	bcf	3,5	;RP0=0, select bank0
  1960     07AE  1303               	bcf	3,6	;RP1=0, select bank0
  1961     07AF  0831               	movf	?___flmul+3,w
  1962     07B0  00CF               	movwf	___fladd@a+3
  1963     07B1  0830               	movf	?___flmul+2,w
  1964     07B2  00CE               	movwf	___fladd@a+2
  1965     07B3  082F               	movf	?___flmul+1,w
  1966     07B4  00CD               	movwf	___fladd@a+1
  1967     07B5  082E               	movf	?___flmul,w
  1968     07B6  00CC               	movwf	___fladd@a
  1969     07B7  3042               	movlw	66
  1970     07B8  00CB               	movwf	___fladd@b+3
  1971     07B9  3000               	movlw	0
  1972     07BA  00CA               	movwf	___fladd@b+2
  1973     07BB  3000               	movlw	0
  1974     07BC  00C9               	movwf	___fladd@b+1
  1975     07BD  3000               	movlw	0
  1976     07BE  00C8               	movwf	___fladd@b
  1977     07BF  120A  118A  236A  120A  118A  	fcall	___fladd
  1978     07C4  1283               	bcf	3,5	;RP0=0, select bank0
  1979     07C5  1303               	bcf	3,6	;RP1=0, select bank0
  1980     07C6  084B               	movf	?___fladd+3,w
  1981     07C7  00DF               	movwf	___fltol@f1+3
  1982     07C8  084A               	movf	?___fladd+2,w
  1983     07C9  00DE               	movwf	___fltol@f1+2
  1984     07CA  0849               	movf	?___fladd+1,w
  1985     07CB  00DD               	movwf	___fltol@f1+1
  1986     07CC  0848               	movf	?___fladd,w
  1987     07CD  00DC               	movwf	___fltol@f1
  1988     07CE  120A  158A  2788  120A  118A  	fcall	___fltol
  1989     07D3  1283               	bcf	3,5	;RP0=0, select bank0
  1990     07D4  1303               	bcf	3,6	;RP1=0, select bank0
  1991     07D5  085D               	movf	?___fltol+1,w
  1992     07D6  1683               	bsf	3,5	;RP0=1, select bank1
  1993     07D7  1303               	bcf	3,6	;RP1=0, select bank1
  1994     07D8  00A7               	movwf	(_valDC+1)^(0+128)
  1995     07D9  1283               	bcf	3,5	;RP0=0, select bank0
  1996     07DA  1303               	bcf	3,6	;RP1=0, select bank0
  1997     07DB  085C               	movf	?___fltol,w
  1998     07DC  1683               	bsf	3,5	;RP0=1, select bank1
  1999     07DD  1303               	bcf	3,6	;RP1=0, select bank1
  2000     07DE  00A6               	movwf	_valDC^(0+128)
  2001     07DF                     l2288:
  2002                           
  2003                           ;main.c: 250:     valDCL = valDC & 0x003;
  2004     07DF  3003               	movlw	3
  2005     07E0  0526               	andwf	_valDC^(0+128),w
  2006     07E1  00F2               	movwf	_valDCL
  2007     07E2  3000               	movlw	0
  2008     07E3  0527               	andwf	(_valDC+1)^(0+128),w
  2009     07E4  00F3               	movwf	_valDCL+1
  2010     07E5                     l2290:
  2011                           
  2012                           ;main.c: 251:     valDCH = (valDC & 0x3FC) >> 2;
  2013     07E5  0827               	movf	(_valDC+1)^(0+128),w
  2014     07E6  1283               	bcf	3,5	;RP0=0, select bank0
  2015     07E7  1303               	bcf	3,6	;RP1=0, select bank0
  2016     07E8  00E7               	movwf	??_mapeo+1
  2017     07E9  1683               	bsf	3,5	;RP0=1, select bank1
  2018     07EA  1303               	bcf	3,6	;RP1=0, select bank1
  2019     07EB  0826               	movf	_valDC^(0+128),w
  2020     07EC  1283               	bcf	3,5	;RP0=0, select bank0
  2021     07ED  1303               	bcf	3,6	;RP1=0, select bank0
  2022     07EE  00E6               	movwf	??_mapeo
  2023     07EF  1003               	clrc
  2024     07F0  0CE7               	rrf	??_mapeo+1,f
  2025     07F1  0CE6               	rrf	??_mapeo,f
  2026     07F2  1003               	clrc
  2027     07F3  0CE7               	rrf	??_mapeo+1,f
  2028     07F4  0CE6               	rrf	??_mapeo,f
  2029     07F5  30FF               	movlw	255
  2030     07F6  0566               	andwf	??_mapeo,w
  2031     07F7  00F0               	movwf	_valDCH
  2032     07F8  3000               	movlw	0
  2033     07F9  0567               	andwf	??_mapeo+1,w
  2034     07FA  00F1               	movwf	_valDCH+1
  2035     07FB                     l159:
  2036     07FB  0008               	return
  2037     07FC                     __end_of_mapeo:
  2038                           
  2039                           	psect	text9
  2040     06A3                     __ptext9:	
  2041 ;; *************** function ___xxtofl *****************
  2042 ;; Defined at:
  2043 ;;		line 10 in file "C:\Program Files\Microchip\xc8\v2.40\pic\sources\c90\common\xxtofl.c"
  2044 ;; Parameters:    Size  Location     Type
  2045 ;;  sign            1    wreg     unsigned char 
  2046 ;;  val             4    0[BANK0 ] long 
  2047 ;; Auto vars:     Size  Location     Type
  2048 ;;  sign            1    8[BANK0 ] unsigned char 
  2049 ;;  arg             4   10[BANK0 ] unsigned long 
  2050 ;;  exp             1    9[BANK0 ] unsigned char 
  2051 ;; Return value:  Size  Location     Type
  2052 ;;                  4    0[BANK0 ] unsigned char 
  2053 ;; Registers used:
  2054 ;;		wreg, status,2, status,0
  2055 ;; Tracked objects:
  2056 ;;		On entry : 0/0
  2057 ;;		On exit  : 0/0
  2058 ;;		Unchanged: 0/0
  2059 ;; Data sizes:     COMMON   BANK0   BANK1   BANK3   BANK2
  2060 ;;      Params:         0       4       0       0       0
  2061 ;;      Locals:         0       6       0       0       0
  2062 ;;      Temps:          0       4       0       0       0
  2063 ;;      Totals:         0      14       0       0       0
  2064 ;;Total ram usage:       14 bytes
  2065 ;; Hardware stack levels used: 1
  2066 ;; Hardware stack levels required when called: 2
  2067 ;; This function calls:
  2068 ;;		Nothing
  2069 ;; This function is called by:
  2070 ;;		_mapeo
  2071 ;; This function uses a non-reentrant model
  2072 ;;
  2073                           
  2074     06A3                     ___xxtofl:	
  2075                           ;psect for function ___xxtofl
  2076                           
  2077                           
  2078                           ;incstack = 0
  2079                           ; Regs used in ___xxtofl: [wreg+status,2+status,0]
  2080                           ;___xxtofl@sign stored from wreg
  2081     06A3  1283               	bcf	3,5	;RP0=0, select bank0
  2082     06A4  1303               	bcf	3,6	;RP1=0, select bank0
  2083     06A5  00A8               	movwf	___xxtofl@sign
  2084     06A6                     l1930:
  2085     06A6  0828               	movf	___xxtofl@sign,w
  2086     06A7  1903               	btfsc	3,2
  2087     06A8  2EAA               	goto	u2551
  2088     06A9  2EAB               	goto	u2550
  2089     06AA                     u2551:
  2090     06AA  2EBF               	goto	l1936
  2091     06AB                     u2550:
  2092     06AB                     l1932:
  2093     06AB  1FA3               	btfss	___xxtofl@val+3,7
  2094     06AC  2EAE               	goto	u2561
  2095     06AD  2EAF               	goto	u2560
  2096     06AE                     u2561:
  2097     06AE  2EBF               	goto	l1936
  2098     06AF                     u2560:
  2099     06AF                     l1934:
  2100     06AF  0920               	comf	___xxtofl@val,w
  2101     06B0  00AA               	movwf	___xxtofl@arg
  2102     06B1  0921               	comf	___xxtofl@val+1,w
  2103     06B2  00AB               	movwf	___xxtofl@arg+1
  2104     06B3  0922               	comf	___xxtofl@val+2,w
  2105     06B4  00AC               	movwf	___xxtofl@arg+2
  2106     06B5  0923               	comf	___xxtofl@val+3,w
  2107     06B6  00AD               	movwf	___xxtofl@arg+3
  2108     06B7  0AAA               	incf	___xxtofl@arg,f
  2109     06B8  1903               	skipnz
  2110     06B9  0AAB               	incf	___xxtofl@arg+1,f
  2111     06BA  1903               	skipnz
  2112     06BB  0AAC               	incf	___xxtofl@arg+2,f
  2113     06BC  1903               	skipnz
  2114     06BD  0AAD               	incf	___xxtofl@arg+3,f
  2115     06BE  2EC7               	goto	l701
  2116     06BF                     l1936:
  2117     06BF  0823               	movf	___xxtofl@val+3,w
  2118     06C0  00AD               	movwf	___xxtofl@arg+3
  2119     06C1  0822               	movf	___xxtofl@val+2,w
  2120     06C2  00AC               	movwf	___xxtofl@arg+2
  2121     06C3  0821               	movf	___xxtofl@val+1,w
  2122     06C4  00AB               	movwf	___xxtofl@arg+1
  2123     06C5  0820               	movf	___xxtofl@val,w
  2124     06C6  00AA               	movwf	___xxtofl@arg
  2125     06C7                     l701:
  2126     06C7  0823               	movf	___xxtofl@val+3,w
  2127     06C8  0422               	iorwf	___xxtofl@val+2,w
  2128     06C9  0421               	iorwf	___xxtofl@val+1,w
  2129     06CA  0420               	iorwf	___xxtofl@val,w
  2130     06CB  1D03               	skipz
  2131     06CC  2ECE               	goto	u2571
  2132     06CD  2ECF               	goto	u2570
  2133     06CE                     u2571:
  2134     06CE  2ED8               	goto	l1942
  2135     06CF                     u2570:
  2136     06CF                     l1938:
  2137     06CF  3000               	movlw	0
  2138     06D0  00A3               	movwf	?___xxtofl+3
  2139     06D1  3000               	movlw	0
  2140     06D2  00A2               	movwf	?___xxtofl+2
  2141     06D3  3000               	movlw	0
  2142     06D4  00A1               	movwf	?___xxtofl+1
  2143     06D5  3000               	movlw	0
  2144     06D6  00A0               	movwf	?___xxtofl
  2145     06D7  2F5C               	goto	l703
  2146     06D8                     l1942:
  2147     06D8  3096               	movlw	150
  2148     06D9  00A9               	movwf	___xxtofl@exp
  2149     06DA  2EE8               	goto	l1946
  2150     06DB                     l1944:
  2151     06DB  3001               	movlw	1
  2152     06DC  00A4               	movwf	??___xxtofl
  2153     06DD  0824               	movf	??___xxtofl,w
  2154     06DE  07A9               	addwf	___xxtofl@exp,f
  2155     06DF  3001               	movlw	1
  2156     06E0                     u2585:
  2157     06E0  1003               	clrc
  2158     06E1  0CAD               	rrf	___xxtofl@arg+3,f
  2159     06E2  0CAC               	rrf	___xxtofl@arg+2,f
  2160     06E3  0CAB               	rrf	___xxtofl@arg+1,f
  2161     06E4  0CAA               	rrf	___xxtofl@arg,f
  2162     06E5  3EFF               	addlw	-1
  2163     06E6  1D03               	skipz
  2164     06E7  2EE0               	goto	u2585
  2165     06E8                     l1946:
  2166     06E8  30FE               	movlw	254
  2167     06E9  052D               	andwf	___xxtofl@arg+3,w
  2168     06EA  1D03               	btfss	3,2
  2169     06EB  2EED               	goto	u2591
  2170     06EC  2EEE               	goto	u2590
  2171     06ED                     u2591:
  2172     06ED  2EDB               	goto	l1944
  2173     06EE                     u2590:
  2174     06EE  2F0A               	goto	l707
  2175     06EF                     l1948:
  2176     06EF  3001               	movlw	1
  2177     06F0  00A4               	movwf	??___xxtofl
  2178     06F1  0824               	movf	??___xxtofl,w
  2179     06F2  07A9               	addwf	___xxtofl@exp,f
  2180     06F3                     l1950:
  2181     06F3  3001               	movlw	1
  2182     06F4  07AA               	addwf	___xxtofl@arg,f
  2183     06F5  3000               	movlw	0
  2184     06F6  1803               	skipnc
  2185     06F7  3001               	movlw	1
  2186     06F8  07AB               	addwf	___xxtofl@arg+1,f
  2187     06F9  3000               	movlw	0
  2188     06FA  1803               	skipnc
  2189     06FB  3001               	movlw	1
  2190     06FC  07AC               	addwf	___xxtofl@arg+2,f
  2191     06FD  3000               	movlw	0
  2192     06FE  1803               	skipnc
  2193     06FF  3001               	movlw	1
  2194     0700  07AD               	addwf	___xxtofl@arg+3,f
  2195     0701                     l1952:
  2196     0701  3001               	movlw	1
  2197     0702                     u2605:
  2198     0702  1003               	clrc
  2199     0703  0CAD               	rrf	___xxtofl@arg+3,f
  2200     0704  0CAC               	rrf	___xxtofl@arg+2,f
  2201     0705  0CAB               	rrf	___xxtofl@arg+1,f
  2202     0706  0CAA               	rrf	___xxtofl@arg,f
  2203     0707  3EFF               	addlw	-1
  2204     0708  1D03               	skipz
  2205     0709  2F02               	goto	u2605
  2206     070A                     l707:
  2207     070A  30FF               	movlw	255
  2208     070B  052D               	andwf	___xxtofl@arg+3,w
  2209     070C  1D03               	btfss	3,2
  2210     070D  2F0F               	goto	u2611
  2211     070E  2F10               	goto	u2610
  2212     070F                     u2611:
  2213     070F  2EEF               	goto	l1948
  2214     0710                     u2610:
  2215     0710  2F1C               	goto	l1956
  2216     0711                     l1954:
  2217     0711  3001               	movlw	1
  2218     0712  02A9               	subwf	___xxtofl@exp,f
  2219     0713  3001               	movlw	1
  2220     0714  00A4               	movwf	??___xxtofl
  2221     0715                     u2625:
  2222     0715  1003               	clrc
  2223     0716  0DAA               	rlf	___xxtofl@arg,f
  2224     0717  0DAB               	rlf	___xxtofl@arg+1,f
  2225     0718  0DAC               	rlf	___xxtofl@arg+2,f
  2226     0719  0DAD               	rlf	___xxtofl@arg+3,f
  2227     071A  0BA4               	decfsz	??___xxtofl,f
  2228     071B  2F15               	goto	u2625
  2229     071C                     l1956:
  2230     071C  1BAC               	btfsc	___xxtofl@arg+2,7
  2231     071D  2F1F               	goto	u2631
  2232     071E  2F20               	goto	u2630
  2233     071F                     u2631:
  2234     071F  2F26               	goto	l714
  2235     0720                     u2630:
  2236     0720                     l1958:
  2237     0720  3002               	movlw	2
  2238     0721  0229               	subwf	___xxtofl@exp,w
  2239     0722  1803               	skipnc
  2240     0723  2F25               	goto	u2641
  2241     0724  2F26               	goto	u2640
  2242     0725                     u2641:
  2243     0725  2F11               	goto	l1954
  2244     0726                     u2640:
  2245     0726                     l714:
  2246     0726  1829               	btfsc	___xxtofl@exp,0
  2247     0727  2F29               	goto	u2651
  2248     0728  2F2A               	goto	u2650
  2249     0729                     u2651:
  2250     0729  2F32               	goto	l715
  2251     072A                     u2650:
  2252     072A                     l1960:
  2253     072A  30FF               	movlw	255
  2254     072B  05AA               	andwf	___xxtofl@arg,f
  2255     072C  30FF               	movlw	255
  2256     072D  05AB               	andwf	___xxtofl@arg+1,f
  2257     072E  307F               	movlw	127
  2258     072F  05AC               	andwf	___xxtofl@arg+2,f
  2259     0730  30FF               	movlw	255
  2260     0731  05AD               	andwf	___xxtofl@arg+3,f
  2261     0732                     l715:
  2262     0732  1003               	clrc
  2263     0733  0CA9               	rrf	___xxtofl@exp,f
  2264     0734                     l1962:
  2265     0734  0829               	movf	___xxtofl@exp,w
  2266     0735  00A4               	movwf	??___xxtofl
  2267     0736  01A5               	clrf	??___xxtofl+1
  2268     0737  01A6               	clrf	??___xxtofl+2
  2269     0738  01A7               	clrf	??___xxtofl+3
  2270     0739  3018               	movlw	24
  2271     073A                     u2665:
  2272     073A  1003               	clrc
  2273     073B  0DA4               	rlf	??___xxtofl,f
  2274     073C  0DA5               	rlf	??___xxtofl+1,f
  2275     073D  0DA6               	rlf	??___xxtofl+2,f
  2276     073E  0DA7               	rlf	??___xxtofl+3,f
  2277     073F                     u2660:
  2278     073F  3EFF               	addlw	-1
  2279     0740  1D03               	skipz
  2280     0741  2F3A               	goto	u2665
  2281     0742  0824               	movf	??___xxtofl,w
  2282     0743  04AA               	iorwf	___xxtofl@arg,f
  2283     0744  0825               	movf	??___xxtofl+1,w
  2284     0745  04AB               	iorwf	___xxtofl@arg+1,f
  2285     0746  0826               	movf	??___xxtofl+2,w
  2286     0747  04AC               	iorwf	___xxtofl@arg+2,f
  2287     0748  0827               	movf	??___xxtofl+3,w
  2288     0749  04AD               	iorwf	___xxtofl@arg+3,f
  2289     074A                     l1964:
  2290     074A  0828               	movf	___xxtofl@sign,w
  2291     074B  1903               	btfsc	3,2
  2292     074C  2F4E               	goto	u2671
  2293     074D  2F4F               	goto	u2670
  2294     074E                     u2671:
  2295     074E  2F54               	goto	l1970
  2296     074F                     u2670:
  2297     074F                     l1966:
  2298     074F  1FA3               	btfss	___xxtofl@val+3,7
  2299     0750  2F52               	goto	u2681
  2300     0751  2F53               	goto	u2680
  2301     0752                     u2681:
  2302     0752  2F54               	goto	l1970
  2303     0753                     u2680:
  2304     0753                     l1968:
  2305     0753  17AD               	bsf	___xxtofl@arg+3,7
  2306     0754                     l1970:
  2307     0754  082D               	movf	___xxtofl@arg+3,w
  2308     0755  00A3               	movwf	?___xxtofl+3
  2309     0756  082C               	movf	___xxtofl@arg+2,w
  2310     0757  00A2               	movwf	?___xxtofl+2
  2311     0758  082B               	movf	___xxtofl@arg+1,w
  2312     0759  00A1               	movwf	?___xxtofl+1
  2313     075A  082A               	movf	___xxtofl@arg,w
  2314     075B  00A0               	movwf	?___xxtofl
  2315     075C                     l703:
  2316     075C  0008               	return
  2317     075D                     __end_of___xxtofl:
  2318                           
  2319                           	psect	text10
  2320     0F88                     __ptext10:	
  2321 ;; *************** function ___fltol *****************
  2322 ;; Defined at:
  2323 ;;		line 43 in file "C:\Program Files\Microchip\xc8\v2.40\pic\sources\c90\common\fltol.c"
  2324 ;; Parameters:    Size  Location     Type
  2325 ;;  f1              4   60[BANK0 ] unsigned char 
  2326 ;; Auto vars:     Size  Location     Type
  2327 ;;  exp1            1   69[BANK0 ] unsigned char 
  2328 ;;  sign1           1   68[BANK0 ] unsigned char 
  2329 ;; Return value:  Size  Location     Type
  2330 ;;                  4   60[BANK0 ] long 
  2331 ;; Registers used:
  2332 ;;		wreg, status,2, status,0
  2333 ;; Tracked objects:
  2334 ;;		On entry : 0/0
  2335 ;;		On exit  : 0/0
  2336 ;;		Unchanged: 0/0
  2337 ;; Data sizes:     COMMON   BANK0   BANK1   BANK3   BANK2
  2338 ;;      Params:         0       4       0       0       0
  2339 ;;      Locals:         0       2       0       0       0
  2340 ;;      Temps:          0       4       0       0       0
  2341 ;;      Totals:         0      10       0       0       0
  2342 ;;Total ram usage:       10 bytes
  2343 ;; Hardware stack levels used: 1
  2344 ;; Hardware stack levels required when called: 2
  2345 ;; This function calls:
  2346 ;;		Nothing
  2347 ;; This function is called by:
  2348 ;;		_mapeo
  2349 ;; This function uses a non-reentrant model
  2350 ;;
  2351                           
  2352     0F88                     ___fltol:	
  2353                           ;psect for function ___fltol
  2354                           
  2355     0F88                     l1560:	
  2356                           ;incstack = 0
  2357                           ; Regs used in ___fltol: [wreg+status,2+status,0]
  2358                           
  2359     0F88  1003               	clrc
  2360     0F89  1283               	bcf	3,5	;RP0=0, select bank0
  2361     0F8A  1303               	bcf	3,6	;RP1=0, select bank0
  2362     0F8B  0D5E               	rlf	___fltol@f1+2,w
  2363     0F8C  0D5F               	rlf	___fltol@f1+3,w
  2364     0F8D  00E5               	movwf	___fltol@exp1
  2365     0F8E  0865               	movf	___fltol@exp1,w
  2366     0F8F  1D03               	btfss	3,2
  2367     0F90  2F92               	goto	u1621
  2368     0F91  2F93               	goto	u1620
  2369     0F92                     u1621:
  2370     0F92  2F9C               	goto	l1566
  2371     0F93                     u1620:
  2372     0F93                     l1562:
  2373     0F93  3000               	movlw	0
  2374     0F94  00DF               	movwf	?___fltol+3
  2375     0F95  3000               	movlw	0
  2376     0F96  00DE               	movwf	?___fltol+2
  2377     0F97  3000               	movlw	0
  2378     0F98  00DD               	movwf	?___fltol+1
  2379     0F99  3000               	movlw	0
  2380     0F9A  00DC               	movwf	?___fltol
  2381     0F9B  2FFF               	goto	l454
  2382     0F9C                     l1566:
  2383     0F9C  085C               	movf	___fltol@f1,w
  2384     0F9D  00E0               	movwf	??___fltol
  2385     0F9E  085D               	movf	___fltol@f1+1,w
  2386     0F9F  00E1               	movwf	??___fltol+1
  2387     0FA0  085E               	movf	___fltol@f1+2,w
  2388     0FA1  00E2               	movwf	??___fltol+2
  2389     0FA2  085F               	movf	___fltol@f1+3,w
  2390     0FA3  00E3               	movwf	??___fltol+3
  2391     0FA4  301F               	movlw	31
  2392     0FA5                     u1635:
  2393     0FA5  1003               	clrc
  2394     0FA6  0CE3               	rrf	??___fltol+3,f
  2395     0FA7  0CE2               	rrf	??___fltol+2,f
  2396     0FA8  0CE1               	rrf	??___fltol+1,f
  2397     0FA9  0CE0               	rrf	??___fltol,f
  2398     0FAA                     u1630:
  2399     0FAA  3EFF               	addlw	-1
  2400     0FAB  1D03               	skipz
  2401     0FAC  2FA5               	goto	u1635
  2402     0FAD  0860               	movf	??___fltol,w
  2403     0FAE  00E4               	movwf	___fltol@sign1
  2404     0FAF                     l1568:
  2405     0FAF  17DE               	bsf	___fltol@f1+2,7
  2406     0FB0                     l1570:
  2407     0FB0  30FF               	movlw	255
  2408     0FB1  05DC               	andwf	___fltol@f1,f
  2409     0FB2  30FF               	movlw	255
  2410     0FB3  05DD               	andwf	___fltol@f1+1,f
  2411     0FB4  30FF               	movlw	255
  2412     0FB5  05DE               	andwf	___fltol@f1+2,f
  2413     0FB6  3000               	movlw	0
  2414     0FB7  05DF               	andwf	___fltol@f1+3,f
  2415     0FB8                     l1572:
  2416     0FB8  3096               	movlw	150
  2417     0FB9  02E5               	subwf	___fltol@exp1,f
  2418     0FBA                     l1574:
  2419     0FBA  1FE5               	btfss	___fltol@exp1,7
  2420     0FBB  2FBD               	goto	u1641
  2421     0FBC  2FBE               	goto	u1640
  2422     0FBD                     u1641:
  2423     0FBD  2FD8               	goto	l1584
  2424     0FBE                     u1640:
  2425     0FBE                     l1576:
  2426     0FBE  0865               	movf	___fltol@exp1,w
  2427     0FBF  3A80               	xorlw	128
  2428     0FC0  3E97               	addlw	151
  2429     0FC1  1803               	skipnc
  2430     0FC2  2FC4               	goto	u1651
  2431     0FC3  2FC5               	goto	u1650
  2432     0FC4                     u1651:
  2433     0FC4  2FC6               	goto	l1582
  2434     0FC5                     u1650:
  2435     0FC5  2F93               	goto	l1562
  2436     0FC6                     l1582:
  2437     0FC6  3001               	movlw	1
  2438     0FC7                     u1665:
  2439     0FC7  1003               	clrc
  2440     0FC8  0CDF               	rrf	___fltol@f1+3,f
  2441     0FC9  0CDE               	rrf	___fltol@f1+2,f
  2442     0FCA  0CDD               	rrf	___fltol@f1+1,f
  2443     0FCB  0CDC               	rrf	___fltol@f1,f
  2444     0FCC  3EFF               	addlw	-1
  2445     0FCD  1D03               	skipz
  2446     0FCE  2FC7               	goto	u1665
  2447     0FCF  3001               	movlw	1
  2448     0FD0  00E0               	movwf	??___fltol
  2449     0FD1  0860               	movf	??___fltol,w
  2450     0FD2  07E5               	addwf	___fltol@exp1,f
  2451     0FD3  1D03               	btfss	3,2
  2452     0FD4  2FD6               	goto	u1671
  2453     0FD5  2FD7               	goto	u1670
  2454     0FD6                     u1671:
  2455     0FD6  2FC6               	goto	l1582
  2456     0FD7                     u1670:
  2457     0FD7  2FEF               	goto	l1592
  2458     0FD8                     l1584:
  2459     0FD8  3020               	movlw	32
  2460     0FD9  0265               	subwf	___fltol@exp1,w
  2461     0FDA  1C03               	skipc
  2462     0FDB  2FDD               	goto	u1681
  2463     0FDC  2FDE               	goto	u1680
  2464     0FDD                     u1681:
  2465     0FDD  2FEA               	goto	l461
  2466     0FDE                     u1680:
  2467     0FDE  2F93               	goto	l1562
  2468     0FDF                     l1590:
  2469     0FDF  3001               	movlw	1
  2470     0FE0  00E0               	movwf	??___fltol
  2471     0FE1                     u1695:
  2472     0FE1  1003               	clrc
  2473     0FE2  0DDC               	rlf	___fltol@f1,f
  2474     0FE3  0DDD               	rlf	___fltol@f1+1,f
  2475     0FE4  0DDE               	rlf	___fltol@f1+2,f
  2476     0FE5  0DDF               	rlf	___fltol@f1+3,f
  2477     0FE6  0BE0               	decfsz	??___fltol,f
  2478     0FE7  2FE1               	goto	u1695
  2479     0FE8  3001               	movlw	1
  2480     0FE9  02E5               	subwf	___fltol@exp1,f
  2481     0FEA                     l461:
  2482     0FEA  0865               	movf	___fltol@exp1,w
  2483     0FEB  1D03               	btfss	3,2
  2484     0FEC  2FEE               	goto	u1701
  2485     0FED  2FEF               	goto	u1700
  2486     0FEE                     u1701:
  2487     0FEE  2FDF               	goto	l1590
  2488     0FEF                     u1700:
  2489     0FEF                     l1592:
  2490     0FEF  0864               	movf	___fltol@sign1,w
  2491     0FF0  1903               	btfsc	3,2
  2492     0FF1  2FF3               	goto	u1711
  2493     0FF2  2FF4               	goto	u1710
  2494     0FF3                     u1711:
  2495     0FF3  2FFF               	goto	l464
  2496     0FF4                     u1710:
  2497     0FF4                     l1594:
  2498     0FF4  09DC               	comf	___fltol@f1,f
  2499     0FF5  09DD               	comf	___fltol@f1+1,f
  2500     0FF6  09DE               	comf	___fltol@f1+2,f
  2501     0FF7  09DF               	comf	___fltol@f1+3,f
  2502     0FF8  0ADC               	incf	___fltol@f1,f
  2503     0FF9  1903               	skipnz
  2504     0FFA  0ADD               	incf	___fltol@f1+1,f
  2505     0FFB  1903               	skipnz
  2506     0FFC  0ADE               	incf	___fltol@f1+2,f
  2507     0FFD  1903               	skipnz
  2508     0FFE  0ADF               	incf	___fltol@f1+3,f
  2509     0FFF                     l464:
  2510     0FFF                     l454:
  2511     0FFF  0008               	return
  2512     1000                     __end_of___fltol:
  2513                           
  2514                           	psect	text11
  2515     0025                     __ptext11:	
  2516 ;; *************** function ___flmul *****************
  2517 ;; Defined at:
  2518 ;;		line 8 in file "C:\Program Files\Microchip\xc8\v2.40\pic\sources\c90\common\sprcmul.c"
  2519 ;; Parameters:    Size  Location     Type
  2520 ;;  b               4   14[BANK0 ] long 
  2521 ;;  a               4   18[BANK0 ] long 
  2522 ;; Auto vars:     Size  Location     Type
  2523 ;;  prod            4   34[BANK0 ] struct .
  2524 ;;  grs             4   29[BANK0 ] unsigned long 
  2525 ;;  temp            2   38[BANK0 ] struct .
  2526 ;;  bexp            1   33[BANK0 ] unsigned char 
  2527 ;;  aexp            1   28[BANK0 ] unsigned char 
  2528 ;;  sign            1   27[BANK0 ] unsigned char 
  2529 ;; Return value:  Size  Location     Type
  2530 ;;                  4   14[BANK0 ] unsigned char 
  2531 ;; Registers used:
  2532 ;;		wreg, status,2, status,0, btemp+1, pclath, cstack
  2533 ;; Tracked objects:
  2534 ;;		On entry : 0/0
  2535 ;;		On exit  : 0/0
  2536 ;;		Unchanged: 0/0
  2537 ;; Data sizes:     COMMON   BANK0   BANK1   BANK3   BANK2
  2538 ;;      Params:         0       8       0       0       0
  2539 ;;      Locals:         0      13       0       0       0
  2540 ;;      Temps:          0       5       0       0       0
  2541 ;;      Totals:         0      26       0       0       0
  2542 ;;Total ram usage:       26 bytes
  2543 ;; Hardware stack levels used: 1
  2544 ;; Hardware stack levels required when called: 3
  2545 ;; This function calls:
  2546 ;;		__Umul8_16
  2547 ;; This function is called by:
  2548 ;;		_mapeo
  2549 ;; This function uses a non-reentrant model
  2550 ;;
  2551                           
  2552     0025                     ___flmul:	
  2553                           ;psect for function ___flmul
  2554                           
  2555     0025                     l2140:	
  2556                           ;incstack = 0
  2557                           ; Regs used in ___flmul: [wreg+status,2+status,0+btemp+1+pclath+cstack]
  2558                           
  2559     0025  1283               	bcf	3,5	;RP0=0, select bank0
  2560     0026  1303               	bcf	3,6	;RP1=0, select bank0
  2561     0027  0831               	movf	___flmul@b+3,w
  2562     0028  3980               	andlw	128
  2563     0029  00BB               	movwf	___flmul@sign
  2564     002A                     l2142:
  2565     002A  0831               	movf	___flmul@b+3,w
  2566     002B  00B6               	movwf	??___flmul
  2567     002C  0736               	addwf	??___flmul,w
  2568     002D  00C1               	movwf	___flmul@bexp
  2569     002E                     l2144:
  2570     002E  1FB0               	btfss	___flmul@b+2,7
  2571     002F  2831               	goto	u2911
  2572     0030  2832               	goto	u2910
  2573     0031                     u2911:
  2574     0031  2833               	goto	l2148
  2575     0032                     u2910:
  2576     0032                     l2146:
  2577     0032  1441               	bsf	___flmul@bexp,0
  2578     0033                     l2148:
  2579     0033  0841               	movf	___flmul@bexp,w
  2580     0034  1903               	btfsc	3,2
  2581     0035  2837               	goto	u2921
  2582     0036  2838               	goto	u2920
  2583     0037                     u2921:
  2584     0037  2847               	goto	l2156
  2585     0038                     u2920:
  2586     0038                     l2150:
  2587     0038  0A41               	incf	___flmul@bexp,w
  2588     0039  1D03               	btfss	3,2
  2589     003A  283C               	goto	u2931
  2590     003B  283D               	goto	u2930
  2591     003C                     u2931:
  2592     003C  2845               	goto	l2154
  2593     003D                     u2930:
  2594     003D                     l2152:
  2595     003D  3000               	movlw	0
  2596     003E  00B1               	movwf	___flmul@b+3
  2597     003F  3000               	movlw	0
  2598     0040  00B0               	movwf	___flmul@b+2
  2599     0041  3000               	movlw	0
  2600     0042  00AF               	movwf	___flmul@b+1
  2601     0043  3000               	movlw	0
  2602     0044  00AE               	movwf	___flmul@b
  2603     0045                     l2154:
  2604     0045  17B0               	bsf	___flmul@b+2,7
  2605     0046  284F               	goto	l2158
  2606     0047                     l2156:
  2607     0047  3000               	movlw	0
  2608     0048  00B1               	movwf	___flmul@b+3
  2609     0049  3000               	movlw	0
  2610     004A  00B0               	movwf	___flmul@b+2
  2611     004B  3000               	movlw	0
  2612     004C  00AF               	movwf	___flmul@b+1
  2613     004D  3000               	movlw	0
  2614     004E  00AE               	movwf	___flmul@b
  2615     004F                     l2158:
  2616     004F  0835               	movf	___flmul@a+3,w
  2617     0050  3980               	andlw	128
  2618     0051  00B6               	movwf	??___flmul
  2619     0052  0836               	movf	??___flmul,w
  2620     0053  06BB               	xorwf	___flmul@sign,f
  2621     0054                     l2160:
  2622     0054  0835               	movf	___flmul@a+3,w
  2623     0055  00B6               	movwf	??___flmul
  2624     0056  0736               	addwf	??___flmul,w
  2625     0057  00BC               	movwf	___flmul@aexp
  2626     0058                     l2162:
  2627     0058  1FB4               	btfss	___flmul@a+2,7
  2628     0059  285B               	goto	u2941
  2629     005A  285C               	goto	u2940
  2630     005B                     u2941:
  2631     005B  285D               	goto	l2166
  2632     005C                     u2940:
  2633     005C                     l2164:
  2634     005C  143C               	bsf	___flmul@aexp,0
  2635     005D                     l2166:
  2636     005D  083C               	movf	___flmul@aexp,w
  2637     005E  1903               	btfsc	3,2
  2638     005F  2861               	goto	u2951
  2639     0060  2862               	goto	u2950
  2640     0061                     u2951:
  2641     0061  2871               	goto	l2174
  2642     0062                     u2950:
  2643     0062                     l2168:
  2644     0062  0A3C               	incf	___flmul@aexp,w
  2645     0063  1D03               	btfss	3,2
  2646     0064  2866               	goto	u2961
  2647     0065  2867               	goto	u2960
  2648     0066                     u2961:
  2649     0066  286F               	goto	l2172
  2650     0067                     u2960:
  2651     0067                     l2170:
  2652     0067  3000               	movlw	0
  2653     0068  00B5               	movwf	___flmul@a+3
  2654     0069  3000               	movlw	0
  2655     006A  00B4               	movwf	___flmul@a+2
  2656     006B  3000               	movlw	0
  2657     006C  00B3               	movwf	___flmul@a+1
  2658     006D  3000               	movlw	0
  2659     006E  00B2               	movwf	___flmul@a
  2660     006F                     l2172:
  2661     006F  17B4               	bsf	___flmul@a+2,7
  2662     0070  2879               	goto	l2176
  2663     0071                     l2174:
  2664     0071  3000               	movlw	0
  2665     0072  00B5               	movwf	___flmul@a+3
  2666     0073  3000               	movlw	0
  2667     0074  00B4               	movwf	___flmul@a+2
  2668     0075  3000               	movlw	0
  2669     0076  00B3               	movwf	___flmul@a+1
  2670     0077  3000               	movlw	0
  2671     0078  00B2               	movwf	___flmul@a
  2672     0079                     l2176:
  2673     0079  083C               	movf	___flmul@aexp,w
  2674     007A  1903               	btfsc	3,2
  2675     007B  287D               	goto	u2971
  2676     007C  287E               	goto	u2970
  2677     007D                     u2971:
  2678     007D  2883               	goto	l2180
  2679     007E                     u2970:
  2680     007E                     l2178:
  2681     007E  0841               	movf	___flmul@bexp,w
  2682     007F  1D03               	btfss	3,2
  2683     0080  2882               	goto	u2981
  2684     0081  2883               	goto	u2980
  2685     0082                     u2981:
  2686     0082  288C               	goto	l2184
  2687     0083                     u2980:
  2688     0083                     l2180:
  2689     0083  3000               	movlw	0
  2690     0084  00B1               	movwf	?___flmul+3
  2691     0085  3000               	movlw	0
  2692     0086  00B0               	movwf	?___flmul+2
  2693     0087  3000               	movlw	0
  2694     0088  00AF               	movwf	?___flmul+1
  2695     0089  3000               	movlw	0
  2696     008A  00AE               	movwf	?___flmul
  2697     008B  2B69               	goto	l657
  2698     008C                     l2184:
  2699     008C  082E               	movf	___flmul@b,w
  2700     008D  00A0               	movwf	__Umul8_16@multiplicand
  2701     008E  0834               	movf	___flmul@a+2,w
  2702     008F  120A  158A  25A0  120A  118A  	fcall	__Umul8_16
  2703     0094  1283               	bcf	3,5	;RP0=0, select bank0
  2704     0095  1303               	bcf	3,6	;RP1=0, select bank0
  2705     0096  0821               	movf	?__Umul8_16+1,w
  2706     0097  00C7               	movwf	___flmul@temp+1
  2707     0098  0820               	movf	?__Umul8_16,w
  2708     0099  00C6               	movwf	___flmul@temp
  2709     009A                     l2186:
  2710     009A  0846               	movf	___flmul@temp,w
  2711     009B  00B6               	movwf	??___flmul
  2712     009C  01B7               	clrf	??___flmul+1
  2713     009D  01B8               	clrf	??___flmul+2
  2714     009E  01B9               	clrf	??___flmul+3
  2715     009F  0839               	movf	??___flmul+3,w
  2716     00A0  00C0               	movwf	___flmul@grs+3
  2717     00A1  0838               	movf	??___flmul+2,w
  2718     00A2  00BF               	movwf	___flmul@grs+2
  2719     00A3  0837               	movf	??___flmul+1,w
  2720     00A4  00BE               	movwf	___flmul@grs+1
  2721     00A5  0836               	movf	??___flmul,w
  2722     00A6  00BD               	movwf	___flmul@grs
  2723     00A7                     l2188:
  2724     00A7  0847               	movf	___flmul@temp+1,w
  2725     00A8  00B6               	movwf	??___flmul
  2726     00A9  01B7               	clrf	??___flmul+1
  2727     00AA  01B8               	clrf	??___flmul+2
  2728     00AB  01B9               	clrf	??___flmul+3
  2729     00AC  0839               	movf	??___flmul+3,w
  2730     00AD  00C5               	movwf	___flmul@prod+3
  2731     00AE  0838               	movf	??___flmul+2,w
  2732     00AF  00C4               	movwf	___flmul@prod+2
  2733     00B0  0837               	movf	??___flmul+1,w
  2734     00B1  00C3               	movwf	___flmul@prod+1
  2735     00B2  0836               	movf	??___flmul,w
  2736     00B3  00C2               	movwf	___flmul@prod
  2737     00B4  082F               	movf	___flmul@b+1,w
  2738     00B5  00A0               	movwf	__Umul8_16@multiplicand
  2739     00B6  0833               	movf	___flmul@a+1,w
  2740     00B7  120A  158A  25A0  120A  118A  	fcall	__Umul8_16
  2741     00BC  1283               	bcf	3,5	;RP0=0, select bank0
  2742     00BD  1303               	bcf	3,6	;RP1=0, select bank0
  2743     00BE  0821               	movf	?__Umul8_16+1,w
  2744     00BF  00C7               	movwf	___flmul@temp+1
  2745     00C0  0820               	movf	?__Umul8_16,w
  2746     00C1  00C6               	movwf	___flmul@temp
  2747     00C2                     l2190:
  2748     00C2  0846               	movf	___flmul@temp,w
  2749     00C3  00B6               	movwf	??___flmul
  2750     00C4  01B7               	clrf	??___flmul+1
  2751     00C5  01B8               	clrf	??___flmul+2
  2752     00C6  01B9               	clrf	??___flmul+3
  2753     00C7  0836               	movf	??___flmul,w
  2754     00C8  07BD               	addwf	___flmul@grs,f
  2755     00C9  0837               	movf	??___flmul+1,w
  2756     00CA  1103               	clrz
  2757     00CB  1803               	skipnc
  2758     00CC  3E01               	addlw	1
  2759     00CD  1903               	skipnz
  2760     00CE  28D0               	goto	u2991
  2761     00CF  07BE               	addwf	___flmul@grs+1,f
  2762     00D0                     u2991:
  2763     00D0  0838               	movf	??___flmul+2,w
  2764     00D1  1103               	clrz
  2765     00D2  1803               	skipnc
  2766     00D3  3E01               	addlw	1
  2767     00D4  1903               	skipnz
  2768     00D5  28D7               	goto	u2992
  2769     00D6  07BF               	addwf	___flmul@grs+2,f
  2770     00D7                     u2992:
  2771     00D7  0839               	movf	??___flmul+3,w
  2772     00D8  1103               	clrz
  2773     00D9  1803               	skipnc
  2774     00DA  3E01               	addlw	1
  2775     00DB  1903               	skipnz
  2776     00DC  28DE               	goto	u2993
  2777     00DD  07C0               	addwf	___flmul@grs+3,f
  2778     00DE                     u2993:
  2779     00DE                     l2192:
  2780     00DE  0847               	movf	___flmul@temp+1,w
  2781     00DF  00B6               	movwf	??___flmul
  2782     00E0  01B7               	clrf	??___flmul+1
  2783     00E1  01B8               	clrf	??___flmul+2
  2784     00E2  01B9               	clrf	??___flmul+3
  2785     00E3  0836               	movf	??___flmul,w
  2786     00E4  07C2               	addwf	___flmul@prod,f
  2787     00E5  0837               	movf	??___flmul+1,w
  2788     00E6  1103               	clrz
  2789     00E7  1803               	skipnc
  2790     00E8  3E01               	addlw	1
  2791     00E9  1903               	skipnz
  2792     00EA  28EC               	goto	u3001
  2793     00EB  07C3               	addwf	___flmul@prod+1,f
  2794     00EC                     u3001:
  2795     00EC  0838               	movf	??___flmul+2,w
  2796     00ED  1103               	clrz
  2797     00EE  1803               	skipnc
  2798     00EF  3E01               	addlw	1
  2799     00F0  1903               	skipnz
  2800     00F1  28F3               	goto	u3002
  2801     00F2  07C4               	addwf	___flmul@prod+2,f
  2802     00F3                     u3002:
  2803     00F3  0839               	movf	??___flmul+3,w
  2804     00F4  1103               	clrz
  2805     00F5  1803               	skipnc
  2806     00F6  3E01               	addlw	1
  2807     00F7  1903               	skipnz
  2808     00F8  28FA               	goto	u3003
  2809     00F9  07C5               	addwf	___flmul@prod+3,f
  2810     00FA                     u3003:
  2811     00FA  0830               	movf	___flmul@b+2,w
  2812     00FB  00A0               	movwf	__Umul8_16@multiplicand
  2813     00FC  0832               	movf	___flmul@a,w
  2814     00FD  120A  158A  25A0  120A  118A  	fcall	__Umul8_16
  2815     0102  1283               	bcf	3,5	;RP0=0, select bank0
  2816     0103  1303               	bcf	3,6	;RP1=0, select bank0
  2817     0104  0821               	movf	?__Umul8_16+1,w
  2818     0105  00C7               	movwf	___flmul@temp+1
  2819     0106  0820               	movf	?__Umul8_16,w
  2820     0107  00C6               	movwf	___flmul@temp
  2821     0108                     l2194:
  2822     0108  0846               	movf	___flmul@temp,w
  2823     0109  00B6               	movwf	??___flmul
  2824     010A  01B7               	clrf	??___flmul+1
  2825     010B  01B8               	clrf	??___flmul+2
  2826     010C  01B9               	clrf	??___flmul+3
  2827     010D  0836               	movf	??___flmul,w
  2828     010E  07BD               	addwf	___flmul@grs,f
  2829     010F  0837               	movf	??___flmul+1,w
  2830     0110  1103               	clrz
  2831     0111  1803               	skipnc
  2832     0112  3E01               	addlw	1
  2833     0113  1903               	skipnz
  2834     0114  2916               	goto	u3011
  2835     0115  07BE               	addwf	___flmul@grs+1,f
  2836     0116                     u3011:
  2837     0116  0838               	movf	??___flmul+2,w
  2838     0117  1103               	clrz
  2839     0118  1803               	skipnc
  2840     0119  3E01               	addlw	1
  2841     011A  1903               	skipnz
  2842     011B  291D               	goto	u3012
  2843     011C  07BF               	addwf	___flmul@grs+2,f
  2844     011D                     u3012:
  2845     011D  0839               	movf	??___flmul+3,w
  2846     011E  1103               	clrz
  2847     011F  1803               	skipnc
  2848     0120  3E01               	addlw	1
  2849     0121  1903               	skipnz
  2850     0122  2924               	goto	u3013
  2851     0123  07C0               	addwf	___flmul@grs+3,f
  2852     0124                     u3013:
  2853     0124                     l2196:
  2854     0124  0847               	movf	___flmul@temp+1,w
  2855     0125  00B6               	movwf	??___flmul
  2856     0126  01B7               	clrf	??___flmul+1
  2857     0127  01B8               	clrf	??___flmul+2
  2858     0128  01B9               	clrf	??___flmul+3
  2859     0129  0836               	movf	??___flmul,w
  2860     012A  07C2               	addwf	___flmul@prod,f
  2861     012B  0837               	movf	??___flmul+1,w
  2862     012C  1103               	clrz
  2863     012D  1803               	skipnc
  2864     012E  3E01               	addlw	1
  2865     012F  1903               	skipnz
  2866     0130  2932               	goto	u3021
  2867     0131  07C3               	addwf	___flmul@prod+1,f
  2868     0132                     u3021:
  2869     0132  0838               	movf	??___flmul+2,w
  2870     0133  1103               	clrz
  2871     0134  1803               	skipnc
  2872     0135  3E01               	addlw	1
  2873     0136  1903               	skipnz
  2874     0137  2939               	goto	u3022
  2875     0138  07C4               	addwf	___flmul@prod+2,f
  2876     0139                     u3022:
  2877     0139  0839               	movf	??___flmul+3,w
  2878     013A  1103               	clrz
  2879     013B  1803               	skipnc
  2880     013C  3E01               	addlw	1
  2881     013D  1903               	skipnz
  2882     013E  2940               	goto	u3023
  2883     013F  07C5               	addwf	___flmul@prod+3,f
  2884     0140                     u3023:
  2885     0140                     l2198:
  2886     0140  3008               	movlw	8
  2887     0141  00B6               	movwf	??___flmul
  2888     0142                     u3035:
  2889     0142  1003               	clrc
  2890     0143  0DBD               	rlf	___flmul@grs,f
  2891     0144  0DBE               	rlf	___flmul@grs+1,f
  2892     0145  0DBF               	rlf	___flmul@grs+2,f
  2893     0146  0DC0               	rlf	___flmul@grs+3,f
  2894     0147  0BB6               	decfsz	??___flmul,f
  2895     0148  2942               	goto	u3035
  2896     0149                     l2200:
  2897     0149  082F               	movf	___flmul@b+1,w
  2898     014A  00A0               	movwf	__Umul8_16@multiplicand
  2899     014B  0832               	movf	___flmul@a,w
  2900     014C  120A  158A  25A0  120A  118A  	fcall	__Umul8_16
  2901     0151  1283               	bcf	3,5	;RP0=0, select bank0
  2902     0152  1303               	bcf	3,6	;RP1=0, select bank0
  2903     0153  0821               	movf	?__Umul8_16+1,w
  2904     0154  00C7               	movwf	___flmul@temp+1
  2905     0155  0820               	movf	?__Umul8_16,w
  2906     0156  00C6               	movwf	___flmul@temp
  2907     0157                     l2202:
  2908     0157  0846               	movf	___flmul@temp,w
  2909     0158  00B6               	movwf	??___flmul
  2910     0159  0847               	movf	___flmul@temp+1,w
  2911     015A  00B7               	movwf	??___flmul+1
  2912     015B  01B8               	clrf	??___flmul+2
  2913     015C  01B9               	clrf	??___flmul+3
  2914     015D  0836               	movf	??___flmul,w
  2915     015E  07BD               	addwf	___flmul@grs,f
  2916     015F  0837               	movf	??___flmul+1,w
  2917     0160  1103               	clrz
  2918     0161  1803               	skipnc
  2919     0162  3E01               	addlw	1
  2920     0163  1903               	skipnz
  2921     0164  2966               	goto	u3041
  2922     0165  07BE               	addwf	___flmul@grs+1,f
  2923     0166                     u3041:
  2924     0166  0838               	movf	??___flmul+2,w
  2925     0167  1103               	clrz
  2926     0168  1803               	skipnc
  2927     0169  3E01               	addlw	1
  2928     016A  1903               	skipnz
  2929     016B  296D               	goto	u3042
  2930     016C  07BF               	addwf	___flmul@grs+2,f
  2931     016D                     u3042:
  2932     016D  0839               	movf	??___flmul+3,w
  2933     016E  1103               	clrz
  2934     016F  1803               	skipnc
  2935     0170  3E01               	addlw	1
  2936     0171  1903               	skipnz
  2937     0172  2974               	goto	u3043
  2938     0173  07C0               	addwf	___flmul@grs+3,f
  2939     0174                     u3043:
  2940     0174                     l2204:
  2941     0174  082E               	movf	___flmul@b,w
  2942     0175  00A0               	movwf	__Umul8_16@multiplicand
  2943     0176  0833               	movf	___flmul@a+1,w
  2944     0177  120A  158A  25A0  120A  118A  	fcall	__Umul8_16
  2945     017C  1283               	bcf	3,5	;RP0=0, select bank0
  2946     017D  1303               	bcf	3,6	;RP1=0, select bank0
  2947     017E  0821               	movf	?__Umul8_16+1,w
  2948     017F  00C7               	movwf	___flmul@temp+1
  2949     0180  0820               	movf	?__Umul8_16,w
  2950     0181  00C6               	movwf	___flmul@temp
  2951     0182                     l2206:
  2952     0182  0846               	movf	___flmul@temp,w
  2953     0183  00B6               	movwf	??___flmul
  2954     0184  0847               	movf	___flmul@temp+1,w
  2955     0185  00B7               	movwf	??___flmul+1
  2956     0186  01B8               	clrf	??___flmul+2
  2957     0187  01B9               	clrf	??___flmul+3
  2958     0188  0836               	movf	??___flmul,w
  2959     0189  07BD               	addwf	___flmul@grs,f
  2960     018A  0837               	movf	??___flmul+1,w
  2961     018B  1103               	clrz
  2962     018C  1803               	skipnc
  2963     018D  3E01               	addlw	1
  2964     018E  1903               	skipnz
  2965     018F  2991               	goto	u3051
  2966     0190  07BE               	addwf	___flmul@grs+1,f
  2967     0191                     u3051:
  2968     0191  0838               	movf	??___flmul+2,w
  2969     0192  1103               	clrz
  2970     0193  1803               	skipnc
  2971     0194  3E01               	addlw	1
  2972     0195  1903               	skipnz
  2973     0196  2998               	goto	u3052
  2974     0197  07BF               	addwf	___flmul@grs+2,f
  2975     0198                     u3052:
  2976     0198  0839               	movf	??___flmul+3,w
  2977     0199  1103               	clrz
  2978     019A  1803               	skipnc
  2979     019B  3E01               	addlw	1
  2980     019C  1903               	skipnz
  2981     019D  299F               	goto	u3053
  2982     019E  07C0               	addwf	___flmul@grs+3,f
  2983     019F                     u3053:
  2984     019F                     l2208:
  2985     019F  3008               	movlw	8
  2986     01A0  00B6               	movwf	??___flmul
  2987     01A1                     u3065:
  2988     01A1  1003               	clrc
  2989     01A2  0DBD               	rlf	___flmul@grs,f
  2990     01A3  0DBE               	rlf	___flmul@grs+1,f
  2991     01A4  0DBF               	rlf	___flmul@grs+2,f
  2992     01A5  0DC0               	rlf	___flmul@grs+3,f
  2993     01A6  0BB6               	decfsz	??___flmul,f
  2994     01A7  29A1               	goto	u3065
  2995     01A8  082E               	movf	___flmul@b,w
  2996     01A9  00A0               	movwf	__Umul8_16@multiplicand
  2997     01AA  0832               	movf	___flmul@a,w
  2998     01AB  120A  158A  25A0  120A  118A  	fcall	__Umul8_16
  2999     01B0  1283               	bcf	3,5	;RP0=0, select bank0
  3000     01B1  1303               	bcf	3,6	;RP1=0, select bank0
  3001     01B2  0821               	movf	?__Umul8_16+1,w
  3002     01B3  00C7               	movwf	___flmul@temp+1
  3003     01B4  0820               	movf	?__Umul8_16,w
  3004     01B5  00C6               	movwf	___flmul@temp
  3005     01B6                     l2210:
  3006     01B6  0846               	movf	___flmul@temp,w
  3007     01B7  00B6               	movwf	??___flmul
  3008     01B8  0847               	movf	___flmul@temp+1,w
  3009     01B9  00B7               	movwf	??___flmul+1
  3010     01BA  01B8               	clrf	??___flmul+2
  3011     01BB  01B9               	clrf	??___flmul+3
  3012     01BC  0836               	movf	??___flmul,w
  3013     01BD  07BD               	addwf	___flmul@grs,f
  3014     01BE  0837               	movf	??___flmul+1,w
  3015     01BF  1103               	clrz
  3016     01C0  1803               	skipnc
  3017     01C1  3E01               	addlw	1
  3018     01C2  1903               	skipnz
  3019     01C3  29C5               	goto	u3071
  3020     01C4  07BE               	addwf	___flmul@grs+1,f
  3021     01C5                     u3071:
  3022     01C5  0838               	movf	??___flmul+2,w
  3023     01C6  1103               	clrz
  3024     01C7  1803               	skipnc
  3025     01C8  3E01               	addlw	1
  3026     01C9  1903               	skipnz
  3027     01CA  29CC               	goto	u3072
  3028     01CB  07BF               	addwf	___flmul@grs+2,f
  3029     01CC                     u3072:
  3030     01CC  0839               	movf	??___flmul+3,w
  3031     01CD  1103               	clrz
  3032     01CE  1803               	skipnc
  3033     01CF  3E01               	addlw	1
  3034     01D0  1903               	skipnz
  3035     01D1  29D3               	goto	u3073
  3036     01D2  07C0               	addwf	___flmul@grs+3,f
  3037     01D3                     u3073:
  3038     01D3                     l2212:
  3039     01D3  082F               	movf	___flmul@b+1,w
  3040     01D4  00A0               	movwf	__Umul8_16@multiplicand
  3041     01D5  0834               	movf	___flmul@a+2,w
  3042     01D6  120A  158A  25A0  120A  118A  	fcall	__Umul8_16
  3043     01DB  1283               	bcf	3,5	;RP0=0, select bank0
  3044     01DC  1303               	bcf	3,6	;RP1=0, select bank0
  3045     01DD  0821               	movf	?__Umul8_16+1,w
  3046     01DE  00C7               	movwf	___flmul@temp+1
  3047     01DF  0820               	movf	?__Umul8_16,w
  3048     01E0  00C6               	movwf	___flmul@temp
  3049     01E1  0846               	movf	___flmul@temp,w
  3050     01E2  00B6               	movwf	??___flmul
  3051     01E3  0847               	movf	___flmul@temp+1,w
  3052     01E4  00B7               	movwf	??___flmul+1
  3053     01E5  01B8               	clrf	??___flmul+2
  3054     01E6  01B9               	clrf	??___flmul+3
  3055     01E7  0836               	movf	??___flmul,w
  3056     01E8  07C2               	addwf	___flmul@prod,f
  3057     01E9  0837               	movf	??___flmul+1,w
  3058     01EA  1103               	clrz
  3059     01EB  1803               	skipnc
  3060     01EC  3E01               	addlw	1
  3061     01ED  1903               	skipnz
  3062     01EE  29F0               	goto	u3081
  3063     01EF  07C3               	addwf	___flmul@prod+1,f
  3064     01F0                     u3081:
  3065     01F0  0838               	movf	??___flmul+2,w
  3066     01F1  1103               	clrz
  3067     01F2  1803               	skipnc
  3068     01F3  3E01               	addlw	1
  3069     01F4  1903               	skipnz
  3070     01F5  29F7               	goto	u3082
  3071     01F6  07C4               	addwf	___flmul@prod+2,f
  3072     01F7                     u3082:
  3073     01F7  0839               	movf	??___flmul+3,w
  3074     01F8  1103               	clrz
  3075     01F9  1803               	skipnc
  3076     01FA  3E01               	addlw	1
  3077     01FB  1903               	skipnz
  3078     01FC  29FE               	goto	u3083
  3079     01FD  07C5               	addwf	___flmul@prod+3,f
  3080     01FE                     u3083:
  3081     01FE                     l2214:
  3082     01FE  0830               	movf	___flmul@b+2,w
  3083     01FF  00A0               	movwf	__Umul8_16@multiplicand
  3084     0200  0833               	movf	___flmul@a+1,w
  3085     0201  120A  158A  25A0  120A  118A  	fcall	__Umul8_16
  3086     0206  1283               	bcf	3,5	;RP0=0, select bank0
  3087     0207  1303               	bcf	3,6	;RP1=0, select bank0
  3088     0208  0821               	movf	?__Umul8_16+1,w
  3089     0209  00C7               	movwf	___flmul@temp+1
  3090     020A  0820               	movf	?__Umul8_16,w
  3091     020B  00C6               	movwf	___flmul@temp
  3092     020C                     l2216:
  3093     020C  0846               	movf	___flmul@temp,w
  3094     020D  00B6               	movwf	??___flmul
  3095     020E  0847               	movf	___flmul@temp+1,w
  3096     020F  00B7               	movwf	??___flmul+1
  3097     0210  01B8               	clrf	??___flmul+2
  3098     0211  01B9               	clrf	??___flmul+3
  3099     0212  0836               	movf	??___flmul,w
  3100     0213  07C2               	addwf	___flmul@prod,f
  3101     0214  0837               	movf	??___flmul+1,w
  3102     0215  1103               	clrz
  3103     0216  1803               	skipnc
  3104     0217  3E01               	addlw	1
  3105     0218  1903               	skipnz
  3106     0219  2A1B               	goto	u3091
  3107     021A  07C3               	addwf	___flmul@prod+1,f
  3108     021B                     u3091:
  3109     021B  0838               	movf	??___flmul+2,w
  3110     021C  1103               	clrz
  3111     021D  1803               	skipnc
  3112     021E  3E01               	addlw	1
  3113     021F  1903               	skipnz
  3114     0220  2A22               	goto	u3092
  3115     0221  07C4               	addwf	___flmul@prod+2,f
  3116     0222                     u3092:
  3117     0222  0839               	movf	??___flmul+3,w
  3118     0223  1103               	clrz
  3119     0224  1803               	skipnc
  3120     0225  3E01               	addlw	1
  3121     0226  1903               	skipnz
  3122     0227  2A29               	goto	u3093
  3123     0228  07C5               	addwf	___flmul@prod+3,f
  3124     0229                     u3093:
  3125     0229  0830               	movf	___flmul@b+2,w
  3126     022A  00A0               	movwf	__Umul8_16@multiplicand
  3127     022B  0834               	movf	___flmul@a+2,w
  3128     022C  120A  158A  25A0  120A  118A  	fcall	__Umul8_16
  3129     0231  1283               	bcf	3,5	;RP0=0, select bank0
  3130     0232  1303               	bcf	3,6	;RP1=0, select bank0
  3131     0233  0821               	movf	?__Umul8_16+1,w
  3132     0234  00C7               	movwf	___flmul@temp+1
  3133     0235  0820               	movf	?__Umul8_16,w
  3134     0236  00C6               	movwf	___flmul@temp
  3135     0237                     l2218:
  3136     0237  0846               	movf	___flmul@temp,w
  3137     0238  00B6               	movwf	??___flmul
  3138     0239  0847               	movf	___flmul@temp+1,w
  3139     023A  00B7               	movwf	??___flmul+1
  3140     023B  01B8               	clrf	??___flmul+2
  3141     023C  01B9               	clrf	??___flmul+3
  3142     023D  3008               	movlw	8
  3143     023E                     u3105:
  3144     023E  1003               	clrc
  3145     023F  0DB6               	rlf	??___flmul,f
  3146     0240  0DB7               	rlf	??___flmul+1,f
  3147     0241  0DB8               	rlf	??___flmul+2,f
  3148     0242  0DB9               	rlf	??___flmul+3,f
  3149     0243                     u3100:
  3150     0243  3EFF               	addlw	-1
  3151     0244  1D03               	skipz
  3152     0245  2A3E               	goto	u3105
  3153     0246  0836               	movf	??___flmul,w
  3154     0247  07C2               	addwf	___flmul@prod,f
  3155     0248  0837               	movf	??___flmul+1,w
  3156     0249  1103               	clrz
  3157     024A  1803               	skipnc
  3158     024B  3E01               	addlw	1
  3159     024C  1903               	skipnz
  3160     024D  2A4F               	goto	u3111
  3161     024E  07C3               	addwf	___flmul@prod+1,f
  3162     024F                     u3111:
  3163     024F  0838               	movf	??___flmul+2,w
  3164     0250  1103               	clrz
  3165     0251  1803               	skipnc
  3166     0252  3E01               	addlw	1
  3167     0253  1903               	skipnz
  3168     0254  2A56               	goto	u3112
  3169     0255  07C4               	addwf	___flmul@prod+2,f
  3170     0256                     u3112:
  3171     0256  0839               	movf	??___flmul+3,w
  3172     0257  1103               	clrz
  3173     0258  1803               	skipnc
  3174     0259  3E01               	addlw	1
  3175     025A  1903               	skipnz
  3176     025B  2A5D               	goto	u3113
  3177     025C  07C5               	addwf	___flmul@prod+3,f
  3178     025D                     u3113:
  3179     025D                     l2220:
  3180     025D  083D               	movf	___flmul@grs,w
  3181     025E  00B6               	movwf	??___flmul
  3182     025F  083E               	movf	___flmul@grs+1,w
  3183     0260  00B7               	movwf	??___flmul+1
  3184     0261  083F               	movf	___flmul@grs+2,w
  3185     0262  00B8               	movwf	??___flmul+2
  3186     0263  0840               	movf	___flmul@grs+3,w
  3187     0264  00B9               	movwf	??___flmul+3
  3188     0265  3018               	movlw	24
  3189     0266                     u3125:
  3190     0266  1003               	clrc
  3191     0267  0CB9               	rrf	??___flmul+3,f
  3192     0268  0CB8               	rrf	??___flmul+2,f
  3193     0269  0CB7               	rrf	??___flmul+1,f
  3194     026A  0CB6               	rrf	??___flmul,f
  3195     026B                     u3120:
  3196     026B  3EFF               	addlw	-1
  3197     026C  1D03               	skipz
  3198     026D  2A66               	goto	u3125
  3199     026E  0836               	movf	??___flmul,w
  3200     026F  07C2               	addwf	___flmul@prod,f
  3201     0270  0837               	movf	??___flmul+1,w
  3202     0271  1103               	clrz
  3203     0272  1803               	skipnc
  3204     0273  3E01               	addlw	1
  3205     0274  1903               	skipnz
  3206     0275  2A77               	goto	u3131
  3207     0276  07C3               	addwf	___flmul@prod+1,f
  3208     0277                     u3131:
  3209     0277  0838               	movf	??___flmul+2,w
  3210     0278  1103               	clrz
  3211     0279  1803               	skipnc
  3212     027A  3E01               	addlw	1
  3213     027B  1903               	skipnz
  3214     027C  2A7E               	goto	u3132
  3215     027D  07C4               	addwf	___flmul@prod+2,f
  3216     027E                     u3132:
  3217     027E  0839               	movf	??___flmul+3,w
  3218     027F  1103               	clrz
  3219     0280  1803               	skipnc
  3220     0281  3E01               	addlw	1
  3221     0282  1903               	skipnz
  3222     0283  2A85               	goto	u3133
  3223     0284  07C5               	addwf	___flmul@prod+3,f
  3224     0285                     u3133:
  3225     0285                     l2222:
  3226     0285  3008               	movlw	8
  3227     0286  00B6               	movwf	??___flmul
  3228     0287                     u3145:
  3229     0287  1003               	clrc
  3230     0288  0DBD               	rlf	___flmul@grs,f
  3231     0289  0DBE               	rlf	___flmul@grs+1,f
  3232     028A  0DBF               	rlf	___flmul@grs+2,f
  3233     028B  0DC0               	rlf	___flmul@grs+3,f
  3234     028C  0BB6               	decfsz	??___flmul,f
  3235     028D  2A87               	goto	u3145
  3236     028E                     l2224:
  3237     028E  0841               	movf	___flmul@bexp,w
  3238     028F  073C               	addwf	___flmul@aexp,w
  3239     0290  00B6               	movwf	??___flmul
  3240     0291  01B7               	clrf	??___flmul+1
  3241     0292  0DB7               	rlf	??___flmul+1,f
  3242     0293  0836               	movf	??___flmul,w
  3243     0294  3E82               	addlw	130
  3244     0295  00C6               	movwf	___flmul@temp
  3245     0296  0837               	movf	??___flmul+1,w
  3246     0297  1803               	skipnc
  3247     0298  3E01               	addlw	1
  3248     0299  3EFF               	addlw	255
  3249     029A  00C7               	movwf	___flmul@temp+1
  3250     029B  2AB9               	goto	l2236
  3251     029C                     l2226:
  3252     029C  3001               	movlw	1
  3253     029D  00B6               	movwf	??___flmul
  3254     029E                     u3155:
  3255     029E  1003               	clrc
  3256     029F  0DC2               	rlf	___flmul@prod,f
  3257     02A0  0DC3               	rlf	___flmul@prod+1,f
  3258     02A1  0DC4               	rlf	___flmul@prod+2,f
  3259     02A2  0DC5               	rlf	___flmul@prod+3,f
  3260     02A3  0BB6               	decfsz	??___flmul,f
  3261     02A4  2A9E               	goto	u3155
  3262     02A5                     l2228:
  3263     02A5  1FC0               	btfss	___flmul@grs+3,7
  3264     02A6  2AA8               	goto	u3161
  3265     02A7  2AA9               	goto	u3160
  3266     02A8                     u3161:
  3267     02A8  2AAA               	goto	l2232
  3268     02A9                     u3160:
  3269     02A9                     l2230:
  3270     02A9  1442               	bsf	___flmul@prod,0
  3271     02AA                     l2232:
  3272     02AA  3001               	movlw	1
  3273     02AB  00B6               	movwf	??___flmul
  3274     02AC                     u3175:
  3275     02AC  1003               	clrc
  3276     02AD  0DBD               	rlf	___flmul@grs,f
  3277     02AE  0DBE               	rlf	___flmul@grs+1,f
  3278     02AF  0DBF               	rlf	___flmul@grs+2,f
  3279     02B0  0DC0               	rlf	___flmul@grs+3,f
  3280     02B1  0BB6               	decfsz	??___flmul,f
  3281     02B2  2AAC               	goto	u3175
  3282     02B3                     l2234:
  3283     02B3  30FF               	movlw	255
  3284     02B4  07C6               	addwf	___flmul@temp,f
  3285     02B5  1803               	skipnc
  3286     02B6  0AC7               	incf	___flmul@temp+1,f
  3287     02B7  30FF               	movlw	255
  3288     02B8  07C7               	addwf	___flmul@temp+1,f
  3289     02B9                     l2236:
  3290     02B9  1FC4               	btfss	___flmul@prod+2,7
  3291     02BA  2ABC               	goto	u3181
  3292     02BB  2ABD               	goto	u3180
  3293     02BC                     u3181:
  3294     02BC  2A9C               	goto	l2226
  3295     02BD                     u3180:
  3296     02BD                     l2238:
  3297     02BD  01BC               	clrf	___flmul@aexp
  3298     02BE                     l2240:
  3299     02BE  1FC0               	btfss	___flmul@grs+3,7
  3300     02BF  2AC1               	goto	u3191
  3301     02C0  2AC2               	goto	u3190
  3302     02C1                     u3191:
  3303     02C1  2ADE               	goto	l2248
  3304     02C2                     u3190:
  3305     02C2                     l2242:
  3306     02C2  30FF               	movlw	255
  3307     02C3  053D               	andwf	___flmul@grs,w
  3308     02C4  00B6               	movwf	??___flmul
  3309     02C5  30FF               	movlw	255
  3310     02C6  053E               	andwf	___flmul@grs+1,w
  3311     02C7  00B7               	movwf	??___flmul+1
  3312     02C8  30FF               	movlw	255
  3313     02C9  053F               	andwf	___flmul@grs+2,w
  3314     02CA  00B8               	movwf	??___flmul+2
  3315     02CB  307F               	movlw	127
  3316     02CC  0540               	andwf	___flmul@grs+3,w
  3317     02CD  00B9               	movwf	??___flmul+3
  3318     02CE  0839               	movf	??___flmul+3,w
  3319     02CF  0438               	iorwf	??___flmul+2,w
  3320     02D0  0437               	iorwf	??___flmul+1,w
  3321     02D1  0436               	iorwf	??___flmul,w
  3322     02D2  1903               	skipnz
  3323     02D3  2AD5               	goto	u3201
  3324     02D4  2AD6               	goto	u3200
  3325     02D5                     u3201:
  3326     02D5  2AD9               	goto	l663
  3327     02D6                     u3200:
  3328     02D6                     l2244:
  3329     02D6  01BC               	clrf	___flmul@aexp
  3330     02D7  0ABC               	incf	___flmul@aexp,f
  3331     02D8  2ADE               	goto	l2248
  3332     02D9                     l663:
  3333     02D9  1C42               	btfss	___flmul@prod,0
  3334     02DA  2ADC               	goto	u3211
  3335     02DB  2ADD               	goto	u3210
  3336     02DC                     u3211:
  3337     02DC  2ADE               	goto	l2248
  3338     02DD                     u3210:
  3339     02DD  2AD6               	goto	l2244
  3340     02DE                     l2248:
  3341     02DE  083C               	movf	___flmul@aexp,w
  3342     02DF  1903               	btfsc	3,2
  3343     02E0  2AE2               	goto	u3221
  3344     02E1  2AE3               	goto	u3220
  3345     02E2                     u3221:
  3346     02E2  2B14               	goto	l2258
  3347     02E3                     u3220:
  3348     02E3                     l2250:
  3349     02E3  3001               	movlw	1
  3350     02E4  07C2               	addwf	___flmul@prod,f
  3351     02E5  3000               	movlw	0
  3352     02E6  1803               	skipnc
  3353     02E7  3001               	movlw	1
  3354     02E8  07C3               	addwf	___flmul@prod+1,f
  3355     02E9  3000               	movlw	0
  3356     02EA  1803               	skipnc
  3357     02EB  3001               	movlw	1
  3358     02EC  07C4               	addwf	___flmul@prod+2,f
  3359     02ED  3000               	movlw	0
  3360     02EE  1803               	skipnc
  3361     02EF  3001               	movlw	1
  3362     02F0  07C5               	addwf	___flmul@prod+3,f
  3363     02F1                     l2252:
  3364     02F1  1C45               	btfss	___flmul@prod+3,0
  3365     02F2  2AF4               	goto	u3231
  3366     02F3  2AF5               	goto	u3230
  3367     02F4                     u3231:
  3368     02F4  2B14               	goto	l2258
  3369     02F5                     u3230:
  3370     02F5                     l2254:
  3371     02F5  0842               	movf	___flmul@prod,w
  3372     02F6  00B6               	movwf	??___flmul
  3373     02F7  0843               	movf	___flmul@prod+1,w
  3374     02F8  00B7               	movwf	??___flmul+1
  3375     02F9  0844               	movf	___flmul@prod+2,w
  3376     02FA  00B8               	movwf	??___flmul+2
  3377     02FB  0845               	movf	___flmul@prod+3,w
  3378     02FC  00B9               	movwf	??___flmul+3
  3379     02FD  3001               	movlw	1
  3380     02FE  00BA               	movwf	??___flmul+4
  3381     02FF                     u3245:
  3382     02FF  0D39               	rlf	??___flmul+3,w
  3383     0300  0CB9               	rrf	??___flmul+3,f
  3384     0301  0CB8               	rrf	??___flmul+2,f
  3385     0302  0CB7               	rrf	??___flmul+1,f
  3386     0303  0CB6               	rrf	??___flmul,f
  3387     0304                     u3240:
  3388     0304  0BBA               	decfsz	??___flmul+4,f
  3389     0305  2AFF               	goto	u3245
  3390     0306  0839               	movf	??___flmul+3,w
  3391     0307  00C5               	movwf	___flmul@prod+3
  3392     0308  0838               	movf	??___flmul+2,w
  3393     0309  00C4               	movwf	___flmul@prod+2
  3394     030A  0837               	movf	??___flmul+1,w
  3395     030B  00C3               	movwf	___flmul@prod+1
  3396     030C  0836               	movf	??___flmul,w
  3397     030D  00C2               	movwf	___flmul@prod
  3398     030E                     l2256:
  3399     030E  3001               	movlw	1
  3400     030F  07C6               	addwf	___flmul@temp,f
  3401     0310  1803               	skipnc
  3402     0311  0AC7               	incf	___flmul@temp+1,f
  3403     0312  3000               	movlw	0
  3404     0313  07C7               	addwf	___flmul@temp+1,f
  3405     0314                     l2258:
  3406     0314  0847               	movf	___flmul@temp+1,w
  3407     0315  3A80               	xorlw	128
  3408     0316  00FF               	movwf	btemp+1
  3409     0317  3080               	movlw	128
  3410     0318  027F               	subwf	btemp+1,w
  3411     0319  1D03               	skipz
  3412     031A  2B1D               	goto	u3255
  3413     031B  30FF               	movlw	255
  3414     031C  0246               	subwf	___flmul@temp,w
  3415     031D                     u3255:
  3416     031D  1C03               	skipc
  3417     031E  2B20               	goto	u3251
  3418     031F  2B21               	goto	u3250
  3419     0320                     u3251:
  3420     0320  2B2C               	goto	l2262
  3421     0321                     u3250:
  3422     0321                     l2260:
  3423     0321  307F               	movlw	127
  3424     0322  1283               	bcf	3,5	;RP0=0, select bank0
  3425     0323  1303               	bcf	3,6	;RP1=0, select bank0
  3426     0324  00C5               	movwf	___flmul@prod+3
  3427     0325  3080               	movlw	128
  3428     0326  00C4               	movwf	___flmul@prod+2
  3429     0327  3000               	movlw	0
  3430     0328  00C3               	movwf	___flmul@prod+1
  3431     0329  3000               	movlw	0
  3432     032A  00C2               	movwf	___flmul@prod
  3433     032B  2B5D               	goto	l669
  3434     032C                     l2262:
  3435     032C  1283               	bcf	3,5	;RP0=0, select bank0
  3436     032D  1303               	bcf	3,6	;RP1=0, select bank0
  3437     032E  0847               	movf	___flmul@temp+1,w
  3438     032F  3A80               	xorlw	128
  3439     0330  00FF               	movwf	btemp+1
  3440     0331  3080               	movlw	128
  3441     0332  027F               	subwf	btemp+1,w
  3442     0333  1D03               	skipz
  3443     0334  2B37               	goto	u3265
  3444     0335  3001               	movlw	1
  3445     0336  0246               	subwf	___flmul@temp,w
  3446     0337                     u3265:
  3447     0337  1803               	skipnc
  3448     0338  2B3A               	goto	u3261
  3449     0339  2B3B               	goto	u3260
  3450     033A                     u3261:
  3451     033A  2B47               	goto	l2268
  3452     033B                     u3260:
  3453     033B                     l2264:
  3454     033B  3000               	movlw	0
  3455     033C  1283               	bcf	3,5	;RP0=0, select bank0
  3456     033D  1303               	bcf	3,6	;RP1=0, select bank0
  3457     033E  00C5               	movwf	___flmul@prod+3
  3458     033F  3000               	movlw	0
  3459     0340  00C4               	movwf	___flmul@prod+2
  3460     0341  3000               	movlw	0
  3461     0342  00C3               	movwf	___flmul@prod+1
  3462     0343  3000               	movlw	0
  3463     0344  00C2               	movwf	___flmul@prod
  3464     0345                     l2266:
  3465     0345  01BB               	clrf	___flmul@sign
  3466     0346  2B5D               	goto	l669
  3467     0347                     l2268:
  3468     0347  1283               	bcf	3,5	;RP0=0, select bank0
  3469     0348  1303               	bcf	3,6	;RP1=0, select bank0
  3470     0349  0846               	movf	___flmul@temp,w
  3471     034A  00C1               	movwf	___flmul@bexp
  3472     034B  30FF               	movlw	255
  3473     034C  05C2               	andwf	___flmul@prod,f
  3474     034D  30FF               	movlw	255
  3475     034E  05C3               	andwf	___flmul@prod+1,f
  3476     034F  307F               	movlw	127
  3477     0350  05C4               	andwf	___flmul@prod+2,f
  3478     0351  3000               	movlw	0
  3479     0352  05C5               	andwf	___flmul@prod+3,f
  3480     0353                     l2270:
  3481     0353  1C41               	btfss	___flmul@bexp,0
  3482     0354  2B56               	goto	u3271
  3483     0355  2B57               	goto	u3270
  3484     0356                     u3271:
  3485     0356  2B58               	goto	l2274
  3486     0357                     u3270:
  3487     0357                     l2272:
  3488     0357  17C4               	bsf	___flmul@prod+2,7
  3489     0358                     l2274:
  3490     0358  0841               	movf	___flmul@bexp,w
  3491     0359  00B6               	movwf	??___flmul
  3492     035A  1003               	clrc
  3493     035B  0C36               	rrf	??___flmul,w
  3494     035C  00C5               	movwf	___flmul@prod+3
  3495     035D                     l669:
  3496     035D  083B               	movf	___flmul@sign,w
  3497     035E  00B6               	movwf	??___flmul
  3498     035F  0836               	movf	??___flmul,w
  3499     0360  04C5               	iorwf	___flmul@prod+3,f
  3500     0361                     l2276:
  3501     0361  0845               	movf	___flmul@prod+3,w
  3502     0362  00B1               	movwf	?___flmul+3
  3503     0363  0844               	movf	___flmul@prod+2,w
  3504     0364  00B0               	movwf	?___flmul+2
  3505     0365  0843               	movf	___flmul@prod+1,w
  3506     0366  00AF               	movwf	?___flmul+1
  3507     0367  0842               	movf	___flmul@prod,w
  3508     0368  00AE               	movwf	?___flmul
  3509     0369                     l657:
  3510     0369  0008               	return
  3511     036A                     __end_of___flmul:
  3512                           
  3513                           	psect	text12
  3514     0DA0                     __ptext12:	
  3515 ;; *************** function __Umul8_16 *****************
  3516 ;; Defined at:
  3517 ;;		line 4 in file "C:\Program Files\Microchip\xc8\v2.40\pic\sources\c90\common\Umul8_16.c"
  3518 ;; Parameters:    Size  Location     Type
  3519 ;;  multiplier      1    wreg     unsigned char 
  3520 ;;  multiplicand    1    0[BANK0 ] unsigned char 
  3521 ;; Auto vars:     Size  Location     Type
  3522 ;;  multiplier      1    8[BANK0 ] unsigned char 
  3523 ;;  word_mpld       2    6[BANK0 ] unsigned int 
  3524 ;;  product         2    4[BANK0 ] unsigned int 
  3525 ;; Return value:  Size  Location     Type
  3526 ;;                  2    0[BANK0 ] unsigned int 
  3527 ;; Registers used:
  3528 ;;		wreg, status,2, status,0
  3529 ;; Tracked objects:
  3530 ;;		On entry : 0/0
  3531 ;;		On exit  : 0/0
  3532 ;;		Unchanged: 0/0
  3533 ;; Data sizes:     COMMON   BANK0   BANK1   BANK3   BANK2
  3534 ;;      Params:         0       2       0       0       0
  3535 ;;      Locals:         0       5       0       0       0
  3536 ;;      Temps:          0       2       0       0       0
  3537 ;;      Totals:         0       9       0       0       0
  3538 ;;Total ram usage:        9 bytes
  3539 ;; Hardware stack levels used: 1
  3540 ;; Hardware stack levels required when called: 2
  3541 ;; This function calls:
  3542 ;;		Nothing
  3543 ;; This function is called by:
  3544 ;;		___flmul
  3545 ;; This function uses a non-reentrant model
  3546 ;;
  3547                           
  3548     0DA0                     __Umul8_16:	
  3549                           ;psect for function __Umul8_16
  3550                           
  3551                           
  3552                           ;incstack = 0
  3553                           ; Regs used in __Umul8_16: [wreg+status,2+status,0]
  3554                           ;__Umul8_16@multiplier stored from wreg
  3555     0DA0  1283               	bcf	3,5	;RP0=0, select bank0
  3556     0DA1  1303               	bcf	3,6	;RP1=0, select bank0
  3557     0DA2  00A8               	movwf	__Umul8_16@multiplier
  3558     0DA3                     l2112:
  3559     0DA3  01A4               	clrf	__Umul8_16@product
  3560     0DA4  01A5               	clrf	__Umul8_16@product+1
  3561     0DA5                     l2114:
  3562     0DA5  0820               	movf	__Umul8_16@multiplicand,w
  3563     0DA6  00A2               	movwf	??__Umul8_16
  3564     0DA7  01A3               	clrf	??__Umul8_16+1
  3565     0DA8  0822               	movf	??__Umul8_16,w
  3566     0DA9  00A6               	movwf	__Umul8_16@word_mpld
  3567     0DAA  0823               	movf	??__Umul8_16+1,w
  3568     0DAB  00A7               	movwf	__Umul8_16@word_mpld+1
  3569     0DAC                     l2116:
  3570     0DAC  1C28               	btfss	__Umul8_16@multiplier,0
  3571     0DAD  2DAF               	goto	u2841
  3572     0DAE  2DB0               	goto	u2840
  3573     0DAF                     u2841:
  3574     0DAF  2DB6               	goto	l676
  3575     0DB0                     u2840:
  3576     0DB0                     l2118:
  3577     0DB0  0826               	movf	__Umul8_16@word_mpld,w
  3578     0DB1  07A4               	addwf	__Umul8_16@product,f
  3579     0DB2  1803               	skipnc
  3580     0DB3  0AA5               	incf	__Umul8_16@product+1,f
  3581     0DB4  0827               	movf	__Umul8_16@word_mpld+1,w
  3582     0DB5  07A5               	addwf	__Umul8_16@product+1,f
  3583     0DB6                     l676:
  3584     0DB6  3001               	movlw	1
  3585     0DB7                     u2855:
  3586     0DB7  1003               	clrc
  3587     0DB8  0DA6               	rlf	__Umul8_16@word_mpld,f
  3588     0DB9  0DA7               	rlf	__Umul8_16@word_mpld+1,f
  3589     0DBA  3EFF               	addlw	-1
  3590     0DBB  1D03               	skipz
  3591     0DBC  2DB7               	goto	u2855
  3592     0DBD  1003               	clrc
  3593     0DBE  0CA8               	rrf	__Umul8_16@multiplier,f
  3594     0DBF                     l2120:
  3595     0DBF  0828               	movf	__Umul8_16@multiplier,w
  3596     0DC0  1D03               	btfss	3,2
  3597     0DC1  2DC3               	goto	u2861
  3598     0DC2  2DC4               	goto	u2860
  3599     0DC3                     u2861:
  3600     0DC3  2DAC               	goto	l2116
  3601     0DC4                     u2860:
  3602     0DC4                     l2122:
  3603     0DC4  0825               	movf	__Umul8_16@product+1,w
  3604     0DC5  00A1               	movwf	?__Umul8_16+1
  3605     0DC6  0824               	movf	__Umul8_16@product,w
  3606     0DC7  00A0               	movwf	?__Umul8_16
  3607     0DC8                     l678:
  3608     0DC8  0008               	return
  3609     0DC9                     __end_of__Umul8_16:
  3610                           
  3611                           	psect	text13
  3612     036A                     __ptext13:	
  3613 ;; *************** function ___fladd *****************
  3614 ;; Defined at:
  3615 ;;		line 10 in file "C:\Program Files\Microchip\xc8\v2.40\pic\sources\c90\common\sprcadd.c"
  3616 ;; Parameters:    Size  Location     Type
  3617 ;;  b               4   40[BANK0 ] unsigned int 
  3618 ;;  a               4   44[BANK0 ] unsigned int 
  3619 ;; Auto vars:     Size  Location     Type
  3620 ;;  grs             1   59[BANK0 ] unsigned char 
  3621 ;;  bexp            1   58[BANK0 ] unsigned char 
  3622 ;;  aexp            1   57[BANK0 ] unsigned char 
  3623 ;;  signs           1   56[BANK0 ] unsigned char 
  3624 ;; Return value:  Size  Location     Type
  3625 ;;                  4   40[BANK0 ] unsigned char 
  3626 ;; Registers used:
  3627 ;;		wreg, status,2, status,0, btemp+1
  3628 ;; Tracked objects:
  3629 ;;		On entry : 0/0
  3630 ;;		On exit  : 0/0
  3631 ;;		Unchanged: 0/0
  3632 ;; Data sizes:     COMMON   BANK0   BANK1   BANK3   BANK2
  3633 ;;      Params:         0       8       0       0       0
  3634 ;;      Locals:         0       4       0       0       0
  3635 ;;      Temps:          0       8       0       0       0
  3636 ;;      Totals:         0      20       0       0       0
  3637 ;;Total ram usage:       20 bytes
  3638 ;; Hardware stack levels used: 1
  3639 ;; Hardware stack levels required when called: 2
  3640 ;; This function calls:
  3641 ;;		Nothing
  3642 ;; This function is called by:
  3643 ;;		_mapeo
  3644 ;; This function uses a non-reentrant model
  3645 ;;
  3646                           
  3647     036A                     ___fladd:	
  3648                           ;psect for function ___fladd
  3649                           
  3650     036A                     l1596:	
  3651                           ;incstack = 0
  3652                           ; Regs used in ___fladd: [wreg+status,2+status,0+btemp+1]
  3653                           
  3654     036A  1283               	bcf	3,5	;RP0=0, select bank0
  3655     036B  1303               	bcf	3,6	;RP1=0, select bank0
  3656     036C  084B               	movf	___fladd@b+3,w
  3657     036D  3980               	andlw	128
  3658     036E  00D8               	movwf	___fladd@signs
  3659     036F                     l1598:
  3660     036F  084B               	movf	___fladd@b+3,w
  3661     0370  00D0               	movwf	??___fladd
  3662     0371  0750               	addwf	??___fladd,w
  3663     0372  00DA               	movwf	___fladd@bexp
  3664     0373                     l1600:
  3665     0373  1FCA               	btfss	___fladd@b+2,7
  3666     0374  2B76               	goto	u1721
  3667     0375  2B77               	goto	u1720
  3668     0376                     u1721:
  3669     0376  2B78               	goto	l1604
  3670     0377                     u1720:
  3671     0377                     l1602:
  3672     0377  145A               	bsf	___fladd@bexp,0
  3673     0378                     l1604:
  3674     0378  085A               	movf	___fladd@bexp,w
  3675     0379  1903               	btfsc	3,2
  3676     037A  2B7C               	goto	u1731
  3677     037B  2B7D               	goto	u1730
  3678     037C                     u1731:
  3679     037C  2B8D               	goto	l1614
  3680     037D                     u1730:
  3681     037D                     l1606:
  3682     037D  0A5A               	incf	___fladd@bexp,w
  3683     037E  1D03               	btfss	3,2
  3684     037F  2B81               	goto	u1741
  3685     0380  2B82               	goto	u1740
  3686     0381                     u1741:
  3687     0381  2B8A               	goto	l1610
  3688     0382                     u1740:
  3689     0382                     l1608:
  3690     0382  3000               	movlw	0
  3691     0383  00CB               	movwf	___fladd@b+3
  3692     0384  3000               	movlw	0
  3693     0385  00CA               	movwf	___fladd@b+2
  3694     0386  3000               	movlw	0
  3695     0387  00C9               	movwf	___fladd@b+1
  3696     0388  3000               	movlw	0
  3697     0389  00C8               	movwf	___fladd@b
  3698     038A                     l1610:
  3699     038A  17CA               	bsf	___fladd@b+2,7
  3700     038B                     l1612:
  3701     038B  01CB               	clrf	___fladd@b+3
  3702     038C  2B95               	goto	l1616
  3703     038D                     l1614:
  3704     038D  3000               	movlw	0
  3705     038E  00CB               	movwf	___fladd@b+3
  3706     038F  3000               	movlw	0
  3707     0390  00CA               	movwf	___fladd@b+2
  3708     0391  3000               	movlw	0
  3709     0392  00C9               	movwf	___fladd@b+1
  3710     0393  3000               	movlw	0
  3711     0394  00C8               	movwf	___fladd@b
  3712     0395                     l1616:
  3713     0395  084F               	movf	___fladd@a+3,w
  3714     0396  3980               	andlw	128
  3715     0397  00D9               	movwf	___fladd@aexp
  3716     0398                     l1618:
  3717     0398  0859               	movf	___fladd@aexp,w
  3718     0399  0658               	xorwf	___fladd@signs,w
  3719     039A  1903               	skipnz
  3720     039B  2B9D               	goto	u1751
  3721     039C  2B9E               	goto	u1750
  3722     039D                     u1751:
  3723     039D  2B9F               	goto	l1622
  3724     039E                     u1750:
  3725     039E                     l1620:
  3726     039E  1758               	bsf	___fladd@signs,6
  3727     039F                     l1622:
  3728     039F  084F               	movf	___fladd@a+3,w
  3729     03A0  00D0               	movwf	??___fladd
  3730     03A1  0750               	addwf	??___fladd,w
  3731     03A2  00D9               	movwf	___fladd@aexp
  3732     03A3                     l1624:
  3733     03A3  1FCE               	btfss	___fladd@a+2,7
  3734     03A4  2BA6               	goto	u1761
  3735     03A5  2BA7               	goto	u1760
  3736     03A6                     u1761:
  3737     03A6  2BA8               	goto	l1628
  3738     03A7                     u1760:
  3739     03A7                     l1626:
  3740     03A7  1459               	bsf	___fladd@aexp,0
  3741     03A8                     l1628:
  3742     03A8  0859               	movf	___fladd@aexp,w
  3743     03A9  1903               	btfsc	3,2
  3744     03AA  2BAC               	goto	u1771
  3745     03AB  2BAD               	goto	u1770
  3746     03AC                     u1771:
  3747     03AC  2BBD               	goto	l1638
  3748     03AD                     u1770:
  3749     03AD                     l1630:
  3750     03AD  0A59               	incf	___fladd@aexp,w
  3751     03AE  1D03               	btfss	3,2
  3752     03AF  2BB1               	goto	u1781
  3753     03B0  2BB2               	goto	u1780
  3754     03B1                     u1781:
  3755     03B1  2BBA               	goto	l1634
  3756     03B2                     u1780:
  3757     03B2                     l1632:
  3758     03B2  3000               	movlw	0
  3759     03B3  00CF               	movwf	___fladd@a+3
  3760     03B4  3000               	movlw	0
  3761     03B5  00CE               	movwf	___fladd@a+2
  3762     03B6  3000               	movlw	0
  3763     03B7  00CD               	movwf	___fladd@a+1
  3764     03B8  3000               	movlw	0
  3765     03B9  00CC               	movwf	___fladd@a
  3766     03BA                     l1634:
  3767     03BA  17CE               	bsf	___fladd@a+2,7
  3768     03BB                     l1636:
  3769     03BB  01CF               	clrf	___fladd@a+3
  3770     03BC  2BC5               	goto	l561
  3771     03BD                     l1638:
  3772     03BD  3000               	movlw	0
  3773     03BE  00CF               	movwf	___fladd@a+3
  3774     03BF  3000               	movlw	0
  3775     03C0  00CE               	movwf	___fladd@a+2
  3776     03C1  3000               	movlw	0
  3777     03C2  00CD               	movwf	___fladd@a+1
  3778     03C3  3000               	movlw	0
  3779     03C4  00CC               	movwf	___fladd@a
  3780     03C5                     l561:
  3781     03C5  085A               	movf	___fladd@bexp,w
  3782     03C6  0259               	subwf	___fladd@aexp,w
  3783     03C7  1803               	skipnc
  3784     03C8  2BCA               	goto	u1791
  3785     03C9  2BCB               	goto	u1790
  3786     03CA                     u1791:
  3787     03CA  2BF1               	goto	l1674
  3788     03CB                     u1790:
  3789     03CB                     l1640:
  3790     03CB  1F58               	btfss	___fladd@signs,6
  3791     03CC  2BCE               	goto	u1801
  3792     03CD  2BCF               	goto	u1800
  3793     03CE                     u1801:
  3794     03CE  2BD3               	goto	l1644
  3795     03CF                     u1800:
  3796     03CF                     l1642:
  3797     03CF  3080               	movlw	128
  3798     03D0  00D0               	movwf	??___fladd
  3799     03D1  0850               	movf	??___fladd,w
  3800     03D2  06D8               	xorwf	___fladd@signs,f
  3801     03D3                     l1644:
  3802     03D3  085A               	movf	___fladd@bexp,w
  3803     03D4  00DB               	movwf	___fladd@grs
  3804     03D5                     l1646:
  3805     03D5  0859               	movf	___fladd@aexp,w
  3806     03D6  00DA               	movwf	___fladd@bexp
  3807     03D7                     l1648:
  3808     03D7  085B               	movf	___fladd@grs,w
  3809     03D8  00D9               	movwf	___fladd@aexp
  3810     03D9                     l1650:
  3811     03D9  0848               	movf	___fladd@b,w
  3812     03DA  00DB               	movwf	___fladd@grs
  3813     03DB                     l1652:
  3814     03DB  084C               	movf	___fladd@a,w
  3815     03DC  00C8               	movwf	___fladd@b
  3816     03DD                     l1654:
  3817     03DD  085B               	movf	___fladd@grs,w
  3818     03DE  00CC               	movwf	___fladd@a
  3819     03DF                     l1656:
  3820     03DF  0849               	movf	___fladd@b+1,w
  3821     03E0  00DB               	movwf	___fladd@grs
  3822     03E1                     l1658:
  3823     03E1  084D               	movf	___fladd@a+1,w
  3824     03E2  00C9               	movwf	___fladd@b+1
  3825     03E3                     l1660:
  3826     03E3  085B               	movf	___fladd@grs,w
  3827     03E4  00CD               	movwf	___fladd@a+1
  3828     03E5                     l1662:
  3829     03E5  084A               	movf	___fladd@b+2,w
  3830     03E6  00DB               	movwf	___fladd@grs
  3831     03E7                     l1664:
  3832     03E7  084E               	movf	___fladd@a+2,w
  3833     03E8  00CA               	movwf	___fladd@b+2
  3834     03E9                     l1666:
  3835     03E9  085B               	movf	___fladd@grs,w
  3836     03EA  00CE               	movwf	___fladd@a+2
  3837     03EB                     l1668:
  3838     03EB  084B               	movf	___fladd@b+3,w
  3839     03EC  00DB               	movwf	___fladd@grs
  3840     03ED                     l1670:
  3841     03ED  084F               	movf	___fladd@a+3,w
  3842     03EE  00CB               	movwf	___fladd@b+3
  3843     03EF                     l1672:
  3844     03EF  085B               	movf	___fladd@grs,w
  3845     03F0  00CF               	movwf	___fladd@a+3
  3846     03F1                     l1674:
  3847     03F1  01DB               	clrf	___fladd@grs
  3848     03F2                     l1676:
  3849     03F2  0859               	movf	___fladd@aexp,w
  3850     03F3  00D0               	movwf	??___fladd
  3851     03F4  01D1               	clrf	??___fladd+1
  3852     03F5  0851               	movf	??___fladd+1,w
  3853     03F6  00D3               	movwf	??___fladd+3
  3854     03F7  085A               	movf	___fladd@bexp,w
  3855     03F8  0250               	subwf	??___fladd,w
  3856     03F9  00D2               	movwf	??___fladd+2
  3857     03FA  1C03               	skipc
  3858     03FB  03D3               	decf	??___fladd+3,f
  3859     03FC  0853               	movf	??___fladd+3,w
  3860     03FD  3A80               	xorlw	128
  3861     03FE  00FF               	movwf	btemp+1
  3862     03FF  3080               	movlw	128
  3863     0400  027F               	subwf	btemp+1,w
  3864     0401  1D03               	skipz
  3865     0402  2C05               	goto	u1815
  3866     0403  301A               	movlw	26
  3867     0404  0252               	subwf	??___fladd+2,w
  3868     0405                     u1815:
  3869     0405  1C03               	skipc
  3870     0406  2C08               	goto	u1811
  3871     0407  2C09               	goto	u1810
  3872     0408                     u1811:
  3873     0408  2C40               	goto	l1692
  3874     0409                     u1810:
  3875     0409                     l1678:
  3876     0409  1283               	bcf	3,5	;RP0=0, select bank0
  3877     040A  1303               	bcf	3,6	;RP1=0, select bank0
  3878     040B  084B               	movf	___fladd@b+3,w
  3879     040C  044A               	iorwf	___fladd@b+2,w
  3880     040D  0449               	iorwf	___fladd@b+1,w
  3881     040E  0448               	iorwf	___fladd@b,w
  3882     040F  1D03               	skipz
  3883     0410  2C12               	goto	u1821
  3884     0411  2C14               	goto	u1820
  3885     0412                     u1821:
  3886     0412  3001               	movlw	1
  3887     0413  2C15               	goto	u1830
  3888     0414                     u1820:
  3889     0414  3000               	movlw	0
  3890     0415                     u1830:
  3891     0415  00DB               	movwf	___fladd@grs
  3892     0416  3000               	movlw	0
  3893     0417  00CB               	movwf	___fladd@b+3
  3894     0418  3000               	movlw	0
  3895     0419  00CA               	movwf	___fladd@b+2
  3896     041A  3000               	movlw	0
  3897     041B  00C9               	movwf	___fladd@b+1
  3898     041C  3000               	movlw	0
  3899     041D  00C8               	movwf	___fladd@b
  3900     041E  0859               	movf	___fladd@aexp,w
  3901     041F  00DA               	movwf	___fladd@bexp
  3902     0420  2C48               	goto	l565
  3903     0421                     l567:
  3904     0421  1C5B               	btfss	___fladd@grs,0
  3905     0422  2C24               	goto	u1841
  3906     0423  2C25               	goto	u1840
  3907     0424                     u1841:
  3908     0424  2C2C               	goto	l1682
  3909     0425                     u1840:
  3910     0425                     l1680:
  3911     0425  085B               	movf	___fladd@grs,w
  3912     0426  00D0               	movwf	??___fladd
  3913     0427  1003               	clrc
  3914     0428  0C50               	rrf	??___fladd,w
  3915     0429  3801               	iorlw	1
  3916     042A  00DB               	movwf	___fladd@grs
  3917     042B  2C2E               	goto	l1684
  3918     042C                     l1682:
  3919     042C  1003               	clrc
  3920     042D  0CDB               	rrf	___fladd@grs,f
  3921     042E                     l1684:
  3922     042E  1C48               	btfss	___fladd@b,0
  3923     042F  2C31               	goto	u1851
  3924     0430  2C32               	goto	u1850
  3925     0431                     u1851:
  3926     0431  2C33               	goto	l1688
  3927     0432                     u1850:
  3928     0432                     l1686:
  3929     0432  17DB               	bsf	___fladd@grs,7
  3930     0433                     l1688:
  3931     0433  3001               	movlw	1
  3932     0434  00D0               	movwf	??___fladd
  3933     0435                     u1865:
  3934     0435  0D4B               	rlf	___fladd@b+3,w
  3935     0436  0CCB               	rrf	___fladd@b+3,f
  3936     0437  0CCA               	rrf	___fladd@b+2,f
  3937     0438  0CC9               	rrf	___fladd@b+1,f
  3938     0439  0CC8               	rrf	___fladd@b,f
  3939     043A  0BD0               	decfsz	??___fladd& (0+127),f
  3940     043B  2C35               	goto	u1865
  3941     043C                     l1690:
  3942     043C  3001               	movlw	1
  3943     043D  00D0               	movwf	??___fladd
  3944     043E  0850               	movf	??___fladd,w
  3945     043F  07DA               	addwf	___fladd@bexp,f
  3946     0440                     l1692:
  3947     0440  1283               	bcf	3,5	;RP0=0, select bank0
  3948     0441  1303               	bcf	3,6	;RP1=0, select bank0
  3949     0442  0859               	movf	___fladd@aexp,w
  3950     0443  025A               	subwf	___fladd@bexp,w
  3951     0444  1C03               	skipc
  3952     0445  2C47               	goto	u1871
  3953     0446  2C48               	goto	u1870
  3954     0447                     u1871:
  3955     0447  2C21               	goto	l567
  3956     0448                     u1870:
  3957     0448                     l565:
  3958     0448  1B58               	btfsc	___fladd@signs,6
  3959     0449  2C4B               	goto	u1881
  3960     044A  2C4C               	goto	u1880
  3961     044B                     u1881:
  3962     044B  2C95               	goto	l1718
  3963     044C                     u1880:
  3964     044C                     l1694:
  3965     044C  085A               	movf	___fladd@bexp,w
  3966     044D  1D03               	btfss	3,2
  3967     044E  2C50               	goto	u1891
  3968     044F  2C51               	goto	u1890
  3969     0450                     u1891:
  3970     0450  2C5A               	goto	l1700
  3971     0451                     u1890:
  3972     0451                     l1696:
  3973     0451  3000               	movlw	0
  3974     0452  00CB               	movwf	?___fladd+3
  3975     0453  3000               	movlw	0
  3976     0454  00CA               	movwf	?___fladd+2
  3977     0455  3000               	movlw	0
  3978     0456  00C9               	movwf	?___fladd+1
  3979     0457  3000               	movlw	0
  3980     0458  00C8               	movwf	?___fladd
  3981     0459  2DC1               	goto	l574
  3982     045A                     l1700:
  3983     045A  084C               	movf	___fladd@a,w
  3984     045B  07C8               	addwf	___fladd@b,f
  3985     045C  084D               	movf	___fladd@a+1,w
  3986     045D  1103               	clrz
  3987     045E  1803               	skipnc
  3988     045F  3E01               	addlw	1
  3989     0460  1903               	skipnz
  3990     0461  2C63               	goto	u1901
  3991     0462  07C9               	addwf	___fladd@b+1,f
  3992     0463                     u1901:
  3993     0463  084E               	movf	___fladd@a+2,w
  3994     0464  1103               	clrz
  3995     0465  1803               	skipnc
  3996     0466  3E01               	addlw	1
  3997     0467  1903               	skipnz
  3998     0468  2C6A               	goto	u1902
  3999     0469  07CA               	addwf	___fladd@b+2,f
  4000     046A                     u1902:
  4001     046A  084F               	movf	___fladd@a+3,w
  4002     046B  1103               	clrz
  4003     046C  1803               	skipnc
  4004     046D  3E01               	addlw	1
  4005     046E  1903               	skipnz
  4006     046F  2C71               	goto	u1903
  4007     0470  07CB               	addwf	___fladd@b+3,f
  4008     0471                     u1903:
  4009     0471                     l1702:
  4010     0471  1C4B               	btfss	___fladd@b+3,0
  4011     0472  2C74               	goto	u1911
  4012     0473  2C75               	goto	u1910
  4013     0474                     u1911:
  4014     0474  2D49               	goto	l1752
  4015     0475                     u1910:
  4016     0475                     l1704:
  4017     0475  1C5B               	btfss	___fladd@grs,0
  4018     0476  2C78               	goto	u1921
  4019     0477  2C79               	goto	u1920
  4020     0478                     u1921:
  4021     0478  2C80               	goto	l1708
  4022     0479                     u1920:
  4023     0479                     l1706:
  4024     0479  085B               	movf	___fladd@grs,w
  4025     047A  00D0               	movwf	??___fladd
  4026     047B  1003               	clrc
  4027     047C  0C50               	rrf	??___fladd,w
  4028     047D  3801               	iorlw	1
  4029     047E  00DB               	movwf	___fladd@grs
  4030     047F  2C82               	goto	l1710
  4031     0480                     l1708:
  4032     0480  1003               	clrc
  4033     0481  0CDB               	rrf	___fladd@grs,f
  4034     0482                     l1710:
  4035     0482  1C48               	btfss	___fladd@b,0
  4036     0483  2C85               	goto	u1931
  4037     0484  2C86               	goto	u1930
  4038     0485                     u1931:
  4039     0485  2C87               	goto	l1714
  4040     0486                     u1930:
  4041     0486                     l1712:
  4042     0486  17DB               	bsf	___fladd@grs,7
  4043     0487                     l1714:
  4044     0487  3001               	movlw	1
  4045     0488  00D0               	movwf	??___fladd
  4046     0489                     u1945:
  4047     0489  0D4B               	rlf	___fladd@b+3,w
  4048     048A  0CCB               	rrf	___fladd@b+3,f
  4049     048B  0CCA               	rrf	___fladd@b+2,f
  4050     048C  0CC9               	rrf	___fladd@b+1,f
  4051     048D  0CC8               	rrf	___fladd@b,f
  4052     048E  0BD0               	decfsz	??___fladd& (0+127),f
  4053     048F  2C89               	goto	u1945
  4054     0490                     l1716:
  4055     0490  3001               	movlw	1
  4056     0491  00D0               	movwf	??___fladd
  4057     0492  0850               	movf	??___fladd,w
  4058     0493  07DA               	addwf	___fladd@bexp,f
  4059     0494  2D49               	goto	l1752
  4060     0495                     l1718:
  4061     0495  084B               	movf	___fladd@b+3,w
  4062     0496  3A80               	xorlw	128
  4063     0497  00FF               	movwf	btemp+1
  4064     0498  084F               	movf	___fladd@a+3,w
  4065     0499  3A80               	xorlw	128
  4066     049A  027F               	subwf	btemp+1,w
  4067     049B  1D03               	skipz
  4068     049C  2CA7               	goto	u1953
  4069     049D  084E               	movf	___fladd@a+2,w
  4070     049E  024A               	subwf	___fladd@b+2,w
  4071     049F  1D03               	skipz
  4072     04A0  2CA7               	goto	u1953
  4073     04A1  084D               	movf	___fladd@a+1,w
  4074     04A2  0249               	subwf	___fladd@b+1,w
  4075     04A3  1D03               	skipz
  4076     04A4  2CA7               	goto	u1953
  4077     04A5  084C               	movf	___fladd@a,w
  4078     04A6  0248               	subwf	___fladd@b,w
  4079     04A7                     u1953:
  4080     04A7  1803               	skipnc
  4081     04A8  2CAA               	goto	u1951
  4082     04A9  2CAB               	goto	u1950
  4083     04AA                     u1951:
  4084     04AA  2D03               	goto	l1728
  4085     04AB                     u1950:
  4086     04AB                     l1720:
  4087     04AB  30FF               	movlw	255
  4088     04AC  00D0               	movwf	??___fladd
  4089     04AD  30FF               	movlw	255
  4090     04AE  00D1               	movwf	??___fladd+1
  4091     04AF  30FF               	movlw	255
  4092     04B0  00D2               	movwf	??___fladd+2
  4093     04B1  30FF               	movlw	255
  4094     04B2  00D3               	movwf	??___fladd+3
  4095     04B3  084C               	movf	___fladd@a,w
  4096     04B4  00D4               	movwf	??___fladd+4
  4097     04B5  084D               	movf	___fladd@a+1,w
  4098     04B6  00D5               	movwf	??___fladd+5
  4099     04B7  084E               	movf	___fladd@a+2,w
  4100     04B8  00D6               	movwf	??___fladd+6
  4101     04B9  084F               	movf	___fladd@a+3,w
  4102     04BA  00D7               	movwf	??___fladd+7
  4103     04BB  0848               	movf	___fladd@b,w
  4104     04BC  02D4               	subwf	??___fladd+4,f
  4105     04BD  0849               	movf	___fladd@b+1,w
  4106     04BE  1C03               	skipc
  4107     04BF  0F49               	incfsz	___fladd@b+1,w
  4108     04C0  2CC2               	goto	u1961
  4109     04C1  2CC3               	goto	u1962
  4110     04C2                     u1961:
  4111     04C2  02D5               	subwf	??___fladd+5,f
  4112     04C3                     u1962:
  4113     04C3  084A               	movf	___fladd@b+2,w
  4114     04C4  1C03               	skipc
  4115     04C5  0F4A               	incfsz	___fladd@b+2,w
  4116     04C6  2CC8               	goto	u1963
  4117     04C7  2CC9               	goto	u1964
  4118     04C8                     u1963:
  4119     04C8  02D6               	subwf	??___fladd+6,f
  4120     04C9                     u1964:
  4121     04C9  084B               	movf	___fladd@b+3,w
  4122     04CA  1C03               	skipc
  4123     04CB  0F4B               	incfsz	___fladd@b+3,w
  4124     04CC  2CCE               	goto	u1965
  4125     04CD  2CCF               	goto	u1966
  4126     04CE                     u1965:
  4127     04CE  02D7               	subwf	??___fladd+7,f
  4128     04CF                     u1966:
  4129     04CF  0854               	movf	??___fladd+4,w
  4130     04D0  07D0               	addwf	??___fladd,f
  4131     04D1  0855               	movf	??___fladd+5,w
  4132     04D2  1803               	skipnc
  4133     04D3  0F55               	incfsz	??___fladd+5,w
  4134     04D4  2CD6               	goto	u1970
  4135     04D5  2CD7               	goto	u1971
  4136     04D6                     u1970:
  4137     04D6  07D1               	addwf	??___fladd+1,f
  4138     04D7                     u1971:
  4139     04D7  0856               	movf	??___fladd+6,w
  4140     04D8  1803               	skipnc
  4141     04D9  0F56               	incfsz	??___fladd+6,w
  4142     04DA  2CDC               	goto	u1972
  4143     04DB  2CDD               	goto	u1973
  4144     04DC                     u1972:
  4145     04DC  07D2               	addwf	??___fladd+2,f
  4146     04DD                     u1973:
  4147     04DD  0857               	movf	??___fladd+7,w
  4148     04DE  1803               	skipnc
  4149     04DF  0A57               	incf	??___fladd+7,w
  4150     04E0  07D3               	addwf	??___fladd+3,f
  4151     04E1  0853               	movf	??___fladd+3,w
  4152     04E2  00CB               	movwf	___fladd@b+3
  4153     04E3  0852               	movf	??___fladd+2,w
  4154     04E4  00CA               	movwf	___fladd@b+2
  4155     04E5  0851               	movf	??___fladd+1,w
  4156     04E6  00C9               	movwf	___fladd@b+1
  4157     04E7  0850               	movf	??___fladd,w
  4158     04E8  00C8               	movwf	___fladd@b
  4159     04E9                     l1722:
  4160     04E9  3080               	movlw	128
  4161     04EA  00D0               	movwf	??___fladd
  4162     04EB  0850               	movf	??___fladd,w
  4163     04EC  06D8               	xorwf	___fladd@signs,f
  4164     04ED  09DB               	comf	___fladd@grs,f
  4165     04EE  0ADB               	incf	___fladd@grs,f
  4166     04EF                     l1724:
  4167     04EF  085B               	movf	___fladd@grs,w
  4168     04F0  1D03               	btfss	3,2
  4169     04F1  2CF3               	goto	u1981
  4170     04F2  2CF4               	goto	u1980
  4171     04F3                     u1981:
  4172     04F3  2D11               	goto	l582
  4173     04F4                     u1980:
  4174     04F4                     l1726:
  4175     04F4  3001               	movlw	1
  4176     04F5  07C8               	addwf	___fladd@b,f
  4177     04F6  3000               	movlw	0
  4178     04F7  1803               	skipnc
  4179     04F8  3001               	movlw	1
  4180     04F9  07C9               	addwf	___fladd@b+1,f
  4181     04FA  3000               	movlw	0
  4182     04FB  1803               	skipnc
  4183     04FC  3001               	movlw	1
  4184     04FD  07CA               	addwf	___fladd@b+2,f
  4185     04FE  3000               	movlw	0
  4186     04FF  1803               	skipnc
  4187     0500  3001               	movlw	1
  4188     0501  07CB               	addwf	___fladd@b+3,f
  4189     0502  2D11               	goto	l582
  4190     0503                     l1728:
  4191     0503  084C               	movf	___fladd@a,w
  4192     0504  02C8               	subwf	___fladd@b,f
  4193     0505  084D               	movf	___fladd@a+1,w
  4194     0506  1C03               	skipc
  4195     0507  0F4D               	incfsz	___fladd@a+1,w
  4196     0508  02C9               	subwf	___fladd@b+1,f
  4197     0509  084E               	movf	___fladd@a+2,w
  4198     050A  1C03               	skipc
  4199     050B  0F4E               	incfsz	___fladd@a+2,w
  4200     050C  02CA               	subwf	___fladd@b+2,f
  4201     050D  084F               	movf	___fladd@a+3,w
  4202     050E  1C03               	skipc
  4203     050F  0F4F               	incfsz	___fladd@a+3,w
  4204     0510  02CB               	subwf	___fladd@b+3,f
  4205     0511                     l582:
  4206     0511  084B               	movf	___fladd@b+3,w
  4207     0512  044A               	iorwf	___fladd@b+2,w
  4208     0513  0449               	iorwf	___fladd@b+1,w
  4209     0514  0448               	iorwf	___fladd@b,w
  4210     0515  1D03               	skipz
  4211     0516  2D18               	goto	u1991
  4212     0517  2D19               	goto	u1990
  4213     0518                     u1991:
  4214     0518  2D45               	goto	l1750
  4215     0519                     u1990:
  4216     0519                     l1730:
  4217     0519  085B               	movf	___fladd@grs,w
  4218     051A  1D03               	btfss	3,2
  4219     051B  2D1D               	goto	u2001
  4220     051C  2D1E               	goto	u2000
  4221     051D                     u2001:
  4222     051D  2D45               	goto	l1750
  4223     051E                     u2000:
  4224     051E                     l1732:
  4225     051E  3000               	movlw	0
  4226     051F  00CB               	movwf	?___fladd+3
  4227     0520  3000               	movlw	0
  4228     0521  00CA               	movwf	?___fladd+2
  4229     0522  3000               	movlw	0
  4230     0523  00C9               	movwf	?___fladd+1
  4231     0524  3000               	movlw	0
  4232     0525  00C8               	movwf	?___fladd
  4233     0526  2DC1               	goto	l574
  4234     0527                     l1736:
  4235     0527  3001               	movlw	1
  4236     0528  00D0               	movwf	??___fladd
  4237     0529                     u2015:
  4238     0529  1003               	clrc
  4239     052A  0DC8               	rlf	___fladd@b,f
  4240     052B  0DC9               	rlf	___fladd@b+1,f
  4241     052C  0DCA               	rlf	___fladd@b+2,f
  4242     052D  0DCB               	rlf	___fladd@b+3,f
  4243     052E  0BD0               	decfsz	??___fladd,f
  4244     052F  2D29               	goto	u2015
  4245     0530                     l1738:
  4246     0530  1FDB               	btfss	___fladd@grs,7
  4247     0531  2D33               	goto	u2021
  4248     0532  2D34               	goto	u2020
  4249     0533                     u2021:
  4250     0533  2D35               	goto	l586
  4251     0534                     u2020:
  4252     0534                     l1740:
  4253     0534  1448               	bsf	___fladd@b,0
  4254     0535                     l586:
  4255     0535  1C5B               	btfss	___fladd@grs,0
  4256     0536  2D38               	goto	u2031
  4257     0537  2D39               	goto	u2030
  4258     0538                     u2031:
  4259     0538  2D3C               	goto	l1744
  4260     0539                     u2030:
  4261     0539                     l1742:
  4262     0539  1403               	setc
  4263     053A  0DDB               	rlf	___fladd@grs,f
  4264     053B  2D3E               	goto	l1746
  4265     053C                     l1744:
  4266     053C  1003               	clrc
  4267     053D  0DDB               	rlf	___fladd@grs,f
  4268     053E                     l1746:
  4269     053E  085A               	movf	___fladd@bexp,w
  4270     053F  1903               	btfsc	3,2
  4271     0540  2D42               	goto	u2041
  4272     0541  2D43               	goto	u2040
  4273     0542                     u2041:
  4274     0542  2D45               	goto	l1750
  4275     0543                     u2040:
  4276     0543                     l1748:
  4277     0543  3001               	movlw	1
  4278     0544  02DA               	subwf	___fladd@bexp,f
  4279     0545                     l1750:
  4280     0545  1FCA               	btfss	___fladd@b+2,7
  4281     0546  2D48               	goto	u2051
  4282     0547  2D49               	goto	u2050
  4283     0548                     u2051:
  4284     0548  2D27               	goto	l1736
  4285     0549                     u2050:
  4286     0549                     l1752:
  4287     0549  01D9               	clrf	___fladd@aexp
  4288     054A                     l1754:
  4289     054A  1FDB               	btfss	___fladd@grs,7
  4290     054B  2D4D               	goto	u2061
  4291     054C  2D4E               	goto	u2060
  4292     054D                     u2061:
  4293     054D  2D5C               	goto	l1762
  4294     054E                     u2060:
  4295     054E                     l1756:
  4296     054E  085B               	movf	___fladd@grs,w
  4297     054F  397F               	andlw	127
  4298     0550  1903               	btfsc	3,2
  4299     0551  2D53               	goto	u2071
  4300     0552  2D54               	goto	u2070
  4301     0553                     u2071:
  4302     0553  2D57               	goto	l592
  4303     0554                     u2070:
  4304     0554                     l1758:
  4305     0554  01D9               	clrf	___fladd@aexp
  4306     0555  0AD9               	incf	___fladd@aexp,f
  4307     0556  2D5C               	goto	l1762
  4308     0557                     l592:
  4309     0557  1C48               	btfss	___fladd@b,0
  4310     0558  2D5A               	goto	u2081
  4311     0559  2D5B               	goto	u2080
  4312     055A                     u2081:
  4313     055A  2D5C               	goto	l1762
  4314     055B                     u2080:
  4315     055B  2D54               	goto	l1758
  4316     055C                     l1762:
  4317     055C  0859               	movf	___fladd@aexp,w
  4318     055D  1903               	btfsc	3,2
  4319     055E  2D60               	goto	u2091
  4320     055F  2D61               	goto	u2090
  4321     0560                     u2091:
  4322     0560  2D95               	goto	l595
  4323     0561                     u2090:
  4324     0561                     l1764:
  4325     0561  3001               	movlw	1
  4326     0562  07C8               	addwf	___fladd@b,f
  4327     0563  3000               	movlw	0
  4328     0564  1803               	skipnc
  4329     0565  3001               	movlw	1
  4330     0566  07C9               	addwf	___fladd@b+1,f
  4331     0567  3000               	movlw	0
  4332     0568  1803               	skipnc
  4333     0569  3001               	movlw	1
  4334     056A  07CA               	addwf	___fladd@b+2,f
  4335     056B  3000               	movlw	0
  4336     056C  1803               	skipnc
  4337     056D  3001               	movlw	1
  4338     056E  07CB               	addwf	___fladd@b+3,f
  4339     056F                     l1766:
  4340     056F  1C4B               	btfss	___fladd@b+3,0
  4341     0570  2D72               	goto	u2101
  4342     0571  2D73               	goto	u2100
  4343     0572                     u2101:
  4344     0572  2D95               	goto	l595
  4345     0573                     u2100:
  4346     0573                     l1768:
  4347     0573  0848               	movf	___fladd@b,w
  4348     0574  00D0               	movwf	??___fladd
  4349     0575  0849               	movf	___fladd@b+1,w
  4350     0576  00D1               	movwf	??___fladd+1
  4351     0577  084A               	movf	___fladd@b+2,w
  4352     0578  00D2               	movwf	??___fladd+2
  4353     0579  084B               	movf	___fladd@b+3,w
  4354     057A  00D3               	movwf	??___fladd+3
  4355     057B  3001               	movlw	1
  4356     057C  00D4               	movwf	??___fladd+4
  4357     057D                     u2115:
  4358     057D  0D53               	rlf	??___fladd+3,w
  4359     057E  0CD3               	rrf	??___fladd+3,f
  4360     057F  0CD2               	rrf	??___fladd+2,f
  4361     0580  0CD1               	rrf	??___fladd+1,f
  4362     0581  0CD0               	rrf	??___fladd,f
  4363     0582                     u2110:
  4364     0582  0BD4               	decfsz	??___fladd+4,f
  4365     0583  2D7D               	goto	u2115
  4366     0584  0853               	movf	??___fladd+3,w
  4367     0585  00CB               	movwf	___fladd@b+3
  4368     0586  0852               	movf	??___fladd+2,w
  4369     0587  00CA               	movwf	___fladd@b+2
  4370     0588  0851               	movf	??___fladd+1,w
  4371     0589  00C9               	movwf	___fladd@b+1
  4372     058A  0850               	movf	??___fladd,w
  4373     058B  00C8               	movwf	___fladd@b
  4374     058C  0A5A               	incf	___fladd@bexp,w
  4375     058D  1903               	btfsc	3,2
  4376     058E  2D90               	goto	u2121
  4377     058F  2D91               	goto	u2120
  4378     0590                     u2121:
  4379     0590  2D95               	goto	l595
  4380     0591                     u2120:
  4381     0591                     l1770:
  4382     0591  3001               	movlw	1
  4383     0592  00D0               	movwf	??___fladd
  4384     0593  0850               	movf	??___fladd,w
  4385     0594  07DA               	addwf	___fladd@bexp,f
  4386     0595                     l595:
  4387     0595  0A5A               	incf	___fladd@bexp,w
  4388     0596  1903               	btfsc	3,2
  4389     0597  2D99               	goto	u2131
  4390     0598  2D9A               	goto	u2130
  4391     0599                     u2131:
  4392     0599  2D9F               	goto	l1774
  4393     059A                     u2130:
  4394     059A                     l1772:
  4395     059A  085A               	movf	___fladd@bexp,w
  4396     059B  1D03               	btfss	3,2
  4397     059C  2D9E               	goto	u2141
  4398     059D  2D9F               	goto	u2140
  4399     059E                     u2141:
  4400     059E  2DAD               	goto	l1780
  4401     059F                     u2140:
  4402     059F                     l1774:
  4403     059F  3000               	movlw	0
  4404     05A0  00CB               	movwf	___fladd@b+3
  4405     05A1  3000               	movlw	0
  4406     05A2  00CA               	movwf	___fladd@b+2
  4407     05A3  3000               	movlw	0
  4408     05A4  00C9               	movwf	___fladd@b+1
  4409     05A5  3000               	movlw	0
  4410     05A6  00C8               	movwf	___fladd@b
  4411     05A7                     l1776:
  4412     05A7  085A               	movf	___fladd@bexp,w
  4413     05A8  1D03               	btfss	3,2
  4414     05A9  2DAB               	goto	u2151
  4415     05AA  2DAC               	goto	u2150
  4416     05AB                     u2151:
  4417     05AB  2DAD               	goto	l1780
  4418     05AC                     u2150:
  4419     05AC                     l1778:
  4420     05AC  01D8               	clrf	___fladd@signs
  4421     05AD                     l1780:
  4422     05AD  1C5A               	btfss	___fladd@bexp,0
  4423     05AE  2DB0               	goto	u2161
  4424     05AF  2DB1               	goto	u2160
  4425     05B0                     u2161:
  4426     05B0  2DB3               	goto	l1784
  4427     05B1                     u2160:
  4428     05B1                     l1782:
  4429     05B1  17CA               	bsf	___fladd@b+2,7
  4430     05B2  2DB7               	goto	l603
  4431     05B3                     l1784:
  4432     05B3  307F               	movlw	127
  4433     05B4  00D0               	movwf	??___fladd
  4434     05B5  0850               	movf	??___fladd,w
  4435     05B6  05CA               	andwf	___fladd@b+2,f
  4436     05B7                     l603:
  4437     05B7  085A               	movf	___fladd@bexp,w
  4438     05B8  00D0               	movwf	??___fladd
  4439     05B9  1003               	clrc
  4440     05BA  0C50               	rrf	??___fladd,w
  4441     05BB  00CB               	movwf	___fladd@b+3
  4442     05BC                     l1786:
  4443     05BC  1FD8               	btfss	___fladd@signs,7
  4444     05BD  2DBF               	goto	u2171
  4445     05BE  2DC0               	goto	u2170
  4446     05BF                     u2171:
  4447     05BF  2DC1               	goto	l604
  4448     05C0                     u2170:
  4449     05C0                     l1788:
  4450     05C0  17CB               	bsf	___fladd@b+3,7
  4451     05C1                     l604:
  4452     05C1                     l574:
  4453     05C1  0008               	return
  4454     05C2                     __end_of___fladd:
  4455                           
  4456                           	psect	text14
  4457     0E22                     __ptext14:	
  4458 ;; *************** function _map *****************
  4459 ;; Defined at:
  4460 ;;		line 241 in file "main.c"
  4461 ;; Parameters:    Size  Location     Type
  4462 ;;  value           1    wreg     unsigned char 
  4463 ;;  inputmin        2   15[BANK0 ] int 
  4464 ;;  inputmax        2   17[BANK0 ] int 
  4465 ;;  outmin          2   19[BANK0 ] int 
  4466 ;;  outmax          2   21[BANK0 ] int 
  4467 ;; Auto vars:     Size  Location     Type
  4468 ;;  value           1   24[BANK0 ] unsigned char 
  4469 ;; Return value:  Size  Location     Type
  4470 ;;                  2   15[BANK0 ] unsigned int 
  4471 ;; Registers used:
  4472 ;;		wreg, status,2, status,0, pclath, cstack
  4473 ;; Tracked objects:
  4474 ;;		On entry : 0/0
  4475 ;;		On exit  : 0/0
  4476 ;;		Unchanged: 0/0
  4477 ;; Data sizes:     COMMON   BANK0   BANK1   BANK3   BANK2
  4478 ;;      Params:         0       8       0       0       0
  4479 ;;      Locals:         0       1       0       0       0
  4480 ;;      Temps:          0       1       0       0       0
  4481 ;;      Totals:         0      10       0       0       0
  4482 ;;Total ram usage:       10 bytes
  4483 ;; Hardware stack levels used: 1
  4484 ;; Hardware stack levels required when called: 3
  4485 ;; This function calls:
  4486 ;;		___awdiv
  4487 ;;		___wmul
  4488 ;; This function is called by:
  4489 ;;		_controlmotores
  4490 ;; This function uses a non-reentrant model
  4491 ;;
  4492                           
  4493     0E22                     _map:	
  4494                           ;psect for function _map
  4495                           
  4496                           
  4497                           ;incstack = 0
  4498                           ; Regs used in _map: [wreg+status,2+status,0+pclath+cstack]
  4499                           ;map@value stored from wreg
  4500     0E22  1283               	bcf	3,5	;RP0=0, select bank0
  4501     0E23  1303               	bcf	3,6	;RP1=0, select bank0
  4502     0E24  00B8               	movwf	map@value
  4503     0E25                     l2280:
  4504                           
  4505                           ;main.c: 242:     return ((value - inputmin)*(outmax-outmin)) / (inputmax-inputmin)+outm
      +                          in;
  4506     0E25  082F               	movf	map@inputmin,w
  4507     0E26  0231               	subwf	map@inputmax,w
  4508     0E27  00A6               	movwf	___awdiv@divisor
  4509     0E28  0830               	movf	map@inputmin+1,w
  4510     0E29  1C03               	skipc
  4511     0E2A  0A30               	incf	map@inputmin+1,w
  4512     0E2B  0232               	subwf	map@inputmax+1,w
  4513     0E2C  00A7               	movwf	___awdiv@divisor+1
  4514     0E2D  0838               	movf	map@value,w
  4515     0E2E  00B7               	movwf	??_map
  4516     0E2F  082F               	movf	map@inputmin,w
  4517     0E30  0237               	subwf	??_map,w
  4518     0E31  00A0               	movwf	___wmul@multiplier
  4519     0E32  0930               	comf	map@inputmin+1,w
  4520     0E33  1803               	skipnc
  4521     0E34  3E01               	addlw	1
  4522     0E35  00A1               	movwf	___wmul@multiplier+1
  4523     0E36  0833               	movf	map@outmin,w
  4524     0E37  0235               	subwf	map@outmax,w
  4525     0E38  00A2               	movwf	___wmul@multiplicand
  4526     0E39  0834               	movf	map@outmin+1,w
  4527     0E3A  1C03               	skipc
  4528     0E3B  0A34               	incf	map@outmin+1,w
  4529     0E3C  0236               	subwf	map@outmax+1,w
  4530     0E3D  00A3               	movwf	___wmul@multiplicand+1
  4531     0E3E  120A  158A  2579  120A  158A  	fcall	___wmul
  4532     0E43  1283               	bcf	3,5	;RP0=0, select bank0
  4533     0E44  1303               	bcf	3,6	;RP1=0, select bank0
  4534     0E45  0821               	movf	?___wmul+1,w
  4535     0E46  00A9               	movwf	___awdiv@dividend+1
  4536     0E47  0820               	movf	?___wmul,w
  4537     0E48  00A8               	movwf	___awdiv@dividend
  4538     0E49  120A  158A  271F  120A  158A  	fcall	___awdiv
  4539     0E4E  1283               	bcf	3,5	;RP0=0, select bank0
  4540     0E4F  1303               	bcf	3,6	;RP1=0, select bank0
  4541     0E50  0833               	movf	map@outmin,w
  4542     0E51  0726               	addwf	?___awdiv,w
  4543     0E52  00AF               	movwf	?_map
  4544     0E53  0834               	movf	map@outmin+1,w
  4545     0E54  1803               	skipnc
  4546     0E55  0A34               	incf	map@outmin+1,w
  4547     0E56  0727               	addwf	?___awdiv+1,w
  4548     0E57  00B0               	movwf	?_map+1
  4549     0E58                     l156:
  4550     0E58  0008               	return
  4551     0E59                     __end_of_map:
  4552                           
  4553                           	psect	text15
  4554     0D79                     __ptext15:	
  4555 ;; *************** function ___wmul *****************
  4556 ;; Defined at:
  4557 ;;		line 15 in file "C:\Program Files\Microchip\xc8\v2.40\pic\sources\c90\common\Umul16.c"
  4558 ;; Parameters:    Size  Location     Type
  4559 ;;  multiplier      2    0[BANK0 ] unsigned int 
  4560 ;;  multiplicand    2    2[BANK0 ] unsigned int 
  4561 ;; Auto vars:     Size  Location     Type
  4562 ;;  product         2    4[BANK0 ] unsigned int 
  4563 ;; Return value:  Size  Location     Type
  4564 ;;                  2    0[BANK0 ] unsigned int 
  4565 ;; Registers used:
  4566 ;;		wreg, status,2, status,0
  4567 ;; Tracked objects:
  4568 ;;		On entry : 0/0
  4569 ;;		On exit  : 0/0
  4570 ;;		Unchanged: 0/0
  4571 ;; Data sizes:     COMMON   BANK0   BANK1   BANK3   BANK2
  4572 ;;      Params:         0       4       0       0       0
  4573 ;;      Locals:         0       2       0       0       0
  4574 ;;      Temps:          0       0       0       0       0
  4575 ;;      Totals:         0       6       0       0       0
  4576 ;;Total ram usage:        6 bytes
  4577 ;; Hardware stack levels used: 1
  4578 ;; Hardware stack levels required when called: 2
  4579 ;; This function calls:
  4580 ;;		Nothing
  4581 ;; This function is called by:
  4582 ;;		_map
  4583 ;; This function uses a non-reentrant model
  4584 ;;
  4585                           
  4586     0D79                     ___wmul:	
  4587                           ;psect for function ___wmul
  4588                           
  4589     0D79                     l2126:	
  4590                           ;incstack = 0
  4591                           ; Regs used in ___wmul: [wreg+status,2+status,0]
  4592                           
  4593     0D79  1283               	bcf	3,5	;RP0=0, select bank0
  4594     0D7A  1303               	bcf	3,6	;RP1=0, select bank0
  4595     0D7B  01A4               	clrf	___wmul@product
  4596     0D7C  01A5               	clrf	___wmul@product+1
  4597     0D7D                     l2128:
  4598     0D7D  1C20               	btfss	___wmul@multiplier,0
  4599     0D7E  2D80               	goto	u2871
  4600     0D7F  2D81               	goto	u2870
  4601     0D80                     u2871:
  4602     0D80  2D87               	goto	l268
  4603     0D81                     u2870:
  4604     0D81                     l2130:
  4605     0D81  0822               	movf	___wmul@multiplicand,w
  4606     0D82  07A4               	addwf	___wmul@product,f
  4607     0D83  1803               	skipnc
  4608     0D84  0AA5               	incf	___wmul@product+1,f
  4609     0D85  0823               	movf	___wmul@multiplicand+1,w
  4610     0D86  07A5               	addwf	___wmul@product+1,f
  4611     0D87                     l268:
  4612     0D87  3001               	movlw	1
  4613     0D88                     u2885:
  4614     0D88  1003               	clrc
  4615     0D89  0DA2               	rlf	___wmul@multiplicand,f
  4616     0D8A  0DA3               	rlf	___wmul@multiplicand+1,f
  4617     0D8B  3EFF               	addlw	-1
  4618     0D8C  1D03               	skipz
  4619     0D8D  2D88               	goto	u2885
  4620     0D8E                     l2132:
  4621     0D8E  3001               	movlw	1
  4622     0D8F                     u2895:
  4623     0D8F  1003               	clrc
  4624     0D90  0CA1               	rrf	___wmul@multiplier+1,f
  4625     0D91  0CA0               	rrf	___wmul@multiplier,f
  4626     0D92  3EFF               	addlw	-1
  4627     0D93  1D03               	skipz
  4628     0D94  2D8F               	goto	u2895
  4629     0D95                     l2134:
  4630     0D95  0820               	movf	___wmul@multiplier,w
  4631     0D96  0421               	iorwf	___wmul@multiplier+1,w
  4632     0D97  1D03               	btfss	3,2
  4633     0D98  2D9A               	goto	u2901
  4634     0D99  2D9B               	goto	u2900
  4635     0D9A                     u2901:
  4636     0D9A  2D7D               	goto	l2128
  4637     0D9B                     u2900:
  4638     0D9B                     l2136:
  4639     0D9B  0825               	movf	___wmul@product+1,w
  4640     0D9C  00A1               	movwf	?___wmul+1
  4641     0D9D  0824               	movf	___wmul@product,w
  4642     0D9E  00A0               	movwf	?___wmul
  4643     0D9F                     l270:
  4644     0D9F  0008               	return
  4645     0DA0                     __end_of___wmul:
  4646                           
  4647                           	psect	text16
  4648     0F1F                     __ptext16:	
  4649 ;; *************** function ___awdiv *****************
  4650 ;; Defined at:
  4651 ;;		line 5 in file "C:\Program Files\Microchip\xc8\v2.40\pic\sources\c90\common\awdiv.c"
  4652 ;; Parameters:    Size  Location     Type
  4653 ;;  divisor         2    6[BANK0 ] int 
  4654 ;;  dividend        2    8[BANK0 ] int 
  4655 ;; Auto vars:     Size  Location     Type
  4656 ;;  quotient        2   13[BANK0 ] int 
  4657 ;;  sign            1   12[BANK0 ] unsigned char 
  4658 ;;  counter         1   11[BANK0 ] unsigned char 
  4659 ;; Return value:  Size  Location     Type
  4660 ;;                  2    6[BANK0 ] int 
  4661 ;; Registers used:
  4662 ;;		wreg, status,2, status,0
  4663 ;; Tracked objects:
  4664 ;;		On entry : 0/0
  4665 ;;		On exit  : 0/0
  4666 ;;		Unchanged: 0/0
  4667 ;; Data sizes:     COMMON   BANK0   BANK1   BANK3   BANK2
  4668 ;;      Params:         0       4       0       0       0
  4669 ;;      Locals:         0       4       0       0       0
  4670 ;;      Temps:          0       1       0       0       0
  4671 ;;      Totals:         0       9       0       0       0
  4672 ;;Total ram usage:        9 bytes
  4673 ;; Hardware stack levels used: 1
  4674 ;; Hardware stack levels required when called: 2
  4675 ;; This function calls:
  4676 ;;		Nothing
  4677 ;; This function is called by:
  4678 ;;		_map
  4679 ;; This function uses a non-reentrant model
  4680 ;;
  4681                           
  4682     0F1F                     ___awdiv:	
  4683                           ;psect for function ___awdiv
  4684                           
  4685     0F1F                     l1516:	
  4686                           ;incstack = 0
  4687                           ; Regs used in ___awdiv: [wreg+status,2+status,0]
  4688                           
  4689     0F1F  1283               	bcf	3,5	;RP0=0, select bank0
  4690     0F20  1303               	bcf	3,6	;RP1=0, select bank0
  4691     0F21  01AC               	clrf	___awdiv@sign
  4692     0F22                     l1518:
  4693     0F22  1FA7               	btfss	___awdiv@divisor+1,7
  4694     0F23  2F25               	goto	u1521
  4695     0F24  2F26               	goto	u1520
  4696     0F25                     u1521:
  4697     0F25  2F2D               	goto	l1524
  4698     0F26                     u1520:
  4699     0F26                     l1520:
  4700     0F26  09A6               	comf	___awdiv@divisor,f
  4701     0F27  09A7               	comf	___awdiv@divisor+1,f
  4702     0F28  0AA6               	incf	___awdiv@divisor,f
  4703     0F29  1903               	skipnz
  4704     0F2A  0AA7               	incf	___awdiv@divisor+1,f
  4705     0F2B                     l1522:
  4706     0F2B  01AC               	clrf	___awdiv@sign
  4707     0F2C  0AAC               	incf	___awdiv@sign,f
  4708     0F2D                     l1524:
  4709     0F2D  1FA9               	btfss	___awdiv@dividend+1,7
  4710     0F2E  2F30               	goto	u1531
  4711     0F2F  2F31               	goto	u1530
  4712     0F30                     u1531:
  4713     0F30  2F3A               	goto	l1530
  4714     0F31                     u1530:
  4715     0F31                     l1526:
  4716     0F31  09A8               	comf	___awdiv@dividend,f
  4717     0F32  09A9               	comf	___awdiv@dividend+1,f
  4718     0F33  0AA8               	incf	___awdiv@dividend,f
  4719     0F34  1903               	skipnz
  4720     0F35  0AA9               	incf	___awdiv@dividend+1,f
  4721     0F36                     l1528:
  4722     0F36  3001               	movlw	1
  4723     0F37  00AA               	movwf	??___awdiv
  4724     0F38  082A               	movf	??___awdiv,w
  4725     0F39  06AC               	xorwf	___awdiv@sign,f
  4726     0F3A                     l1530:
  4727     0F3A  01AD               	clrf	___awdiv@quotient
  4728     0F3B  01AE               	clrf	___awdiv@quotient+1
  4729     0F3C                     l1532:
  4730     0F3C  0826               	movf	___awdiv@divisor,w
  4731     0F3D  0427               	iorwf	___awdiv@divisor+1,w
  4732     0F3E  1903               	btfsc	3,2
  4733     0F3F  2F41               	goto	u1541
  4734     0F40  2F42               	goto	u1540
  4735     0F41                     u1541:
  4736     0F41  2F79               	goto	l1552
  4737     0F42                     u1540:
  4738     0F42                     l1534:
  4739     0F42  01AB               	clrf	___awdiv@counter
  4740     0F43  0AAB               	incf	___awdiv@counter,f
  4741     0F44  2F50               	goto	l1540
  4742     0F45                     l1536:
  4743     0F45  3001               	movlw	1
  4744     0F46                     u1555:
  4745     0F46  1003               	clrc
  4746     0F47  0DA6               	rlf	___awdiv@divisor,f
  4747     0F48  0DA7               	rlf	___awdiv@divisor+1,f
  4748     0F49  3EFF               	addlw	-1
  4749     0F4A  1D03               	skipz
  4750     0F4B  2F46               	goto	u1555
  4751     0F4C                     l1538:
  4752     0F4C  3001               	movlw	1
  4753     0F4D  00AA               	movwf	??___awdiv
  4754     0F4E  082A               	movf	??___awdiv,w
  4755     0F4F  07AB               	addwf	___awdiv@counter,f
  4756     0F50                     l1540:
  4757     0F50  1FA7               	btfss	___awdiv@divisor+1,7
  4758     0F51  2F53               	goto	u1561
  4759     0F52  2F54               	goto	u1560
  4760     0F53                     u1561:
  4761     0F53  2F45               	goto	l1536
  4762     0F54                     u1560:
  4763     0F54                     l1542:
  4764     0F54  3001               	movlw	1
  4765     0F55                     u1575:
  4766     0F55  1003               	clrc
  4767     0F56  0DAD               	rlf	___awdiv@quotient,f
  4768     0F57  0DAE               	rlf	___awdiv@quotient+1,f
  4769     0F58  3EFF               	addlw	-1
  4770     0F59  1D03               	skipz
  4771     0F5A  2F55               	goto	u1575
  4772     0F5B  0827               	movf	___awdiv@divisor+1,w
  4773     0F5C  0229               	subwf	___awdiv@dividend+1,w
  4774     0F5D  1D03               	skipz
  4775     0F5E  2F61               	goto	u1585
  4776     0F5F  0826               	movf	___awdiv@divisor,w
  4777     0F60  0228               	subwf	___awdiv@dividend,w
  4778     0F61                     u1585:
  4779     0F61  1C03               	skipc
  4780     0F62  2F64               	goto	u1581
  4781     0F63  2F65               	goto	u1580
  4782     0F64                     u1581:
  4783     0F64  2F6C               	goto	l1548
  4784     0F65                     u1580:
  4785     0F65                     l1544:
  4786     0F65  0826               	movf	___awdiv@divisor,w
  4787     0F66  02A8               	subwf	___awdiv@dividend,f
  4788     0F67  0827               	movf	___awdiv@divisor+1,w
  4789     0F68  1C03               	skipc
  4790     0F69  03A9               	decf	___awdiv@dividend+1,f
  4791     0F6A  02A9               	subwf	___awdiv@dividend+1,f
  4792     0F6B                     l1546:
  4793     0F6B  142D               	bsf	___awdiv@quotient,0
  4794     0F6C                     l1548:
  4795     0F6C  3001               	movlw	1
  4796     0F6D                     u1595:
  4797     0F6D  1003               	clrc
  4798     0F6E  0CA7               	rrf	___awdiv@divisor+1,f
  4799     0F6F  0CA6               	rrf	___awdiv@divisor,f
  4800     0F70  3EFF               	addlw	-1
  4801     0F71  1D03               	skipz
  4802     0F72  2F6D               	goto	u1595
  4803     0F73                     l1550:
  4804     0F73  3001               	movlw	1
  4805     0F74  02AB               	subwf	___awdiv@counter,f
  4806     0F75  1D03               	btfss	3,2
  4807     0F76  2F78               	goto	u1601
  4808     0F77  2F79               	goto	u1600
  4809     0F78                     u1601:
  4810     0F78  2F54               	goto	l1542
  4811     0F79                     u1600:
  4812     0F79                     l1552:
  4813     0F79  082C               	movf	___awdiv@sign,w
  4814     0F7A  1903               	btfsc	3,2
  4815     0F7B  2F7D               	goto	u1611
  4816     0F7C  2F7E               	goto	u1610
  4817     0F7D                     u1611:
  4818     0F7D  2F83               	goto	l1556
  4819     0F7E                     u1610:
  4820     0F7E                     l1554:
  4821     0F7E  09AD               	comf	___awdiv@quotient,f
  4822     0F7F  09AE               	comf	___awdiv@quotient+1,f
  4823     0F80  0AAD               	incf	___awdiv@quotient,f
  4824     0F81  1903               	skipnz
  4825     0F82  0AAE               	incf	___awdiv@quotient+1,f
  4826     0F83                     l1556:
  4827     0F83  082E               	movf	___awdiv@quotient+1,w
  4828     0F84  00A7               	movwf	?___awdiv+1
  4829     0F85  082D               	movf	___awdiv@quotient,w
  4830     0F86  00A6               	movwf	?___awdiv
  4831     0F87                     l421:
  4832     0F87  0008               	return
  4833     0F88                     __end_of___awdiv:
  4834                           
  4835                           	psect	text17
  4836     0EBB                     __ptext17:	
  4837 ;; *************** function _isr *****************
  4838 ;; Defined at:
  4839 ;;		line 68 in file "main.c"
  4840 ;; Parameters:    Size  Location     Type
  4841 ;;		None
  4842 ;; Auto vars:     Size  Location     Type
  4843 ;;		None
  4844 ;; Return value:  Size  Location     Type
  4845 ;;                  1    wreg      void 
  4846 ;; Registers used:
  4847 ;;		wreg, status,2, status,0, pclath, cstack
  4848 ;; Tracked objects:
  4849 ;;		On entry : 0/0
  4850 ;;		On exit  : 0/0
  4851 ;;		Unchanged: 0/0
  4852 ;; Data sizes:     COMMON   BANK0   BANK1   BANK3   BANK2
  4853 ;;      Params:         0       0       0       0       0
  4854 ;;      Locals:         0       0       0       0       0
  4855 ;;      Temps:          4       0       0       0       0
  4856 ;;      Totals:         4       0       0       0       0
  4857 ;;Total ram usage:        4 bytes
  4858 ;; Hardware stack levels used: 1
  4859 ;; Hardware stack levels required when called: 1
  4860 ;; This function calls:
  4861 ;;		_delay
  4862 ;; This function is called by:
  4863 ;;		Interrupt level 1
  4864 ;; This function uses a non-reentrant model
  4865 ;;
  4866                           
  4867     0EBB                     _isr:	
  4868                           ;psect for function _isr
  4869                           
  4870     0EBB                     i1l2042:
  4871                           
  4872                           ;main.c: 69:     if (INTCONbits.T0IF == 1){
  4873     0EBB  1D0B               	btfss	11,2	;volatile
  4874     0EBC  2EBE               	goto	u275_21
  4875     0EBD  2EBF               	goto	u275_20
  4876     0EBE                     u275_21:
  4877     0EBE  2EE3               	goto	i1l2062
  4878     0EBF                     u275_20:
  4879     0EBF                     i1l2044:
  4880                           
  4881                           ;main.c: 70:         INTCONbits.T0IF = 0;
  4882     0EBF  110B               	bcf	11,2	;volatile
  4883     0EC0                     i1l2046:
  4884                           
  4885                           ;main.c: 71:         TMR0 = 246;
  4886     0EC0  30F6               	movlw	246
  4887     0EC1  1283               	bcf	3,5	;RP0=0, select bank0
  4888     0EC2  1303               	bcf	3,6	;RP1=0, select bank0
  4889     0EC3  0081               	movwf	1	;volatile
  4890     0EC4                     i1l2048:
  4891                           
  4892                           ;main.c: 72:         PORTCbits.RC3 = 1;
  4893     0EC4  1587               	bsf	7,3	;volatile
  4894     0EC5                     i1l2050:
  4895                           
  4896                           ;main.c: 73:         delay(pot);
  4897     0EC5  1683               	bsf	3,5	;RP0=1, select bank1
  4898     0EC6  1303               	bcf	3,6	;RP1=0, select bank1
  4899     0EC7  0825               	movf	(_pot+1)^(0+128),w
  4900     0EC8  00F7               	movwf	delay@micro+1
  4901     0EC9  0824               	movf	_pot^(0+128),w
  4902     0ECA  00F6               	movwf	delay@micro
  4903     0ECB  120A  158A  2515  120A  158A  	fcall	_delay
  4904     0ED0                     i1l2052:
  4905                           
  4906                           ;main.c: 74:         PORTCbits.RC3 = 0;
  4907     0ED0  1283               	bcf	3,5	;RP0=0, select bank0
  4908     0ED1  1303               	bcf	3,6	;RP1=0, select bank0
  4909     0ED2  1187               	bcf	7,3	;volatile
  4910     0ED3                     i1l2054:
  4911                           
  4912                           ;main.c: 75:         PORTCbits.RC0 = 1;
  4913     0ED3  1407               	bsf	7,0	;volatile
  4914     0ED4                     i1l2056:
  4915                           
  4916                           ;main.c: 76:         delay(pot1);
  4917     0ED4  1683               	bsf	3,5	;RP0=1, select bank1
  4918     0ED5  1303               	bcf	3,6	;RP1=0, select bank1
  4919     0ED6  0823               	movf	(_pot1+1)^(0+128),w
  4920     0ED7  00F7               	movwf	delay@micro+1
  4921     0ED8  0822               	movf	_pot1^(0+128),w
  4922     0ED9  00F6               	movwf	delay@micro
  4923     0EDA  120A  158A  2515  120A  158A  	fcall	_delay
  4924     0EDF                     i1l2058:
  4925                           
  4926                           ;main.c: 77:         PORTCbits.RC0 = 0;
  4927     0EDF  1283               	bcf	3,5	;RP0=0, select bank0
  4928     0EE0  1303               	bcf	3,6	;RP1=0, select bank0
  4929     0EE1  1007               	bcf	7,0	;volatile
  4930     0EE2                     i1l2060:
  4931                           
  4932                           ;main.c: 78:         INTCONbits.T0IF = 0;
  4933     0EE2  110B               	bcf	11,2	;volatile
  4934     0EE3                     i1l2062:
  4935                           
  4936                           ;main.c: 81:     if (INTCONbits.RBIF){
  4937     0EE3  1C0B               	btfss	11,0	;volatile
  4938     0EE4  2EE6               	goto	u276_21
  4939     0EE5  2EE7               	goto	u276_20
  4940     0EE6                     u276_21:
  4941     0EE6  2F18               	goto	i1l113
  4942     0EE7                     u276_20:
  4943     0EE7                     i1l2064:
  4944                           
  4945                           ;main.c: 82:     if (PORTBbits.RB0 == 0){
  4946     0EE7  1283               	bcf	3,5	;RP0=0, select bank0
  4947     0EE8  1303               	bcf	3,6	;RP1=0, select bank0
  4948     0EE9  1806               	btfsc	6,0	;volatile
  4949     0EEA  2EEC               	goto	u277_21
  4950     0EEB  2EED               	goto	u277_20
  4951     0EEC                     u277_21:
  4952     0EEC  2F04               	goto	i1l2074
  4953     0EED                     u277_20:
  4954     0EED                     i1l2066:
  4955                           
  4956                           ;main.c: 83:         _delay((unsigned long)((15)*(500000/4000.0)));
  4957     0EED  3003               	movlw	3
  4958     0EEE  00F9               	movwf	??_isr+1
  4959     0EEF  306E               	movlw	110
  4960     0EF0  00F8               	movwf	??_isr
  4961     0EF1                     u351_27:
  4962     0EF1  0BF8               	decfsz	??_isr,f
  4963     0EF2  2EF1               	goto	u351_27
  4964     0EF3  0BF9               	decfsz	??_isr+1,f
  4965     0EF4  2EF1               	goto	u351_27
  4966     0EF5                     i1l2068:
  4967                           
  4968                           ;main.c: 84:         if (PORTBbits.RB0 == 1){
  4969     0EF5  1283               	bcf	3,5	;RP0=0, select bank0
  4970     0EF6  1303               	bcf	3,6	;RP1=0, select bank0
  4971     0EF7  1C06               	btfss	6,0	;volatile
  4972     0EF8  2EFA               	goto	u278_21
  4973     0EF9  2EFB               	goto	u278_20
  4974     0EFA                     u278_21:
  4975     0EFA  2F04               	goto	i1l2074
  4976     0EFB                     u278_20:
  4977     0EFB                     i1l2070:
  4978                           
  4979                           ;main.c: 85:             modo = modo + 1;
  4980     0EFB  0874               	movf	_modo,w
  4981     0EFC  3E01               	addlw	1
  4982     0EFD  00F4               	movwf	_modo
  4983     0EFE  0875               	movf	_modo+1,w
  4984     0EFF  1803               	skipnc
  4985     0F00  3E01               	addlw	1
  4986     0F01  3E00               	addlw	0
  4987     0F02  00F5               	movwf	_modo+1
  4988     0F03                     i1l2072:
  4989                           
  4990                           ;main.c: 86:             INTCONbits.RBIF = 0;
  4991     0F03  100B               	bcf	11,0	;volatile
  4992     0F04                     i1l2074:
  4993                           
  4994                           ;main.c: 89:     if (PORTBbits.RB1 == 0)
  4995     0F04  1886               	btfsc	6,1	;volatile
  4996     0F05  2F07               	goto	u279_21
  4997     0F06  2F08               	goto	u279_20
  4998     0F07                     u279_21:
  4999     0F07  2F18               	goto	i1l113
  5000     0F08                     u279_20:
  5001     0F08                     i1l2076:
  5002                           
  5003                           ;main.c: 90:     {;main.c: 91:         _delay((unsigned long)((15)*(500000/4000.0)));
  5004     0F08  3003               	movlw	3
  5005     0F09  00F9               	movwf	??_isr+1
  5006     0F0A  306E               	movlw	110
  5007     0F0B  00F8               	movwf	??_isr
  5008     0F0C                     u352_27:
  5009     0F0C  0BF8               	decfsz	??_isr,f
  5010     0F0D  2F0C               	goto	u352_27
  5011     0F0E  0BF9               	decfsz	??_isr+1,f
  5012     0F0F  2F0C               	goto	u352_27
  5013     0F10                     i1l2078:
  5014                           
  5015                           ;main.c: 92:         if (PORTBbits.RB1 == 1){
  5016     0F10  1283               	bcf	3,5	;RP0=0, select bank0
  5017     0F11  1303               	bcf	3,6	;RP1=0, select bank0
  5018     0F12  1C86               	btfss	6,1	;volatile
  5019     0F13  2F15               	goto	u280_21
  5020     0F14  2F16               	goto	u280_20
  5021     0F15                     u280_21:
  5022     0F15  2F18               	goto	i1l113
  5023     0F16                     u280_20:
  5024     0F16                     i1l2080:
  5025                           
  5026                           ;main.c: 93:             PORTDbits.RD3 = 1;
  5027     0F16  1588               	bsf	8,3	;volatile
  5028                           
  5029                           ;main.c: 94:             INTCONbits.RBIF = 0;
  5030     0F17  100B               	bcf	11,0	;volatile
  5031     0F18                     i1l113:
  5032     0F18  087B               	movf	??_isr+3,w
  5033     0F19  008A               	movwf	10
  5034     0F1A  0E7A               	swapf	??_isr+2,w
  5035     0F1B  0083               	movwf	3
  5036     0F1C  0EFE               	swapf	btemp,f
  5037     0F1D  0E7E               	swapf	btemp,w
  5038     0F1E  0009               	retfie
  5039     0F1F                     __end_of_isr:
  5040                           
  5041                           	psect	intentry
  5042     0004                     __pintentry:	
  5043                           ;incstack = 0
  5044                           ; Regs used in _isr: [wreg+status,2+status,0+pclath+cstack]
  5045                           
  5046     0004                     interrupt_function:
  5047     007E                     saved_w	set	btemp
  5048     0004  00FE               	movwf	btemp
  5049     0005  0E03               	swapf	3,w
  5050     0006  00FA               	movwf	??_isr+2
  5051     0007  080A               	movf	10,w
  5052     0008  00FB               	movwf	??_isr+3
  5053     0009  120A  158A  2EBB   	ljmp	_isr
  5054                           
  5055                           	psect	text18
  5056     0D15                     __ptext18:	
  5057 ;; *************** function _delay *****************
  5058 ;; Defined at:
  5059 ;;		line 234 in file "main.c"
  5060 ;; Parameters:    Size  Location     Type
  5061 ;;  micro           2    0[COMMON] unsigned int 
  5062 ;; Auto vars:     Size  Location     Type
  5063 ;;		None
  5064 ;; Return value:  Size  Location     Type
  5065 ;;                  1    wreg      void 
  5066 ;; Registers used:
  5067 ;;		wreg, status,2, status,0
  5068 ;; Tracked objects:
  5069 ;;		On entry : 0/0
  5070 ;;		On exit  : 0/0
  5071 ;;		Unchanged: 0/0
  5072 ;; Data sizes:     COMMON   BANK0   BANK1   BANK3   BANK2
  5073 ;;      Params:         2       0       0       0       0
  5074 ;;      Locals:         0       0       0       0       0
  5075 ;;      Temps:          0       0       0       0       0
  5076 ;;      Totals:         2       0       0       0       0
  5077 ;;Total ram usage:        2 bytes
  5078 ;; Hardware stack levels used: 1
  5079 ;; This function calls:
  5080 ;;		Nothing
  5081 ;; This function is called by:
  5082 ;;		_isr
  5083 ;; This function uses a non-reentrant model
  5084 ;;
  5085                           
  5086     0D15                     _delay:	
  5087                           ;psect for function _delay
  5088                           
  5089     0D15                     i1l1986:	
  5090                           ;incstack = 0
  5091                           ; Regs used in _delay: [wreg+status,2+status,0]
  5092                           
  5093                           
  5094                           ;main.c: 235:     while (micro > 0){
  5095     0D15  2D1F               	goto	i1l1990
  5096     0D16                     i1l151:
  5097                           
  5098                           ;main.c: 236:         _delay((unsigned long)((50)*(500000/4000000.0)));
  5099     0D16  2D17               	nop2	;2 cycle nop
  5100     0D17  2D18               	nop2	;2 cycle nop
  5101     0D18  2D19               	nop2	;2 cycle nop
  5102     0D19                     i1l1988:
  5103                           
  5104                           ;main.c: 237:         micro--;
  5105     0D19  3001               	movlw	1
  5106     0D1A  02F6               	subwf	delay@micro,f
  5107     0D1B  3000               	movlw	0
  5108     0D1C  1C03               	skipc
  5109     0D1D  03F7               	decf	delay@micro+1,f
  5110     0D1E  02F7               	subwf	delay@micro+1,f
  5111     0D1F                     i1l1990:
  5112                           
  5113                           ;main.c: 235:     while (micro > 0){
  5114     0D1F  0876               	movf	delay@micro,w
  5115     0D20  0477               	iorwf	delay@micro+1,w
  5116     0D21  1D03               	btfss	3,2
  5117     0D22  2D24               	goto	u270_21
  5118     0D23  2D25               	goto	u270_20
  5119     0D24                     u270_21:
  5120     0D24  2D16               	goto	i1l151
  5121     0D25                     u270_20:
  5122     0D25                     i1l153:
  5123     0D25  0008               	return
  5124     0D26                     __end_of_delay:
  5125     007E                     btemp	set	126	;btemp
  5126     007E                     wtemp0	set	126
  5127                           
  5128                           	psect	idloc
  5129                           
  5130                           ;Config register IDLOC0 @ 0x2000
  5131                           ;	unspecified, using default values
  5132     2000                     	org	8192
  5133     2000  3FFF               	dw	16383
  5134                           
  5135                           ;Config register IDLOC1 @ 0x2001
  5136                           ;	unspecified, using default values
  5137     2001                     	org	8193
  5138     2001  3FFF               	dw	16383
  5139                           
  5140                           ;Config register IDLOC2 @ 0x2002
  5141                           ;	unspecified, using default values
  5142     2002                     	org	8194
  5143     2002  3FFF               	dw	16383
  5144                           
  5145                           ;Config register IDLOC3 @ 0x2003
  5146                           ;	unspecified, using default values
  5147     2003                     	org	8195
  5148     2003  3FFF               	dw	16383
  5149                           
  5150                           	psect	config
  5151                           
  5152                           ;Config register CONFIG1 @ 0x2007
  5153                           ;	Oscillator Selection bits
  5154                           ;	FOSC = INTRC_NOCLKOUT, INTOSCIO oscillator: I/O function on RA6/OSC2/CLKOUT pin, I/O f
      +                          unction on RA7/OSC1/CLKIN
  5155                           ;	Watchdog Timer Enable bit
  5156                           ;	WDTE = OFF, WDT disabled and can be enabled by SWDTEN bit of the WDTCON register
  5157                           ;	Power-up Timer Enable bit
  5158                           ;	PWRTE = OFF, PWRT disabled
  5159                           ;	RE3/MCLR pin function select bit
  5160                           ;	MCLRE = OFF, RE3/MCLR pin function is digital input, MCLR internally tied to VDD
  5161                           ;	Code Protection bit
  5162                           ;	CP = OFF, Program memory code protection is disabled
  5163                           ;	Data Code Protection bit
  5164                           ;	CPD = OFF, Data memory code protection is disabled
  5165                           ;	Brown Out Reset Selection bits
  5166                           ;	BOREN = OFF, BOR disabled
  5167                           ;	Internal External Switchover bit
  5168                           ;	IESO = OFF, Internal/External Switchover mode is disabled
  5169                           ;	Fail-Safe Clock Monitor Enabled bit
  5170                           ;	FCMEN = OFF, Fail-Safe Clock Monitor is disabled
  5171                           ;	Low Voltage Programming Enable bit
  5172                           ;	LVP = OFF, RB3 pin has digital I/O, HV on MCLR must be used for programming
  5173                           ;	In-Circuit Debugger Mode bit
  5174                           ;	DEBUG = 0x1, unprogramme  5175     2007                     	org	8199
  5176     2007  20D4               	dw	8404
  5177                           
  5178                           ;Config register CONFIG2 @ 0x2008
  5179                           ;	Brown-out Reset Selection bit
  5180                           ;	BOR4V = BOR40V, Brown-out Reset set to 4.0V
  5181                           ;	Flash Program Memory Self Write Enable bits
  5182                           ;	WRT = OFF, Write protection off
  5183     2008                     	org	8200
  5184     2008  3FFF               	dw	16383

Data Sizes:
    Strings     0
    Constant    0
    Data        0
    BSS         16
    Persistent  0
    Stack       0

Auto Spaces:
    Space          Size  Autos    Used
    COMMON           14      6      12
    BANK0            80     79      79
    BANK1            80      0      10
    BANK3            96      0       0
    BANK2            96      0       0

Pointer List with Targets:

    None.

Critical Paths under _main in COMMON

    None.

Critical Paths under _isr in COMMON

    _isr->_delay

Critical Paths under _main in BANK0

    _main->_controlmotores
    _controlmotores->_mapeo
    _mapeo->___fltol
    ___fltol->___fladd
    ___flmul->___xxtofl
    ___fladd->___flmul
    _map->___awdiv
    ___awdiv->___wmul

Critical Paths under _isr in BANK0

    None.

Critical Paths under _main in BANK1

    None.

Critical Paths under _isr in BANK1

    None.

Critical Paths under _main in BANK3

    None.

Critical Paths under _isr in BANK3

    None.

Critical Paths under _main in BANK2

    None.

Critical Paths under _isr in BANK2

    None.

Call Graph Tables:

 ---------------------------------------------------------------------------------
 (Depth) Function   	        Calls       Base Space   Used Autos Params    Refs
 ---------------------------------------------------------------------------------
 (0) _main                                                 1     1      0    8089
                                             78 BANK0      1     1      0
                     _controlmotores
                              _setup
                           _setupADC
                        _setupINTOSC
                           _setupPWM
                          _setupPWM2
                          _setupTMR0
 ---------------------------------------------------------------------------------
 (1) _setupTMR0                                            0     0      0       0
 ---------------------------------------------------------------------------------
 (1) _setupPWM2                                            0     0      0       0
 ---------------------------------------------------------------------------------
 (1) _setupPWM                                             1     1      0       0
                                              0 BANK0      1     1      0
 ---------------------------------------------------------------------------------
 (1) _setupINTOSC                                          1     1      0      66
                                              0 BANK0      1     1      0
 ---------------------------------------------------------------------------------
 (1) _setupADC                                             1     1      0       0
                                              0 BANK0      1     1      0
 ---------------------------------------------------------------------------------
 (1) _setup                                                0     0      0       0
 ---------------------------------------------------------------------------------
 (1) _controlmotores                                       3     3      0    8023
                                             75 BANK0      3     3      0
                                _map
                              _mapeo
 ---------------------------------------------------------------------------------
 (2) _mapeo                                                5     5      0    6318
                                             70 BANK0      5     5      0
                            ___fladd
                            ___flmul
                            ___fltol
                           ___xxtofl
 ---------------------------------------------------------------------------------
 (3) ___xxtofl                                            14    10      4     398
                                              0 BANK0     14    10      4
 ---------------------------------------------------------------------------------
 (3) ___fltol                                             10     6      4     305
                                             60 BANK0     10     6      4
                            ___fladd (ARG)
                            ___flmul (ARG)
                           ___xxtofl (ARG)
 ---------------------------------------------------------------------------------
 (3) ___flmul                                             26    18      8    3353
                                             14 BANK0     26    18      8
                          __Umul8_16
                           ___xxtofl (ARG)
 ---------------------------------------------------------------------------------
 (4) __Umul8_16                                            9     7      2     980
                                              0 BANK0      9     7      2
 ---------------------------------------------------------------------------------
 (3) ___fladd                                             20    12      8    2262
                                             40 BANK0     20    12      8
                            ___flmul (ARG)
                           ___xxtofl (ARG)
 ---------------------------------------------------------------------------------
 (2) _map                                                 10     2      8    1705
                                             15 BANK0     10     2      8
                            ___awdiv
                             ___wmul
 ---------------------------------------------------------------------------------
 (3) ___wmul                                               6     2      4     316
                                              0 BANK0      6     2      4
 ---------------------------------------------------------------------------------
 (3) ___awdiv                                              9     5      4     452
                                              6 BANK0      9     5      4
                             ___wmul (ARG)
 ---------------------------------------------------------------------------------
 Estimated maximum stack depth 4
 ---------------------------------------------------------------------------------
 (Depth) Function   	        Calls       Base Space   Used Autos Params    Refs
 ---------------------------------------------------------------------------------
 (5) _isr                                                  4     4      0     175
                                              2 COMMON     4     4      0
                              _delay
 ---------------------------------------------------------------------------------
 (6) _delay                                                2     0      2     175
                                              0 COMMON     2     0      2
 ---------------------------------------------------------------------------------
 Estimated maximum stack depth 6
 ---------------------------------------------------------------------------------

 Call Graph Graphs:

 _main (ROOT)
   _controlmotores
     _map
       ___awdiv
         ___wmul (ARG)
       ___wmul
     _mapeo
       ___fladd
         ___flmul (ARG)
           __Umul8_16
           ___xxtofl (ARG)
         ___xxtofl (ARG)
       ___flmul
       ___fltol
         ___fladd (ARG)
         ___flmul (ARG)
         ___xxtofl (ARG)
       ___xxtofl
   _setup
   _setupADC
   _setupINTOSC
   _setupPWM
   _setupPWM2
   _setupTMR0

 _isr (ROOT)
   _delay

 Address spaces:
Name               Size   Autos  Total    Cost      Usage
BITCOMMON            E      0       0       0        0.0%
EEDATA             100      0       0       0        0.0%
NULL                 0      0       0       0        0.0%
CODE                 0      0       0       0        0.0%
COMMON               E      6       C       1       85.7%
BITSFR0              0      0       0       1        0.0%
SFR0                 0      0       0       1        0.0%
BITSFR1              0      0       0       2        0.0%
SFR1                 0      0       0       2        0.0%
STACK                0      0       0       2        0.0%
ABS                  0      0      65       3        0.0%
BITBANK0            50      0       0       4        0.0%
BITSFR3              0      0       0       4        0.0%
SFR3                 0      0       0       4        0.0%
BANK0               50     4F      4F       5       98.8%
BITSFR2              0      0       0       5        0.0%
SFR2                 0      0       0       5        0.0%
BITBANK1            50      0       0       6        0.0%
BANK1               50      0       A       7       12.5%
BITBANK3            60      0       0       8        0.0%
BANK3               60      0       0       9        0.0%
BITBANK2            60      0       0      10        0.0%
BANK2               60      0       0      11        0.0%
DATA                 0      0      65      12        0.0%


Microchip Technology PIC Macro Assembler V2.40 build 20220703182018 
Symbol Table                                                                                   Tue Nov 15 22:33:04 2022

            map@inputmax 0031              map@inputmin 002F             ___awdiv@sign 002C  
    ___wmul@multiplicand 0022      __Umul8_16@word_mpld 0026                      l132 0E21  
                    l141 0D52                      l135 0D71                      l143 0D56  
                    l144 0D59                      l129 0D3F                      l137 0D75  
                    l170 063D                      l162 05CF                      l138 0D78  
                    l171 0675                      l147 0D14                      l156 0E58  
                    l164 05D3                      l180 0DE3                      l421 0F87  
                    l173 0679                      l165 05FB                      l270 0D9F  
                    l174 06A2                      l182 0DF3                      l159 07FB  
                    l167 05FF                      l168 0639                      l603 05B7  
                    l179 0DD6                      l268 0D87                      l604 05C1  
                    l461 0FEA                      l701 06C7                      l454 0FFF  
                    l703 075C                      l464 0FFF                      l561 03C5  
                    l714 0726                      l715 0732                      l707 070A  
                    l565 0448                      l582 0511                      l574 05C1  
                    l567 0421                      l663 02D9                      l592 0557  
                    l657 0369                      l586 0535                      l595 0595  
                    l676 0DB6                      l669 035D                      l678 0DC8  
                    _PR2 0092                      _map 0E22                      _isr 0EBB  
                    _pot 00A4             ___flmul@aexp 003C             ___flmul@bexp 0041  
           ___flmul@sign 003B             ___flmul@temp 0046             ___flmul@prod 0042  
           ___fltol@exp1 0065                     l2120 0DBF                     l2112 0DA3  
                   l2200 0149                     l2130 0D81                     l2122 0DC4  
                   l2114 0DA5                     l2210 01B6                     l2202 0157  
                   l2132 0D8E                     l2116 0DAC                     l2220 025D  
                   l2212 01D3                     l2204 0174                     l2140 0025  
                   l2300 0D37                     l2134 0D95                     l2126 0D79  
                   l2118 0DB0                     l2230 02A9                     l2222 0285  
                   l2214 01FE                     l2206 0182                     l2150 0038  
                   l2142 002A                     l2302 0D38                     l2310 0DD2  
                   l1520 0F26                     l2136 0D9B                     l2128 0D7D  
                   l1600 0373                     l2240 02BE                     l2232 02AA  
                   l2224 028E                     l2216 020C                     l2208 019F  
                   l2160 0054                     l2152 003D                     l2144 002E  
                   l2400 05F8                     l2304 0D3C                     l2320 0DF7  
                   l2312 0DDD                     l1530 0F3A                     l1522 0F2B  
                   l1610 038A                     l1602 0377                     l2250 02E3  
                   l2242 02C2                     l2234 02B3                     l2226 029C  
                   l2218 0237                     l2170 0067                     l2162 0058  
                   l2154 0045                     l2146 0032                     l2410 0623  
                   l2402 0600                     l2306 0D3E                     l2330 0E06  
                   l2322 0DFA                     l2314 0DEA                     l1540 0F50  
                   l1532 0F3C                     l1524 0F2D                     l1516 0F1F  
                   l1700 045A                     l1620 039E                     l1612 038B  
                   l1604 0378                     l2260 0321                     l2252 02F1  
                   l2244 02D6                     l2228 02A5                     l2236 02B9  
                   l2180 0083                     l2172 006F                     l2164 005C  
                   l2156 0047                     l2148 0033                     l2420 065F  
                   l2412 062A                     l2404 0605                     l2340 0E13  
                   l2332 0E09                     l2324 0DFD                     l2316 0DF0  
                   l2308 0DCC                     l1550 0F73                     l1542 0F54  
                   l1534 0F42                     l1526 0F31                     l1518 0F22  
                   l1710 0482                     l1702 0471                     l1630 03AD  
                   l1622 039F                     l1606 037D                     l1614 038D  
                   l2270 0353                     l2262 032C                     l2254 02F5  
                   l2238 02BD                     l2190 00C2                     l2174 0071  
                   l2166 005D                     l2158 004F                     l2430 069B  
                   l2422 0666                     l2414 0630                     l2406 0610  
                   l2342 0E16                     l2334 0E0C                     l2326 0E00  
                   l2318 0DF4                     l2350 0D5A                     l1544 0F65  
                   l1536 0F45                     l1552 0F79                     l1528 0F36  
                   l2280 0E25                     l1720 04AB                     l1712 0486  
                   l1704 0475                     l1640 03CB                     l1632 03B2  
                   l1624 03A3                     l1616 0395                     l1608 0382  
                   l2272 0357                     l2264 033B                     l2256 030E  
                   l2248 02DE                     l2192 00DE                     l2184 008C  
                   l2176 0079                     l2168 0062                     l1560 0F88  
                   l2424 066C                     l2416 0636                     l2408 0621  
                   l2344 0E17                     l2336 0E0F                     l2328 0E03  
                   l2360 0D70                     l2352 0D5D                     l2440 0E84  
                   l2432 0E59                     l1554 0F7E                     l1546 0F6B  
                   l1538 0F4C                     l1730 0519                     l1722 04E9  
                   l1714 0487                     l1706 0479                     l1650 03D9  
                   l1642 03CF                     l1634 03BA                     l1626 03A7  
                   l1618 0398                     l2274 0358                     l2266 0345  
                   l2258 0314                     l2194 0108                     l2186 009A  
                   l2178 007E                     l1570 0FB0                     l1562 0F93  
                   l2290 07E5                     l2426 0672                     l2418 063E  
                   l2346 0E18                     l2338 0E12                     l2354 0D63  
                   l2370 0D4E                     l2362 0D40                     l2450 0E9A  
                   l2442 0E89                     l2434 0E78                     l1556 0F83  
                   l1548 0F6C                     l1740 0534                     l1732 051E  
                   l1724 04EF                     l1716 0490                     l1708 0480  
                   l1660 03E3                     l1652 03DB                     l1644 03D3  
                   l1636 03BB                     l1628 03A8                     l2276 0361  
                   l2268 0347                     l2196 0124                     l2188 00A7  
                   l1572 0FB8                     l2284 075D                     l2428 067A  
                   l2292 0D26                     l2348 0E1B                     l2356 0D6B  
                   l2372 0D4F                     l2364 0D43                     l2380 0D10  
                   l2452 0E9F                     l2460 0EB1                     l2444 0E8D  
                   l2436 0E7A                     l1742 0539                     l1750 0545  
                   l1726 04F4                     l1718 0495                     l1670 03ED  
                   l1662 03E5                     l1654 03DD                     l1646 03D5  
                   l1638 03BD                     l2198 0140                     l1590 0FDF  
                   l1582 0FC6                     l1574 0FBA                     l1566 0F9C  
                   l2286 0784                     l2390 05D9                     l2382 05C2  
                   l2294 0D32                     l2358 0D6D                     l2374 0D51  
                   l2366 0D45                     l2454 0EA3                     l2438 0E80  
                   l2446 0E90                     l1744 053C                     l1736 0527  
                   l1728 0503                     l1752 0549                     l1680 0425  
                   l1672 03EF                     l1664 03E7                     l1656 03DF  
                   l1648 03D7                     l1592 0FEF                     l1576 0FBE  
                   l1584 0FD8                     l1568 0FAF                     l2288 07DF  
                   l2392 05E3                     l2384 05C6                     l2296 0D33  
                   l2368 0D49                     l2376 0D05                     l2448 0E96  
                   l2456 0EA6                     l1770 0591                     l1762 055C  
                   l1754 054A                     l1746 053E                     l1738 0530  
                   l1690 043C                     l1682 042C                     l1666 03E9  
                   l1658 03E1                     l1674 03F1                     l1594 0FF4  
                   l1930 06A6                     l2394 05E5                     l2386 05CC  
                   l2298 0D36                     l2378 0D0C                     l2458 0EAF  
                   l1780 05AD                     l1772 059A                     l1764 0561  
                   l1756 054E                     l1748 0543                     l1684 042E  
                   l1692 0440                     l1676 03F2                     l1668 03EB  
                   l1596 036A                     l1932 06AB                     l2396 05EC  
                   l2388 05D4                     l1782 05B1                     l1774 059F  
                   l1766 056F                     l1758 0554                     l1694 044C  
                   l1686 0432                     l1678 0409                     l1598 036F  
                   l1950 06F3                     l1942 06D8                     l1934 06AF  
                   l2398 05F2                     l1784 05B3                     l1776 05A7  
                   l1768 0573                     l1696 0451                     l1688 0433  
                   l1960 072A                     l1952 0701                     l1944 06DB  
                   l1936 06BF                     l1786 05BC                     l1778 05AC  
                   l1970 0754                     l1962 0734                     l1954 0711  
                   l1946 06E8                     l1938 06CF                     l1788 05C0  
                   l1964 074A                     l1956 071C                     l1948 06EF  
                   l1966 074F                     l1958 0720                     ?_map 002F  
                   l1968 0753                     _ADIF 0066                     ?_isr 0076  
                   u2000 051E                     u2001 051D                     u2100 0573  
                   u2020 0534                     u2101 0572                     u2021 0533  
                   u2110 0582                     u2030 0539                     u2031 0538  
                   u2015 0529                     u2120 0591                     u2040 0543  
                   u2121 0590                     u2041 0542                     u3001 00EC  
                   u2130 059A                     u2050 0549                     u3002 00F3  
                   u2131 0599                     u2115 057D                     u2051 0548  
                   u3011 0116                     u3003 00FA                     u2140 059F  
                   u2060 054E                     u3100 0243                     u3012 011D  
                   _IOCB 0096                     u2141 059E                     u2061 054D  
                   u3021 0132                     u3013 0124                     u2150 05AC  
                   u2070 0554                     u3022 0139                     u2151 05AB  
                   u2071 0553                     u3111 024F                     u3023 0140  
                   u1600 0F79                     u1520 0F26                     u2160 05B1  
                   u2080 055B                     u3200 02D6                     u3120 026B  
                   u3112 0256                     u1601 0F78                     u1521 0F25  
                   u2161 05B0                     u2081 055A                     u3201 02D5  
                   u3113 025D                     u3105 023E                     u3041 0166  
                   u1610 0F7E                     u1530 0F31                     u2170 05C0  
                   u2090 0561                     u3210 02DD                     u3042 016D  
                   u1611 0F7D                     u1531 0F30                     u2171 05BF  
                   u2091 0560                     u3211 02DC                     u3131 0277  
                   u3051 0191                     u3043 0174                     u3035 0142  
                   u1540 0F42                     u3220 02E3                     u3132 027E  
                   u3052 0198                     u1700 0FEF                     u1620 0F93  
                   u3300 0DDD                     u1541 0F41                     u3221 02E2  
                   u3133 0285                     u3125 0266                     u3053 019F  
                   u1701 0FEE                     u1621 0F92                     u3301 0DDC  
                   u3230 02F5                     u1710 0FF4                     u1630 0FAA  
                   u3310 0DEA                     u3231 02F4                     u3071 01C5  
                   u1711 0FF3                     u3311 0DE9                     u1560 0F54  
                   u1800 03CF                     u1720 0377                     u3240 0304  
                   u3160 02A9                     u3072 01CC                     u1640 0FBE  
                   u3320 0D75                     u3400 0EAF                     u1561 0F53  
                   u1801 03CE                     u1721 0376                     u3161 02A8  
                   u3145 0287                     u3081 01F0                     u3073 01D3  
                   u3065 01A1                     u1641 0FBD                     u3321 0D74  
                   u3401 0EAE                     u1810 0409                     u1730 037D  
                   u3250 0321                     u3082 01F7                     u1650 0FC5  
                   u2610 0710                     u3330 0D56                     u1555 0F46  
                   u1811 0408                     u1731 037C                     u3251 0320  
                   u3155 029E                     u3091 021B                     u3083 01FE  
                   u1651 0FC4                     u1635 0FA5                     u2611 070F  
                   u3331 0D55                     u1580 0F65                     u1820 0414  
                   u1740 0382                     u3260 033B                     u3180 02BD  
                   u3092 0222                     u3340 05D3                     u1581 0F64  
                   u1901 0463                     u1821 0412                     u1741 0381  
                   u3261 033A                     u3245 02FF                     u3181 02BC  
                   u3093 0229                     u2605 0702                     u3341 05D2  
                   u1910 0475                     u1902 046A                     u1830 0415  
                   u1750 039E                     u3270 0357                     u3190 02C2  
                   u1670 0FD7                     u2630 0720                     u2550 06AB  
                   u3350 05FF                     u1575 0F55                     u1911 0474  
                   u1903 0471                     u1815 0405                     u1751 039D  
                   u3271 0356                     u3255 031D                     u3191 02C1  
                   u3175 02AC                     u1671 0FD6                     u2631 071F  
                   u2551 06AA                     u3351 05FE                     u1920 0479  
                   u1840 0425                     u1760 03A7                     u1680 0FDE  
                   u2640 0726                     u2560 06AF                     u3360 063D  
                   u1585 0F61                     u1921 0478                     u1841 0424  
                   u1761 03A6                     u3265 0337                     u1681 0FDD  
                   u1665 0FC7                     u2641 0725                     u2625 0715  
                   u2561 06AE                     u3361 063C                     u3417 0EB5  
                   u1930 0486                     u1850 0432                     u1770 03AD  
                   u2650 072A                     u2570 06CF                     u3370 0679  
                   u3290 0DD2                     u1595 0F6D                     u1931 0485  
                   u1851 0431                     u1771 03AC                     u2651 0729  
                   u2571 06CE                     u3507 069F                     u3371 0678  
                   u3427 0E1F                     u3291 0DD1                     u2900 0D9B  
                   u1780 03B2                     u2660 073F                     u3380 0E80  
                   u2901 0D9A                     u1781 03B1                     u3285 0764  
                   u3437 05CA                     u3381 0E7F                     u1950 04AB  
                   u1870 0448                     u1790 03CB                     u2910 0032  
                   u2670 074F                     u2590 06EE                     u3390 0E96  
                   u1951 04AA                     u1871 0447                     u1791 03CA  
                   u2911 0031                     u1695 0FE1                     u2671 074E  
                   u2591 06ED                     u3447 05E9                     u3391 0E95  
                   u1880 044C                     u2840 0DB0                     u2920 0038  
                   u2680 0753                     u1961 04C2                     u1953 04A7  
                   u1945 0489                     u1881 044B                     u1865 0435  
                   u2841 0DAF                     u2921 0037                     u2681 0752  
                   u2665 073A                     u2585 06E0                     u3457 05F6  
                   u1970 04D6                     u1962 04C3                     u1890 0451  
                   u2930 003D                     u1971 04D7                     u1963 04C8  
                   u1891 0450                     u2931 003C                     u3467 0627  
                   u1980 04F4                     u1972 04DC                     u1964 04C9  
                   u2860 0DC4                     u2940 005C                     u1981 04F3  
                   u1973 04DD                     u1965 04CE                     u2861 0DC3  
                   u2941 005B                     u3477 0634                     u2870 0D81  
                   u1990 0519                     u1966 04CF                     u2950 0062  
                   u2871 0D80                     u1991 0518                     u2855 0DB7  
                   u2951 0061                     u3487 0663                     u2960 0067  
                   u2961 0066                     u3497 0670                     u2970 007E  
                   u2971 007D                     u2980 0083                     u2885 0D88  
                   u2981 0082                     u2895 0D8F                     u2991 00D0  
                   u2992 00D7                     u2993 00DE                     _TMR0 0001  
                   _WPUB 0095                     _main 0E59                     _pot1 00A2  
                   _modo 0074                     btemp 007E                     start 000C  
                  ??_map 0037                    ??_isr 0078            ___fltol@sign1 0064  
        __end_of___fladd 05C2                    ?_main 0076          __end_of___awdiv 0F88  
        __end_of___flmul 036A          __end_of___fltol 1000          ___awdiv@divisor 0026  
                  i1l113 0F18                    i1l151 0D16                    i1l153 0D25  
        ___awdiv@counter 002B                    _PORTA 0005                    _PORTC 0007  
                  _PORTD 0008                    _TRISC 0087                    _TRISD 0088  
                  _delay 0D15                    _mapeo 075D                    _valDC 00A6  
                  _micro 00A0                    _setup 0D26                    pclath 000A  
                  status 0003                    wtemp0 007E          __initialization 000F  
           __end_of_main 0EBB                   ??_main 006E                   ?_delay 0076  
                 ?_mapeo 0076                   _ADRESH 001E                   _ADRESL 009E  
                 _CCPR1L 0015                   _CCPR2L 001B         ___awdiv@dividend 0028  
                 ?_setup 0076                   _ANSELH 0189                   i1l2050 0EC5  
                 i1l2042 0EBB                   i1l2060 0EE2                   i1l2052 0ED0  
                 i1l2044 0EBF                   i1l2070 0EFB                   i1l2054 0ED3  
                 i1l2046 0EC0                   i1l2062 0EE3                   i1l2080 0F16  
                 i1l2072 0F03                   i1l2064 0EE7                   i1l2056 0ED4  
                 i1l2048 0EC4                   i1l2066 0EED                   i1l2074 0F04  
                 i1l2058 0EDF                   i1l2076 0F08                   i1l2068 0EF5  
                 i1l2078 0F10                   i1l1990 0D1F                   i1l1986 0D15  
                 i1l1988 0D19                   u270_20 0D25                   u270_21 0D24  
                 u351_27 0EF1                   u280_20 0F16                   u280_21 0F15  
                 u352_27 0F0C                   u275_20 0EBF                   u275_21 0EBE  
                 u276_20 0EE7                   u276_21 0EE6                   u277_20 0EED  
                 u277_21 0EEC                   u278_20 0EFB                   u278_21 0EFA  
                 u279_20 0F08                   u279_21 0F07                   _TMR2IF 0061  
                 _TMR2ON 0092         __end_of___xxtofl 075D                ??___fladd 0050  
                 ___wmul 0D79                ??___awdiv 002A                ??___flmul 0036  
              ??___fltol 0060                   _valDCH 0070                   _valDCL 0072  
       ___awdiv@quotient 002D             ?_setupINTOSC 0076         __end_of_setupADC 0E22  
       __end_of_setupPWM 0D79                   saved_w 007E           _controlmotores 05C2  
           ___xxtofl@arg 002A             ___xxtofl@exp 0029             ___xxtofl@val 0020  
__end_of__initialization 0021               ___fltol@f1 005C           __pcstackCOMMON 0076  
          __end_of_delay 0D26            __end_of_mapeo 07FC            __end_of_setup 0D40  
         _OPTION_REGbits 0081   __end_of_controlmotores 06A3                  ??_delay 0078  
                ??_mapeo 0066                  ??_setup 0020               __pbssBANK1 00A0  
      __end_of__Umul8_16 0DC9               __pmaintext 0E59                  ?___wmul 0020  
             __pintentry 0004                  _CCP1CON 0017                  _ADC_RES 00A8  
              ?___xxtofl 0020          ?_controlmotores 0076                ?_setupADC 0076  
              ?_setupPWM 0076                  ___fladd 036A                  ___awdiv 0F1F  
                ___flmul 0025                  ___fltol 0F88                _ANSELbits 0188  
                __ptext1 0D05                  __ptext2 0D40                  __ptext3 0D5A  
                __ptext4 0DC9                  __ptext5 0DF4                  __ptext6 0D26  
                __ptext7 05C2                  __ptext8 075D                  __ptext9 06A3  
              _T2CONbits 0012               ??___xxtofl 0024               delay@micro 0076  
   end_of_initialization 0021        __end_of_setupPWM2 0D5A        __end_of_setupTMR0 0D15  
             ??_setupADC 0020               ??_setupPWM 0020                _PORTBbits 0006  
              _PORTCbits 0007                _PORTDbits 0008              ___fladd@grs 005B  
          ___xxtofl@sign 0028                _TRISAbits 0085                _TRISCbits 0087  
            ___flmul@grs 003D              _CCP1CONbits 0017              _CCP2CONbits 001D  
         __end_of___wmul 0DA0      start_initialization 000F              __end_of_map 0E59  
            __end_of_isr 0F1F                 ??___wmul 0024                __Umul8_16 0DA0  
       ??_controlmotores 006B                ___fladd@a 004C                ___fladd@b 0048  
              ___flmul@a 0032                ___flmul@b 002E              __pbssCOMMON 0070  
              ___latbits 0002            __pcstackBANK0 0020          setupINTOSC@IRCF 0020  
               ?___fladd 0048                 ?___awdiv 0026                 ?___flmul 002E  
               ?___fltol 005C               ?__Umul8_16 0020        interrupt_function 0004  
         ___wmul@product 0024                 _PIE1bits 008C                 _PIR1bits 000C  
              _setupTMR0 0D05                _setupPWM2 0D40               _ADCON0bits 001F  
             _ADCON1bits 009F            ??_setupINTOSC 0020        ___wmul@multiplier 0020  
              map@outmax 0035                map@outmin 0033               ?_setupTMR0 0076  
             ?_setupPWM2 0076              ??__Umul8_16 0022                 ___xxtofl 06A3  
               __ptext10 0F88                 __ptext11 0025                 __ptext12 0DA0  
               __ptext13 036A                 __ptext14 0E22                 __ptext15 0D79  
               __ptext16 0F1F                 __ptext17 0EBB                 __ptext18 0D15  
    __end_of_setupINTOSC 0DF4                 _setupADC 0DF4                 _setupPWM 0D5A  
               map@value 0038               _INTCONbits 000B                 intlevel1 0000  
             _OSCCONbits 008F              ??_setupTMR0 0020              ??_setupPWM2 0020  
 __Umul8_16@multiplicand 0020              _setupINTOSC 0DC9            ___fladd@signs 0058  
           ___fladd@aexp 0059             ___fladd@bexp 005A     __Umul8_16@multiplier 0028  
      __Umul8_16@product 0024  
