Microchip MPLAB XC8 Compiler V2.40

Linker command line:

-W-3 \
  --edf=C:\Program Files\Microchip\xc8\v2.40\pic\dat\20220703182018_en.msgs \
  -cn -h+dist/default/production\Proyecto_Garra.production.sym \
  --cmf=dist/default/production\Proyecto_Garra.production.cmf -z -Q16F887 \
  -oC:\Users\Migue\AppData\Local\Temp\xcAs8s0.4 --defsym=__MPLAB_BUILD=1 \
  --fixupoverflow=error \
  -Mdist/default/production/Proyecto_Garra.production.map \
  --md=C:\Users\Migue\AppData\Local\Temp\xcAs8s0.dat -E1 -ver=XC8 Compiler \
  --acfsm=1493 -ACODE=00h-07FFhx4 -ASTRCODE=00h-01FFFh -ASTRING=00h-0FFhx32 \
  -ACONST=00h-0FFhx32 -AENTRY=00h-0FFhx32 -ACOMMON=070h-07Fh \
  -ABANK0=020h-06Fh -ABANK1=0A0h-0EFh -ABANK2=0110h-016Fh \
  -ABANK3=0190h-01EFh -ARAM=020h-06Fh,0A0h-0EFh,0110h-016Fh,0190h-01EFh \
  -AABS1=020h-07Fh,0A0h-0EFh,0110h-016Fh,0190h-01EFh -ASFR0=00h-01Fh \
  -ASFR1=080h-09Fh -ASFR2=0100h-010Fh -ASFR3=0180h-018Fh \
  -ACONFIG=02007h-02008h -DCONFIG=2 -AIDLOC=02000h-02003h -DIDLOC=2 \
  -AEEDATA=00h-0FFh/02100h -peeprom_data=EEDATA -DEEDATA=2 -DCODE=2 \
  -DSTRCODE=2 -DSTRING=2 -DCONST=2 -DENTRY=2 \
  -preset_vec=00h,intentry=04h,init,end_init -ppowerup=CODE -pcinit=CODE \
  -pfunctab=ENTRY -k C:\Users\Migue\AppData\Local\Temp\xcAs8s0.o \
  dist/default/production\Proyecto_Garra.production.o 

Object code version is 3.11

Machine type is 16F887



                Name                               Link     Load   Length Selector   Space Scale
C:\Users\Migue\AppData\Local\Temp\xcAs8s0.o
                end_init                              C        C        3        8       0
                reset_vec                             0        0        3        0       0
                config                             2007     2007        2        0       4
                idloc                              2000     2000        4        0       5
dist/default/production\Proyecto_Garra.production.o
                cinit                                 F        F       19        8       0
                intentry                              4        4        8        8       0
                config                             2007     2007        2        0       4
                idloc                              2000     2000        4        0       5
                text23                              7EE      7EE       11        8       0
                text22                              D33      D33       7B     1A66       0
                text21                              E43      E43       D2     1C86       0
                text20                              C52      C52       69     18A4       0
                text19                              AD1      AD1       27     15A2       0
                text18                              BC8      BC8       37     1790       0
                text17                              36D      36D      258        8       0
                text16                              B46      B46       29     168C       0
                text15                               28       28      345        8       0
                text14                              CBB      CBB       78     1976       0
                text13                              734      734       BA        8       0
                text12                              DAE      DAE       95     1B5C       0
                text11                              F15      F15       EB     1E2A       0
                text10                              A67      A67       16     14CE       0
                text9                               A7D      A7D       17     14FA       0
                text8                               A94      A94       1B     1528       0
                text7                               B9B      B9B       2D     1736       0
                text6                               AF8      AF8       27     15F0       0
                text5                               B1F      B1F       27     163E       0
                text4                               AAF      AAF       22     155E       0
                text3                               A57      A57       10     14AE       0
                text2                               BFF      BFF       53     17FE       0
                text1                               B6F      B6F       2C     16DE       0
                maintext                            5C5      5C5      16F        8       0
                cstackBANK0                          20       20       49       20       1
                cstackCOMMON                         70       70        6       70       1
                cstackBANK1                          C4       C4        7       A0       1
                clrtext                             A4F      A4F        8     149E       0
                bssBANK1                             A0       A0       24       A0       1
                bssBANK0                             69       69        6       20       1
                bssCOMMON                            76       76        4       70       1

TOTAL           Name                               Link     Load   Length     Space
        CLASS   CODE           
                end_init                              C        C        3         0
                cinit                                 F        F       19         0
                intentry                              4        4        8         0
                reset_vec                             0        0        3         0
                text23                              7EE      7EE       11         0
                text22                              D33      D33       7B         0
                text21                              E43      E43       D2         0
                text20                              C52      C52       69         0
                text19                              AD1      AD1       27         0
                text18                              BC8      BC8       37         0
                text17                              36D      36D      258         0
                text16                              B46      B46       29         0
                text15                               28       28      345         0
                text14                              CBB      CBB       78         0
                text13                              734      734       BA         0
                text12                              DAE      DAE       95         0
                text11                              F15      F15       EB         0
                text10                              A67      A67       16         0
                text9                               A7D      A7D       17         0
                text8                               A94      A94       1B         0
                text7                               B9B      B9B       2D         0
                text6                               AF8      AF8       27         0
                text5                               B1F      B1F       27         0
                text4                               AAF      AAF       22         0
                text3                               A57      A57       10         0
                text2                               BFF      BFF       53         0
                text1                               B6F      B6F       2C         0
                maintext                            5C5      5C5      16F         0
                clrtext                             A4F      A4F        8         0

        CLASS   STRCODE        

        CLASS   STRING         

        CLASS   CONST          

        CLASS   ENTRY          

        CLASS   COMMON         
                cstackCOMMON                         70       70        6         1
                bssCOMMON                            76       76        4         1

        CLASS   BANK0          
                cstackBANK0                          20       20       49         1
                bssBANK0                             69       69        6         1

        CLASS   BANK1          
                cstackBANK1                          C4       C4        7         1
                bssBANK1                             A0       A0       24         1

        CLASS   BANK2          

        CLASS   BANK3          

        CLASS   RAM            

        CLASS   ABS1           
                abs_s1                               7E       7E        2         1

        CLASS   SFR0           

        CLASS   SFR1           

        CLASS   SFR2           

        CLASS   SFR3           

        CLASS   CONFIG         
                config                             2007     2007        2         4

        CLASS   IDLOC          
                idloc                              2000     2000        4         5

        CLASS   EEDATA         

        CLASS   STACK          



SEGMENTS        Name                           Load    Length   Top    Selector   Space  Class     Delta

                reset_vec                      000000  000003  000003         0       0  CODE        2
                intentry                       000004  0007FB  0007FF         8       0  CODE        2
                cstackBANK0                    000020  00004F  00006F        20       1  BANK0       1
                cstackCOMMON                   000070  00000A  00007A        70       1  COMMON      1
                bssBANK1                       0000A0  00002B  0000CB        A0       1  BANK1       1
                clrtext                        000A4F  000008  000A57      149E       0  CODE        2
                text3                          000A57  000010  000A67      14AE       0  CODE        2
                text10                         000A67  000016  000A7D      14CE       0  CODE        2
                text9                          000A7D  000017  000A94      14FA       0  CODE        2
                text8                          000A94  00001B  000AAF      1528       0  CODE        2
                text4                          000AAF  000022  000AD1      155E       0  CODE        2
                text19                         000AD1  000027  000AF8      15A2       0  CODE        2
                text6                          000AF8  000027  000B1F      15F0       0  CODE        2
                text5                          000B1F  000027  000B46      163E       0  CODE        2
                text16                         000B46  000029  000B6F      168C       0  CODE        2
                text1                          000B6F  00002C  000B9B      16DE       0  CODE        2
                text7                          000B9B  00002D  000BC8      1736       0  CODE        2
                text18                         000BC8  000037  000BFF      1790       0  CODE        2
                text2                          000BFF  000053  000C52      17FE       0  CODE        2
                text20                         000C52  000069  000CBB      18A4       0  CODE        2
                text14                         000CBB  000078  000D33      1976       0  CODE        2
                text22                         000D33  00007B  000DAE      1A66       0  CODE        2
                text12                         000DAE  000095  000E43      1B5C       0  CODE        2
                text21                         000E43  0000D2  000F15      1C86       0  CODE        2
                text11                         000F15  0000EB  001000      1E2A       0  CODE        2


UNUSED ADDRESS RANGES

        Name                Unused          Largest block    Delta
        BANK0            006F-006F              1           1
        BANK1            00CB-00EF             25           1
        BANK2            0110-016F             60           1
        BANK3            0190-01EF             60           1
        CODE             0003-0003              1           2
                         07FF-0A4E              1
                         1000-1FFF            800
        COMMON           007A-007D              4           1
        CONST            0003-0003              1           2
                         07FF-0A4E            100
                         1000-1FFF            100
        EEDATA           2100-21FF            100           2
        ENTRY            0003-0003              1           2
                         07FF-0A4E            100
                         1000-1FFF            100
        RAM              006F-006F              1           1
                         00CB-00EF             25
                         0110-016F             60
                         0190-01EF             60
        SFR0             0000-001F             20           1
        SFR1             0080-009F             20           1
        SFR2             0100-010F             10           1
        SFR3             0180-018F             10           1
        STRCODE          0003-0003              1           2
                         07FF-0A4E            250
                         1000-1FFF           1000
        STRING           0003-0003              1           2
                         07FF-0A4E            100
                         1000-1FFF            100

                                  Symbol Table

?__Umul8_16              cstackCOMMON 0074
?___awdiv                cstackBANK0  0024
?___fladd                cstackBANK0  0048
?___flmul                cstackBANK0  002E
?___fltol                cstackBANK0  005C
?___wmul                 cstackBANK0  0020
?___xxtofl               cstackBANK0  0020
?_map                    cstackBANK0  002D
_ADCON0bits              (abs)        001F
_ADCON1bits              (abs)        009F
_ADC_RES                 bssBANK1     00C2
_ADIF                    (abs)        0066
_ADRESH                  (abs)        001E
_ADRESL                  (abs)        009E
_ANSELH                  (abs)        0189
_ANSELbits               (abs)        0188
_BAUDCTLbits             (abs)        0187
_CCP1CON                 (abs)        0017
_CCP1CONbits             (abs)        0017
_CCP2CONbits             (abs)        001D
_CCPR1L                  (abs)        0015
_CCPR2L                  (abs)        001B
_EEADR                   (abs)        010D
_EECON1bits              (abs)        018C
_EECON2                  (abs)        018D
_EEDAT                   (abs)        010C
_GIE                     (abs)        005F
_INTCONbits              (abs)        000B
_IOCB                    (abs)        0096
_OPTION_REGbits          (abs)        0081
_OSCCONbits              (abs)        008F
_PIE1bits                (abs)        008C
_PIR1bits                (abs)        000C
_PORTA                   (abs)        0005
_PORTBbits               (abs)        0006
_PORTC                   (abs)        0007
_PORTCbits               (abs)        0007
_PORTD                   (abs)        0008
_PORTDbits               (abs)        0008
_PR2                     (abs)        0092
_RCREG                   (abs)        001A
_RCSTAbits               (abs)        0018
_RD                      (abs)        0C60
_SPBRG                   (abs)        0099
_T2CONbits               (abs)        0012
_TMR0                    (abs)        0001
_TMR2IF                  (abs)        0061
_TMR2ON                  (abs)        0092
_TRISAbits               (abs)        0085
_TRISC                   (abs)        0087
_TRISCbits               (abs)        0087
_TRISD                   (abs)        0088
_TXREG                   (abs)        0019
_TXSTAbits               (abs)        0098
_WPUB                    (abs)        0095
_WR                      (abs)        0C61
__Habs1                  abs1         0000
__Hbank0                 bank0        0000
__Hbank1                 bank1        0000
__Hbank2                 bank2        0000
__Hbank3                 bank3        0000
__HbssBANK0              bssBANK0     0000
__HbssBANK1              bssBANK1     0000
__HbssCOMMON             bssCOMMON    0000
__Hcinit                 cinit        0028
__Hclrtext               clrtext      0000
__Hcode                  code         0000
__Hcommon                common       0000
__Hconfig                config       2009
__HcstackBANK0           cstackBANK0  0000
__HcstackBANK1           cstackBANK1  0000
__HcstackCOMMON          cstackCOMMON 0000
__Heeprom_data           eeprom_data  0000
__Hend_init              end_init     000F
__Hfunctab               functab      0000
__Hidloc                 idloc        2004
__Hinit                  init         000C
__Hintentry              intentry     000C
__Hmaintext              maintext     0000
__Hpowerup               powerup      0000
__Hram                   ram          0000
__Hreset_vec             reset_vec    0003
__Hsfr0                  sfr0         0000
__Hsfr1                  sfr1         0000
__Hsfr2                  sfr2         0000
__Hsfr3                  sfr3         0000
__Hspace_0               (abs)        1000
__Hspace_1               (abs)        00CB
__Hspace_2               (abs)        0000
__Hspace_3               (abs)        0000
__Hspace_4               (abs)        4010
__Hstack                 stack        0000
__Hstrings               strings      0000
__Htext                  text         0000
__Labs1                  abs1         0000
__Lbank0                 bank0        0000
__Lbank1                 bank1        0000
__Lbank2                 bank2        0000
__Lbank3                 bank3        0000
__LbssBANK0              bssBANK0     0000
__LbssBANK1              bssBANK1     0000
__LbssCOMMON             bssCOMMON    0000
__Lcinit                 cinit        000F
__Lclrtext               clrtext      0000
__Lcode                  code         0000
__Lcommon                common       0000
__Lconfig                config       0000
__LcstackBANK0           cstackBANK0  0000
__LcstackBANK1           cstackBANK1  0000
__LcstackCOMMON          cstackCOMMON 0000
__Leeprom_data           eeprom_data  0000
__Lend_init              end_init     000C
__Lfunctab               functab      0000
__Lidloc                 idloc        0000
__Linit                  init         000C
__Lintentry              intentry     0004
__Lmaintext              maintext     0000
__Lpowerup               powerup      0000
__Lram                   ram          0000
__Lreset_vec             reset_vec    0000
__Lsfr0                  sfr0         0000
__Lsfr1                  sfr1         0000
__Lsfr2                  sfr2         0000
__Lsfr3                  sfr3         0000
__Lspace_0               (abs)        0000
__Lspace_1               (abs)        0000
__Lspace_2               (abs)        0000
__Lspace_3               (abs)        0000
__Lspace_4               (abs)        0000
__Lstack                 stack        0000
__Lstrings               strings      0000
__Ltext                  text         0000
__S0                     (abs)        1000
__S1                     (abs)        00CB
__S3                     (abs)        0000
__Umul8_16               text16       0B46
__Umul8_16@multiplicand  cstackCOMMON 0074
__Umul8_16@multiplier    cstackBANK0  0026
__Umul8_16@product       cstackBANK0  0022
__Umul8_16@word_mpld     cstackBANK0  0024
___awdiv                 text20       0C52
___awdiv@counter         cstackBANK0  0029
___awdiv@dividend        cstackBANK0  0026
___awdiv@divisor         cstackBANK0  0024
___awdiv@quotient        cstackBANK0  002B
___awdiv@sign            cstackBANK0  002A
___fladd                 text17       036D
___fladd@a               cstackBANK0  004C
___fladd@aexp            cstackBANK0  0059
___fladd@b               cstackBANK0  0048
___fladd@bexp            cstackBANK0  005A
___fladd@grs             cstackBANK0  005B
___fladd@signs           cstackBANK0  0058
___flmul                 text15       0028
___flmul@a               cstackBANK0  0032
___flmul@aexp            cstackBANK0  003C
___flmul@b               cstackBANK0  002E
___flmul@bexp            cstackBANK0  0041
___flmul@grs             cstackBANK0  003D
___flmul@prod            cstackBANK0  0042
___flmul@sign            cstackBANK0  003B
___flmul@temp            cstackBANK0  0046
___fltol                 text14       0CBB
___fltol@exp1            cstackBANK0  0065
___fltol@f1              cstackBANK0  005C
___fltol@sign1           cstackBANK0  0064
___int_sp                stack        0000
___latbits               (abs)        0002
___sp                    stack        0000
___stackhi               (abs)        0000
___stacklo               (abs)        0000
___wmul                  text19       0AD1
___wmul@multiplicand     cstackBANK0  0022
___wmul@multiplier       cstackBANK0  0020
___wmul@product          cstackCOMMON 0074
___xxtofl                text13       0734
___xxtofl@arg            cstackBANK0  002A
___xxtofl@exp            cstackBANK0  0029
___xxtofl@sign           cstackBANK0  0028
___xxtofl@val            cstackBANK0  0020
__end_of__Umul8_16       text16       0B6F
__end_of___awdiv         text20       0CBB
__end_of___fladd         text17       05C5
__end_of___flmul         text15       036D
__end_of___fltol         text14       0D33
__end_of___wmul          text19       0AF8
__end_of___xxtofl        text13       07EE
__end_of__initialization cinit        0024
__end_of_adamodo         text21       0F15
__end_of_controlmotores  text11       1000
__end_of_delay           text23       07FF
__end_of_initUART        text10       0A7D
__end_of_isr             text22       0DAE
__end_of_main            maintext     0734
__end_of_map             text18       0BFF
__end_of_mapeo           text12       0E43
__end_of_readEEPROM      text9        0A94
__end_of_setup           text8        0AAF
__end_of_setupADC        text7        0BC8
__end_of_setupINTOSC     text6        0B1F
__end_of_setupPWM        text5        0B46
__end_of_setupPWM2       text4        0AD1
__end_of_setupTMR0       text3        0A67
__end_of_verifpos        text2        0C52
__end_of_writeEEPROM     text1        0B9B
__initialization         cinit        000F
__pbssBANK0              bssBANK0     0069
__pbssBANK1              bssBANK1     00A0
__pbssCOMMON             bssCOMMON    0076
__pcstackBANK0           cstackBANK0  0020
__pcstackBANK1           cstackBANK1  00C4
__pcstackCOMMON          cstackCOMMON 0070
__pintentry              intentry     0004
__pmaintext              maintext     05C5
__ptext1                 text1        0B6F
__ptext10                text10       0A67
__ptext11                text11       0F15
__ptext12                text12       0DAE
__ptext13                text13       0734
__ptext14                text14       0CBB
__ptext15                text15       0028
__ptext16                text16       0B46
__ptext17                text17       036D
__ptext18                text18       0BC8
__ptext19                text19       0AD1
__ptext2                 text2        0BFF
__ptext20                text20       0C52
__ptext21                text21       0E43
__ptext22                text22       0D33
__ptext23                text23       07EE
__ptext3                 text3        0A57
__ptext4                 text4        0AAF
__ptext5                 text5        0B1F
__ptext6                 text6        0AF8
__ptext7                 text7        0B9B
__ptext8                 text8        0A94
__ptext9                 text9        0A7D
_adamodo                 text21       0E43
_controlmotores          text11       0F15
_delay                   text23       07EE
_initUART                text10       0A67
_isr                     text22       0D33
_loc                     bssBANK0     0069
_main                    maintext     05C5
_map                     text18       0BC8
_mapeo                   text12       0DAE
_modo                    bssCOMMON    0078
_position                bssCOMMON    0076
_pot                     bssBANK0     006D
_pot1                    bssBANK0     006B
_readEEPROM              text9        0A7D
_setup                   text8        0A94
_setupADC                text7        0B9B
_setupINTOSC             text6        0AF8
_setupPWM                text5        0B1F
_setupPWM2               text4        0AAF
_setupTMR0               text3        0A57
_valDC                   bssBANK1     00BB
_valDCH                  bssBANK1     00B7
_valDCL                  bssBANK1     00B9
_valorpot1               bssBANK1     00C1
_verifpos                text2        0BFF
_writeEEPROM             text1        0B6F
_writeread               bssBANK1     00B3
btemp                    (abs)        007E
clear_ram0               clrtext      0A4F
delay@micro              cstackCOMMON 0070
end_of_initialization    cinit        0024
interrupt_function       intentry     0004
intlevel0                functab      0000
intlevel1                functab      0000
intlevel2                functab      0000
intlevel3                functab      0000
intlevel4                functab      0000
intlevel5                functab      0000
map@inputmax             cstackBANK0  002F
map@inputmin             cstackBANK0  002D
map@outmax               cstackBANK0  0033
map@outmin               cstackBANK0  0031
map@value                cstackBANK0  0036
readEEPROM@address       cstackCOMMON 0074
reset_vec                reset_vec    0000
saved_w                  (abs)        007E
setupINTOSC@IRCF         cstackCOMMON 0074
start                    init         000C
start_initialization     cinit        000F
writeEEPROM@address      cstackBANK0  0020
writeEEPROM@data         cstackCOMMON 0074
writeEEPROM@gieStatus    cstackBANK0  0021
wtemp0                   (abs)        007E


MODULE INFORMATION

Module		Function		Class		Link	Load	Size
C:\Program Files\Microchip\xc8\v2.40\pic\sources\c90\common\fltol.c
		___fltol       		CODE           	0CBB	0000	120

C:\Program Files\Microchip\xc8\v2.40\pic\sources\c90\common\fltol.c estimated size: 120

C:\Program Files\Microchip\xc8\v2.40\pic\sources\c90\common\awdiv.c
		___awdiv       		CODE           	0C52	0000	105

C:\Program Files\Microchip\xc8\v2.40\pic\sources\c90\common\awdiv.c estimated size: 105

C:\Program Files\Microchip\xc8\v2.40\pic\sources\c90\common\sprcmul.c
		___flmul       		CODE           	0028	0000	837

C:\Program Files\Microchip\xc8\v2.40\pic\sources\c90\common\sprcmul.c estimated size: 837

C:\Program Files\Microchip\xc8\v2.40\pic\sources\c90\common\Umul8_16.c
		__Umul8_16     		CODE           	0B46	0000	41

C:\Program Files\Microchip\xc8\v2.40\pic\sources\c90\common\Umul8_16.c estimated size: 41

oscilador.c
		_setupINTOSC   		CODE           	0AF8	0000	39

oscilador.c estimated size: 39

C:\Program Files\Microchip\xc8\v2.40\pic\sources\c90\common\Umul16.c
		___wmul        		CODE           	0AD1	0000	39

C:\Program Files\Microchip\xc8\v2.40\pic\sources\c90\common\Umul16.c estimated size: 39

shared
		__initialization		CODE           	000F	0000	21

shared estimated size: 21

C:\Program Files\Microchip\xc8\v2.40\pic\sources\c90\common\sprcadd.c
		___fladd       		CODE           	036D	0000	600

C:\Program Files\Microchip\xc8\v2.40\pic\sources\c90\common\sprcadd.c estimated size: 600

main.c
		_delay         		CODE           	07EE	0000	17
		_map           		CODE           	0BC8	0000	55
		_setupPWM      		CODE           	0B1F	0000	39
		_setupPWM2     		CODE           	0AAF	0000	34
		_main          		CODE           	05C5	0000	367
		_initUART      		CODE           	0A67	0000	22
		_isr           		CODE           	0D33	0000	123
		_controlmotores		CODE           	0F15	0000	235
		_adamodo       		CODE           	0E43	0000	210
		_setupTMR0     		CODE           	0A57	0000	16
		_setup         		CODE           	0A94	0000	27
		_verifpos      		CODE           	0BFF	0000	83
		_readEEPROM    		CODE           	0A7D	0000	23
		_writeEEPROM   		CODE           	0B6F	0000	44
		_mapeo         		CODE           	0DAE	0000	149
		_setupADC      		CODE           	0B9B	0000	45

main.c estimated size: 1489

C:\Program Files\Microchip\xc8\v2.40\pic\sources\c90\common\xxtofl.c
		___xxtofl      		CODE           	0734	0000	186

C:\Program Files\Microchip\xc8\v2.40\pic\sources\c90\common\xxtofl.c estimated size: 186

