

Microchip MPLAB XC8 Assembler V2.40 build 20220703182018 
                                                                                               Fri Nov 18 09:28:20 2022

Microchip MPLAB XC8 C Compiler v2.40 (Free license) build 20220703182018 Og1 
     1                           	processor	16F887
     2                           	pagewidth 120
     3                           	opt	flic
     4                           	psect	cinit,global,class=CODE,merge=1,delta=2
     5                           	psect	bssCOMMON,global,class=COMMON,space=1,delta=1,noexec
     6                           	psect	bssBANK0,global,class=BANK0,space=1,delta=1,noexec
     7                           	psect	bssBANK1,global,class=BANK1,space=1,delta=1,noexec
     8                           	psect	clrtext,global,class=CODE,delta=2
     9                           	psect	cstackBANK1,global,class=BANK1,space=1,delta=1,noexec
    10                           	psect	cstackCOMMON,global,class=COMMON,space=1,delta=1,noexec
    11                           	psect	cstackBANK0,global,class=BANK0,space=1,delta=1,noexec
    12                           	psect	maintext,global,class=CODE,split=1,delta=2
    13                           	psect	text1,local,class=CODE,merge=1,delta=2
    14                           	psect	text2,local,class=CODE,merge=1,delta=2
    15                           	psect	text3,local,class=CODE,merge=1,delta=2
    16                           	psect	text4,local,class=CODE,merge=1,delta=2
    17                           	psect	text5,local,class=CODE,merge=1,delta=2
    18                           	psect	text6,local,class=CODE,merge=1,delta=2
    19                           	psect	text7,local,class=CODE,merge=1,delta=2
    20                           	psect	text8,local,class=CODE,merge=1,delta=2
    21                           	psect	text9,local,class=CODE,merge=1,delta=2
    22                           	psect	text10,local,class=CODE,merge=1,delta=2
    23                           	psect	text11,local,class=CODE,merge=1,delta=2
    24                           	psect	text12,local,class=CODE,merge=1,delta=2
    25                           	psect	text13,local,class=CODE,merge=1,delta=2,group=1
    26                           	psect	text14,local,class=CODE,merge=1,delta=2,group=1
    27                           	psect	text15,local,class=CODE,merge=1,delta=2,group=1
    28                           	psect	text16,local,class=CODE,merge=1,delta=2,group=1
    29                           	psect	text17,local,class=CODE,merge=1,delta=2,group=1
    30                           	psect	text18,local,class=CODE,merge=1,delta=2
    31                           	psect	text19,local,class=CODE,merge=1,delta=2,group=1
    32                           	psect	text20,local,class=CODE,merge=1,delta=2,group=1
    33                           	psect	text21,local,class=CODE,merge=1,delta=2
    34                           	psect	text22,local,class=CODE,merge=1,delta=2
    35                           	psect	intentry,global,class=CODE,delta=2
    36                           	psect	text23,local,class=CODE,merge=1,delta=2
    37                           	psect	idloc,global,abs,ovrld,class=IDLOC,space=5,delta=2,noexec
    38                           	psect	config,global,abs,ovrld,class=CONFIG,space=4,delta=2,noexec
    39                           	dabs	1,0x7E,2
    40     0000                     
    41                           ; Version 2.40
    42                           ; Generated 17/11/2021 GMT
    43                           ; 
    44                           ; Copyright © 2021, Microchip Technology Inc. and its subsidiaries ("Microchip")
    45                           ; All rights reserved.
    46                           ; 
    47                           ; This software is developed by Microchip Technology Inc. and its subsidiaries ("Microch
      +                          ip").
    48                           ; 
    49                           ; Redistribution and use in source and binary forms, with or without modification, are
    50                           ; permitted provided that the following conditions are met:
    51                           ; 
    52                           ;     1. Redistributions of source code must retain the above copyright notice, this lis
      +                          t of
    53                           ;        conditions and the following disclaimer.
    54                           ; 
    55                           ;     2. Redistributions in binary form must reproduce the above copyright notice, this 
      +                          list
    56                           ;        of conditions and the following disclaimer in the documentation and/or other
    57                           ;        materials provided with the distribution. Publication is not required when
    58                           ;        this file is used in an embedded application.
    59                           ; 
    60                           ;     3. Microchip's name may not be used to endorse or promote products derived from th
      +                          is
    61                           ;        software without specific prior written permission.
    62                           ; 
    63                           ; THIS SOFTWARE IS PROVIDED BY MICROCHIP "AS IS" AND ANY EXPRESS OR IMPLIED WARRANTIES,
    64                           ; INCLUDING, BUT NOT LIMITED TO, THE IMPLIED WARRANTIES OF MERCHANTABILITY AND FITNESS F
      +                          OR
    65                           ; PURPOSE ARE DISCLAIMED.  IN NO EVENT SHALL MICROCHIP BE LIABLE FOR ANY DIRECT, INDIREC
      +                          T,
    66                           ; INCIDENTAL, SPECIAL, EXEMPLARY, OR CONSEQUENTIAL DAMAGES (INCLUDING BUT NOT LIMITED TO
    67                           ; PROCUREMENT OF SUBSTITUTE GOODS OR SERVICES; LOSS OF USE, DATA OR PROFITS; OR BUSINESS
    68                           ; INTERRUPTION) HOWSOEVER CAUSED AND ON ANY THEORY OF LIABILITY, WHETHER IN CONTRACT, ST
      +                          RICT
    69                           ; LIABILITY, OR TORT (INCLUDING NEGLIGENCE OR OTHERWISE) ARISING IN ANY WAY OUT OF THE U
      +                          SE OF
    70                           ; THIS SOFTWARE, EVEN IF ADVISED OF THE POSSIBILITY OF SUCH DAMAGE.
    71                           ; 
    72                           ; 
    73                           ; Code-generator required, PIC16F887 Definitions
    74                           ; 
    75                           ; SFR Addresses
    76     0000                     	;# 
    77     0001                     	;# 
    78     0002                     	;# 
    79     0003                     	;# 
    80     0004                     	;# 
    81     0005                     	;# 
    82     0006                     	;# 
    83     0007                     	;# 
    84     0008                     	;# 
    85     0009                     	;# 
    86     000A                     	;# 
    87     000B                     	;# 
    88     000C                     	;# 
    89     000D                     	;# 
    90     000E                     	;# 
    91     000E                     	;# 
    92     000F                     	;# 
    93     0010                     	;# 
    94     0011                     	;# 
    95     0012                     	;# 
    96     0013                     	;# 
    97     0014                     	;# 
    98     0015                     	;# 
    99     0015                     	;# 
   100     0016                     	;# 
   101     0017                     	;# 
   102     0018                     	;# 
   103     0019                     	;# 
   104     001A                     	;# 
   105     001B                     	;# 
   106     001B                     	;# 
   107     001C                     	;# 
   108     001D                     	;# 
   109     001E                     	;# 
   110     001F                     	;# 
   111     0081                     	;# 
   112     0085                     	;# 
   113     0086                     	;# 
   114     0087                     	;# 
   115     0088                     	;# 
   116     0089                     	;# 
   117     008C                     	;# 
   118     008D                     	;# 
   119     008E                     	;# 
   120     008F                     	;# 
   121     0090                     	;# 
   122     0091                     	;# 
   123     0092                     	;# 
   124     0093                     	;# 
   125     0093                     	;# 
   126     0093                     	;# 
   127     0094                     	;# 
   128     0095                     	;# 
   129     0096                     	;# 
   130     0097                     	;# 
   131     0098                     	;# 
   132     0099                     	;# 
   133     009A                     	;# 
   134     009B                     	;# 
   135     009C                     	;# 
   136     009D                     	;# 
   137     009E                     	;# 
   138     009F                     	;# 
   139     0105                     	;# 
   140     0107                     	;# 
   141     0108                     	;# 
   142     0109                     	;# 
   143     010C                     	;# 
   144     010C                     	;# 
   145     010D                     	;# 
   146     010E                     	;# 
   147     010F                     	;# 
   148     0185                     	;# 
   149     0187                     	;# 
   150     0188                     	;# 
   151     0189                     	;# 
   152     018C                     	;# 
   153     018D                     	;# 
   154     0000                     	;# 
   155     0001                     	;# 
   156     0002                     	;# 
   157     0003                     	;# 
   158     0004                     	;# 
   159     0005                     	;# 
   160     0006                     	;# 
   161     0007                     	;# 
   162     0008                     	;# 
   163     0009                     	;# 
   164     000A                     	;# 
   165     000B                     	;# 
   166     000C                     	;# 
   167     000D                     	;# 
   168     000E                     	;# 
   169     000E                     	;# 
   170     000F                     	;# 
   171     0010                     	;# 
   172     0011                     	;# 
   173     0012                     	;# 
   174     0013                     	;# 
   175     0014                     	;# 
   176     0015                     	;# 
   177     0015                     	;# 
   178     0016                     	;# 
   179     0017                     	;# 
   180     0018                     	;# 
   181     0019                     	;# 
   182     001A                     	;# 
   183     001B                     	;# 
   184     001B                     	;# 
   185     001C                     	;# 
   186     001D                     	;# 
   187     001E                     	;# 
   188     001F                     	;# 
   189     0081                     	;# 
   190     0085                     	;# 
   191     0086                     	;# 
   192     0087                     	;# 
   193     0088                     	;# 
   194     0089                     	;# 
   195     008C                     	;# 
   196     008D                     	;# 
   197     008E                     	;# 
   198     008F                     	;# 
   199     0090                     	;# 
   200     0091                     	;# 
   201     0092                     	;# 
   202     0093                     	;# 
   203     0093                     	;# 
   204     0093                     	;# 
   205     0094                     	;# 
   206     0095                     	;# 
   207     0096                     	;# 
   208     0097                     	;# 
   209     0098                     	;# 
   210     0099                     	;# 
   211     009A                     	;# 
   212     009B                     	;# 
   213     009C                     	;# 
   214     009D                     	;# 
   215     009E                     	;# 
   216     009F                     	;# 
   217     0105                     	;# 
   218     0107                     	;# 
   219     0108                     	;# 
   220     0109                     	;# 
   221     010C                     	;# 
   222     010C                     	;# 
   223     010D                     	;# 
   224     010E                     	;# 
   225     010F                     	;# 
   226     0185                     	;# 
   227     0187                     	;# 
   228     0188                     	;# 
   229     0189                     	;# 
   230     018C                     	;# 
   231     018D                     	;# 
   232     0000                     	;# 
   233     0001                     	;# 
   234     0002                     	;# 
   235     0003                     	;# 
   236     0004                     	;# 
   237     0005                     	;# 
   238     0006                     	;# 
   239     0007                     	;# 
   240     0008                     	;# 
   241     0009                     	;# 
   242     000A                     	;# 
   243     000B                     	;# 
   244     000C                     	;# 
   245     000D                     	;# 
   246     000E                     	;# 
   247     000E                     	;# 
   248     000F                     	;# 
   249     0010                     	;# 
   250     0011                     	;# 
   251     0012                     	;# 
   252     0013                     	;# 
   253     0014                     	;# 
   254     0015                     	;# 
   255     0015                     	;# 
   256     0016                     	;# 
   257     0017                     	;# 
   258     0018                     	;# 
   259     0019                     	;# 
   260     001A                     	;# 
   261     001B                     	;# 
   262     001B                     	;# 
   263     001C                     	;# 
   264     001D                     	;# 
   265     001E                     	;# 
   266     001F                     	;# 
   267     0081                     	;# 
   268     0085                     	;# 
   269     0086                     	;# 
   270     0087                     	;# 
   271     0088                     	;# 
   272     0089                     	;# 
   273     008C                     	;# 
   274     008D                     	;# 
   275     008E                     	;# 
   276     008F                     	;# 
   277     0090                     	;# 
   278     0091                     	;# 
   279     0092                     	;# 
   280     0093                     	;# 
   281     0093                     	;# 
   282     0093                     	;# 
   283     0094                     	;# 
   284     0095                     	;# 
   285     0096                     	;# 
   286     0097                     	;# 
   287     0098                     	;# 
   288     0099                     	;# 
   289     009A                     	;# 
   290     009B                     	;# 
   291     009C                     	;# 
   292     009D                     	;# 
   293     009E                     	;# 
   294     009F                     	;# 
   295     0105                     	;# 
   296     0107                     	;# 
   297     0108                     	;# 
   298     0109                     	;# 
   299     010C                     	;# 
   300     010C                     	;# 
   301     010D                     	;# 
   302     010E                     	;# 
   303     010F                     	;# 
   304     0185                     	;# 
   305     0187                     	;# 
   306     0188                     	;# 
   307     0189                     	;# 
   308     018C                     	;# 
   309     018D                     	;# 
   310     001A                     _RCREG	set	26
   311     0019                     _TXREG	set	25
   312     0018                     _RCSTAbits	set	24
   313     0008                     _PORTDbits	set	8
   314     001E                     _ADRESH	set	30
   315     001D                     _CCP2CONbits	set	29
   316     0012                     _T2CONbits	set	18
   317     0017                     _CCP1CONbits	set	23
   318     0017                     _CCP1CON	set	23
   319     001F                     _ADCON0bits	set	31
   320     000C                     _PIR1bits	set	12
   321     0008                     _PORTD	set	8
   322     0007                     _PORTC	set	7
   323     0005                     _PORTA	set	5
   324     001B                     _CCPR2L	set	27
   325     0015                     _CCPR1L	set	21
   326     0006                     _PORTBbits	set	6
   327     0007                     _PORTCbits	set	7
   328     0001                     _TMR0	set	1
   329     000B                     _INTCONbits	set	11
   330     005F                     _GIE	set	95
   331     0066                     _ADIF	set	102
   332     0092                     _TMR2ON	set	146
   333     0061                     _TMR2IF	set	97
   334     008F                     _OSCCONbits	set	143
   335     0098                     _TXSTAbits	set	152
   336     0099                     _SPBRG	set	153
   337     009E                     _ADRESL	set	158
   338     0092                     _PR2	set	146
   339     0087                     _TRISCbits	set	135
   340     009F                     _ADCON1bits	set	159
   341     0085                     _TRISAbits	set	133
   342     0081                     _OPTION_REGbits	set	129
   343     0095                     _WPUB	set	149
   344     0096                     _IOCB	set	150
   345     008C                     _PIE1bits	set	140
   346     0087                     _TRISC	set	135
   347     0088                     _TRISD	set	136
   348     010C                     _EEDAT	set	268
   349     010D                     _EEADR	set	269
   350     0187                     _BAUDCTLbits	set	391
   351     018D                     _EECON2	set	397
   352     018C                     _EECON1bits	set	396
   353     0188                     _ANSELbits	set	392
   354     0189                     _ANSELH	set	393
   355     0C60                     _RD	set	3168
   356     0C61                     _WR	set	3169
   357                           
   358                           	psect	cinit
   359     000F                     start_initialization:	
   360                           ; #config settings
   361                           
   362     000F                     __initialization:
   363                           
   364                           ; Clear objects allocated to COMMON
   365     000F  01F6               	clrf	__pbssCOMMON& (0+127)
   366     0010  01F7               	clrf	(__pbssCOMMON+1)& (0+127)
   367     0011  01F8               	clrf	(__pbssCOMMON+2)& (0+127)
   368     0012  01F9               	clrf	(__pbssCOMMON+3)& (0+127)
   369                           
   370                           ; Clear objects allocated to BANK0
   371     0013  1283               	bcf	3,5	;RP0=0, select bank0
   372     0014  1303               	bcf	3,6	;RP1=0, select bank0
   373     0015  01E9               	clrf	__pbssBANK0& (0+127)
   374     0016  01EA               	clrf	(__pbssBANK0+1)& (0+127)
   375     0017  01EB               	clrf	(__pbssBANK0+2)& (0+127)
   376     0018  01EC               	clrf	(__pbssBANK0+3)& (0+127)
   377     0019  01ED               	clrf	(__pbssBANK0+4)& (0+127)
   378     001A  01EE               	clrf	(__pbssBANK0+5)& (0+127)
   379                           
   380                           ; Clear objects allocated to BANK1
   381     001B  1383               	bcf	3,7	;select IRP bank0
   382     001C  30A0               	movlw	low __pbssBANK1
   383     001D  0084               	movwf	4
   384     001E  30C4               	movlw	low (__pbssBANK1+36)
   385     001F  120A  158A  224F  120A  118A  	fcall	clear_ram0
   386     0024                     end_of_initialization:	
   387                           ;End of C runtime variable initialization code
   388                           
   389     0024                     __end_of__initialization:
   390     0024  0183               	clrf	3
   391     0025  120A  118A  2DC5   	ljmp	_main	;jump to C main() function
   392                           
   393                           	psect	bssCOMMON
   394     0076                     __pbssCOMMON:
   395     0076                     _position:
   396     0076                     	ds	2
   397     0078                     _modo:
   398     0078                     	ds	2
   399                           
   400                           	psect	bssBANK0
   401     0069                     __pbssBANK0:
   402     0069                     _loc:
   403     0069                     	ds	2
   404     006B                     _pot1:
   405     006B                     	ds	2
   406     006D                     _pot:
   407     006D                     	ds	2
   408                           
   409                           	psect	bssBANK1
   410     00A0                     __pbssBANK1:
   411     00A0                     _buffer:
   412     00A0                     	ds	17
   413     00B1                     _i:
   414     00B1                     	ds	2
   415     00B3                     _writeread:
   416     00B3                     	ds	2
   417     00B5                     _micro:
   418     00B5                     	ds	2
   419     00B7                     _valDCH:
   420     00B7                     	ds	2
   421     00B9                     _valDCL:
   422     00B9                     	ds	2
   423     00BB                     _valDC:
   424     00BB                     	ds	2
   425     00BD                     _data:
   426     00BD                     	ds	1
   427     00BE                     _cont_sleep:
   428     00BE                     	ds	1
   429     00BF                     _cont:
   430     00BF                     	ds	1
   431     00C0                     _address:
   432     00C0                     	ds	1
   433     00C1                     _valorpot1:
   434     00C1                     	ds	1
   435     00C2                     _ADC_RES:
   436     00C2                     	ds	2
   437                           
   438                           	psect	clrtext
   439     0A4F                     clear_ram0:	
   440                           ;	Called with FSR containing the base address, and
   441                           ;	W with the last address+1
   442                           
   443     0A4F  0064               	clrwdt	;clear the watchdog before getting into this loop
   444     0A50                     clrloop0:
   445     0A50  0180               	clrf	0	;clear RAM location pointed to by FSR
   446     0A51  0A84               	incf	4,f	;increment pointer
   447     0A52  0604               	xorwf	4,w	;XOR with final address
   448     0A53  1903               	btfsc	3,2	;have we reached the end yet?
   449     0A54  3400               	retlw	0	;all done for this memory range, return
   450     0A55  0604               	xorwf	4,w	;XOR again to restore value
   451     0A56  2A50               	goto	clrloop0	;do the next byte
   452                           
   453                           	psect	cstackBANK1
   454     00C4                     __pcstackBANK1:
   455     00C4                     ??_mapeo:
   456                           
   457                           ; 1 bytes @ 0x0
   458     00C4                     	ds	5
   459     00C9                     ??_main:
   460                           
   461                           ; 1 bytes @ 0x5
   462     00C9                     	ds	2
   463                           
   464                           	psect	cstackCOMMON
   465     0070                     __pcstackCOMMON:
   466     0070                     ?_delay:
   467     0070                     ?_setup:	
   468                           ; 1 bytes @ 0x0
   469                           
   470     0070                     ?_setupINTOSC:	
   471                           ; 1 bytes @ 0x0
   472                           
   473     0070                     ?_initUART:	
   474                           ; 1 bytes @ 0x0
   475                           
   476     0070                     ?_setupADC:	
   477                           ; 1 bytes @ 0x0
   478                           
   479     0070                     ?_setupPWM:	
   480                           ; 1 bytes @ 0x0
   481                           
   482     0070                     ?_setupPWM2:	
   483                           ; 1 bytes @ 0x0
   484                           
   485     0070                     ?_setupTMR0:	
   486                           ; 1 bytes @ 0x0
   487                           
   488     0070                     ?_controlmotores:	
   489                           ; 1 bytes @ 0x0
   490                           
   491     0070                     ?_verifpos:	
   492                           ; 1 bytes @ 0x0
   493                           
   494     0070                     ?_adamodo:	
   495                           ; 1 bytes @ 0x0
   496                           
   497     0070                     ?_readEEPROM:	
   498                           ; 1 bytes @ 0x0
   499                           
   500     0070                     ?_isr:	
   501                           ; 1 bytes @ 0x0
   502                           
   503     0070                     ?_main:	
   504                           ; 1 bytes @ 0x0
   505                           
   506     0070                     ?_mapeo:	
   507                           ; 1 bytes @ 0x0
   508                           
   509     0070                     delay@micro:	
   510                           ; 1 bytes @ 0x0
   511                           
   512                           
   513                           ; 2 bytes @ 0x0
   514     0070                     	ds	2
   515     0072                     ??_delay:
   516     0072                     ??_isr:	
   517                           ; 1 bytes @ 0x2
   518                           
   519                           
   520                           ; 1 bytes @ 0x2
   521     0072                     	ds	2
   522     0074                     ??_setup:
   523     0074                     ??_setupINTOSC:	
   524                           ; 1 bytes @ 0x4
   525                           
   526     0074                     ??_initUART:	
   527                           ; 1 bytes @ 0x4
   528                           
   529     0074                     ??_setupADC:	
   530                           ; 1 bytes @ 0x4
   531                           
   532     0074                     ??_setupPWM:	
   533                           ; 1 bytes @ 0x4
   534                           
   535     0074                     ??_setupPWM2:	
   536                           ; 1 bytes @ 0x4
   537                           
   538     0074                     ??_setupTMR0:	
   539                           ; 1 bytes @ 0x4
   540                           
   541     0074                     ??_verifpos:	
   542                           ; 1 bytes @ 0x4
   543                           
   544     0074                     ??_adamodo:	
   545                           ; 1 bytes @ 0x4
   546                           
   547     0074                     ?_writeEEPROM:	
   548                           ; 1 bytes @ 0x4
   549                           
   550     0074                     ??_readEEPROM:	
   551                           ; 1 bytes @ 0x4
   552                           
   553     0074                     ??___wmul:	
   554                           ; 1 bytes @ 0x4
   555                           
   556     0074                     ?__Umul8_16:	
   557                           ; 1 bytes @ 0x4
   558                           
   559     0074                     readEEPROM@address:	
   560                           ; 2 bytes @ 0x4
   561                           
   562     0074                     writeEEPROM@data:	
   563                           ; 1 bytes @ 0x4
   564                           
   565     0074                     setupINTOSC@IRCF:	
   566                           ; 1 bytes @ 0x4
   567                           
   568     0074                     __Umul8_16@multiplicand:	
   569                           ; 1 bytes @ 0x4
   570                           
   571     0074                     ___wmul@product:	
   572                           ; 1 bytes @ 0x4
   573                           
   574                           
   575                           ; 2 bytes @ 0x4
   576     0074                     	ds	1
   577     0075                     ??_writeEEPROM:
   578                           
   579                           ; 1 bytes @ 0x5
   580     0075                     	ds	1
   581                           
   582                           	psect	cstackBANK0
   583     0020                     __pcstackBANK0:
   584     0020                     ??__Umul8_16:
   585     0020                     ?___wmul:	
   586                           ; 1 bytes @ 0x0
   587                           
   588     0020                     ?___xxtofl:	
   589                           ; 2 bytes @ 0x0
   590                           
   591     0020                     writeEEPROM@address:	
   592                           ; 4 bytes @ 0x0
   593                           
   594     0020                     ___wmul@multiplier:	
   595                           ; 1 bytes @ 0x0
   596                           
   597     0020                     ___xxtofl@val:	
   598                           ; 2 bytes @ 0x0
   599                           
   600                           
   601                           ; 4 bytes @ 0x0
   602     0020                     	ds	1
   603     0021                     writeEEPROM@gieStatus:
   604                           
   605                           ; 1 bytes @ 0x1
   606     0021                     	ds	1
   607     0022                     ___wmul@multiplicand:
   608     0022                     __Umul8_16@product:	
   609                           ; 2 bytes @ 0x2
   610                           
   611                           
   612                           ; 2 bytes @ 0x2
   613     0022                     	ds	2
   614     0024                     ??___xxtofl:
   615     0024                     ?___awdiv:	
   616                           ; 1 bytes @ 0x4
   617                           
   618     0024                     ___awdiv@divisor:	
   619                           ; 2 bytes @ 0x4
   620                           
   621     0024                     __Umul8_16@word_mpld:	
   622                           ; 2 bytes @ 0x4
   623                           
   624                           
   625                           ; 2 bytes @ 0x4
   626     0024                     	ds	2
   627     0026                     __Umul8_16@multiplier:
   628     0026                     ___awdiv@dividend:	
   629                           ; 1 bytes @ 0x6
   630                           
   631                           
   632                           ; 2 bytes @ 0x6
   633     0026                     	ds	2
   634     0028                     ??___awdiv:
   635     0028                     ___xxtofl@sign:	
   636                           ; 1 bytes @ 0x8
   637                           
   638                           
   639                           ; 1 bytes @ 0x8
   640     0028                     	ds	1
   641     0029                     ___awdiv@counter:
   642     0029                     ___xxtofl@exp:	
   643                           ; 1 bytes @ 0x9
   644                           
   645                           
   646                           ; 1 bytes @ 0x9
   647     0029                     	ds	1
   648     002A                     ___awdiv@sign:
   649     002A                     ___xxtofl@arg:	
   650                           ; 1 bytes @ 0xA
   651                           
   652                           
   653                           ; 4 bytes @ 0xA
   654     002A                     	ds	1
   655     002B                     ___awdiv@quotient:
   656                           
   657                           ; 2 bytes @ 0xB
   658     002B                     	ds	2
   659     002D                     ?_map:
   660     002D                     map@inputmin:	
   661                           ; 2 bytes @ 0xD
   662                           
   663                           
   664                           ; 2 bytes @ 0xD
   665     002D                     	ds	1
   666     002E                     ?___flmul:
   667     002E                     ___flmul@b:	
   668                           ; 4 bytes @ 0xE
   669                           
   670                           
   671                           ; 4 bytes @ 0xE
   672     002E                     	ds	1
   673     002F                     map@inputmax:
   674                           
   675                           ; 2 bytes @ 0xF
   676     002F                     	ds	2
   677     0031                     map@outmin:
   678                           
   679                           ; 2 bytes @ 0x11
   680     0031                     	ds	1
   681     0032                     ___flmul@a:
   682                           
   683                           ; 4 bytes @ 0x12
   684     0032                     	ds	1
   685     0033                     map@outmax:
   686                           
   687                           ; 2 bytes @ 0x13
   688     0033                     	ds	2
   689     0035                     ??_map:
   690                           
   691                           ; 1 bytes @ 0x15
   692     0035                     	ds	1
   693     0036                     ??___flmul:
   694     0036                     map@value:	
   695                           ; 1 bytes @ 0x16
   696                           
   697                           
   698                           ; 1 bytes @ 0x16
   699     0036                     	ds	5
   700     003B                     ___flmul@sign:
   701                           
   702                           ; 1 bytes @ 0x1B
   703     003B                     	ds	1
   704     003C                     ___flmul@aexp:
   705                           
   706                           ; 1 bytes @ 0x1C
   707     003C                     	ds	1
   708     003D                     ___flmul@grs:
   709                           
   710                           ; 4 bytes @ 0x1D
   711     003D                     	ds	4
   712     0041                     ___flmul@bexp:
   713                           
   714                           ; 1 bytes @ 0x21
   715     0041                     	ds	1
   716     0042                     ___flmul@prod:
   717                           
   718                           ; 4 bytes @ 0x22
   719     0042                     	ds	4
   720     0046                     ___flmul@temp:
   721                           
   722                           ; 2 bytes @ 0x26
   723     0046                     	ds	2
   724     0048                     ?___fladd:
   725     0048                     ___fladd@b:	
   726                           ; 4 bytes @ 0x28
   727                           
   728                           
   729                           ; 4 bytes @ 0x28
   730     0048                     	ds	4
   731     004C                     ___fladd@a:
   732                           
   733                           ; 4 bytes @ 0x2C
   734     004C                     	ds	4
   735     0050                     ??___fladd:
   736                           
   737                           ; 1 bytes @ 0x30
   738     0050                     	ds	8
   739     0058                     ___fladd@signs:
   740                           
   741                           ; 1 bytes @ 0x38
   742     0058                     	ds	1
   743     0059                     ___fladd@aexp:
   744                           
   745                           ; 1 bytes @ 0x39
   746     0059                     	ds	1
   747     005A                     ___fladd@bexp:
   748                           
   749                           ; 1 bytes @ 0x3A
   750     005A                     	ds	1
   751     005B                     ___fladd@grs:
   752                           
   753                           ; 1 bytes @ 0x3B
   754     005B                     	ds	1
   755     005C                     ?___fltol:
   756     005C                     ___fltol@f1:	
   757                           ; 4 bytes @ 0x3C
   758                           
   759                           
   760                           ; 4 bytes @ 0x3C
   761     005C                     	ds	4
   762     0060                     ??___fltol:
   763                           
   764                           ; 1 bytes @ 0x40
   765     0060                     	ds	4
   766     0064                     ___fltol@sign1:
   767                           
   768                           ; 1 bytes @ 0x44
   769     0064                     	ds	1
   770     0065                     ___fltol@exp1:
   771                           
   772                           ; 1 bytes @ 0x45
   773     0065                     	ds	1
   774     0066                     ??_controlmotores:
   775                           
   776                           ; 1 bytes @ 0x46
   777     0066                     	ds	3
   778                           
   779                           	psect	maintext
   780     05C5                     __pmaintext:	
   781 ;;
   782 ;;Main: autosize = 0, tempsize = 2, incstack = 0, save=0
   783 ;;
   784 ;; *************** function _main *****************
   785 ;; Defined at:
   786 ;;		line 120 in file "main.c"
   787 ;; Parameters:    Size  Location     Type
   788 ;;		None
   789 ;; Auto vars:     Size  Location     Type
   790 ;;		None
   791 ;; Return value:  Size  Location     Type
   792 ;;                  1    wreg      void 
   793 ;; Registers used:
   794 ;;		wreg, status,2, status,0, btemp+1, pclath, cstack
   795 ;; Tracked objects:
   796 ;;		On entry : B00/0
   797 ;;		On exit  : 0/0
   798 ;;		Unchanged: 0/0
   799 ;; Data sizes:     COMMON   BANK0   BANK1   BANK3   BANK2
   800 ;;      Params:         0       0       0       0       0
   801 ;;      Locals:         0       0       0       0       0
   802 ;;      Temps:          0       0       2       0       0
   803 ;;      Totals:         0       0       2       0       0
   804 ;;Total ram usage:        2 bytes
   805 ;; Hardware stack levels required when called: 6
   806 ;; This function calls:
   807 ;;		_adamodo
   808 ;;		_controlmotores
   809 ;;		_initUART
   810 ;;		_readEEPROM
   811 ;;		_setup
   812 ;;		_setupADC
   813 ;;		_setupINTOSC
   814 ;;		_setupPWM
   815 ;;		_setupPWM2
   816 ;;		_setupTMR0
   817 ;;		_verifpos
   818 ;;		_writeEEPROM
   819 ;; This function is called by:
   820 ;;		Startup code after reset
   821 ;; This function uses a non-reentrant model
   822 ;;
   823                           
   824     05C5                     _main:	
   825                           ;psect for function _main
   826                           
   827     05C5                     l3143:	
   828                           ;incstack = 0
   829                           ; Regs used in _main: [wreg+status,2+status,0+btemp+1+pclath+cstack]
   830                           
   831                           
   832                           ;main.c: 122:     setup();
   833     05C5  120A  158A  2294  120A  118A  	fcall	_setup
   834                           
   835                           ;main.c: 123:     setupINTOSC(3);
   836     05CA  3003               	movlw	3
   837     05CB  120A  158A  22F8  120A  118A  	fcall	_setupINTOSC
   838                           
   839                           ;main.c: 124:     initUART();
   840     05D0  120A  158A  2267  120A  118A  	fcall	_initUART
   841                           
   842                           ;main.c: 125:     setupADC();
   843     05D5  120A  158A  239B  120A  118A  	fcall	_setupADC
   844                           
   845                           ;main.c: 126:     setupPWM();
   846     05DA  120A  158A  231F  120A  118A  	fcall	_setupPWM
   847                           
   848                           ;main.c: 127:     setupPWM2();
   849     05DF  120A  158A  22AF  120A  118A  	fcall	_setupPWM2
   850                           
   851                           ;main.c: 128:     setupTMR0();
   852     05E4  120A  158A  2257  120A  118A  	fcall	_setupTMR0
   853     05E9                     l3145:
   854                           
   855                           ;main.c: 130:     modo = 0;
   856     05E9  01F8               	clrf	_modo
   857     05EA  01F9               	clrf	_modo+1
   858     05EB                     l3147:
   859                           
   860                           ;main.c: 131:     position = 0;
   861     05EB  01F6               	clrf	_position
   862     05EC  01F7               	clrf	_position+1
   863     05ED                     l3149:
   864                           
   865                           ;main.c: 132:     valorpot1 = 0;
   866     05ED  1683               	bsf	3,5	;RP0=1, select bank1
   867     05EE  1303               	bcf	3,6	;RP1=0, select bank1
   868     05EF  01C1               	clrf	_valorpot1^(0+128)
   869     05F0                     l3151:
   870                           
   871                           ;main.c: 136:        if(modo == 0){
   872     05F0  0878               	movf	_modo,w
   873     05F1  0479               	iorwf	_modo+1,w
   874     05F2  1D03               	btfss	3,2
   875     05F3  2DF5               	goto	u4511
   876     05F4  2DF6               	goto	u4510
   877     05F5                     u4511:
   878     05F5  2E79               	goto	l3191
   879     05F6                     u4510:
   880     05F6                     l3153:
   881                           
   882                           ;main.c: 137:             controlmotores();
   883     05F6  120A  158A  2715  120A  118A  	fcall	_controlmotores
   884     05FB                     l3155:
   885                           
   886                           ;main.c: 138:             verifpos();
   887     05FB  120A  158A  23FF  120A  118A  	fcall	_verifpos
   888     0600                     l3157:
   889                           
   890                           ;main.c: 139:             adamodo();
   891     0600  120A  158A  2643  120A  118A  	fcall	_adamodo
   892     0605                     l3159:
   893                           
   894                           ;main.c: 140:             if (writeread == 1){
   895     0605  1683               	bsf	3,5	;RP0=1, select bank1
   896     0606  1303               	bcf	3,6	;RP1=0, select bank1
   897     0607  0333               	decf	_writeread^(0+128),w
   898     0608  0434               	iorwf	(_writeread+1)^(0+128),w
   899     0609  1D03               	btfss	3,2
   900     060A  2E0C               	goto	u4521
   901     060B  2E0D               	goto	u4520
   902     060C                     u4521:
   903     060C  2E72               	goto	l3189
   904     060D                     u4520:
   905     060D                     l3161:
   906                           
   907                           ;main.c: 141:                 if (position == 0){
   908     060D  0876               	movf	_position,w
   909     060E  0477               	iorwf	_position+1,w
   910     060F  1D03               	btfss	3,2
   911     0610  2E12               	goto	u4531
   912     0611  2E13               	goto	u4530
   913     0612                     u4531:
   914     0612  2E18               	goto	l3165
   915     0613                     u4530:
   916     0613                     l3163:
   917                           
   918                           ;main.c: 142:                     loc = 0;}
   919     0613  1283               	bcf	3,5	;RP0=0, select bank0
   920     0614  1303               	bcf	3,6	;RP1=0, select bank0
   921     0615  01E9               	clrf	_loc
   922     0616  01EA               	clrf	_loc+1
   923     0617  2E41               	goto	l3177
   924     0618                     l3165:
   925     0618  0376               	decf	_position,w
   926     0619  0477               	iorwf	_position+1,w
   927     061A  1D03               	btfss	3,2
   928     061B  2E1D               	goto	u4541
   929     061C  2E1E               	goto	u4540
   930     061D                     u4541:
   931     061D  2E25               	goto	l3169
   932     061E                     u4540:
   933     061E                     l3167:
   934                           
   935                           ;main.c: 144:                     loc = 4;}
   936     061E  3004               	movlw	4
   937     061F  1283               	bcf	3,5	;RP0=0, select bank0
   938     0620  1303               	bcf	3,6	;RP1=0, select bank0
   939     0621  00E9               	movwf	_loc
   940     0622  3000               	movlw	0
   941     0623  00EA               	movwf	_loc+1
   942     0624  2E41               	goto	l3177
   943     0625                     l3169:
   944     0625  3002               	movlw	2
   945     0626  0676               	xorwf	_position,w
   946     0627  0477               	iorwf	_position+1,w
   947     0628  1D03               	btfss	3,2
   948     0629  2E2B               	goto	u4551
   949     062A  2E2C               	goto	u4550
   950     062B                     u4551:
   951     062B  2E33               	goto	l3173
   952     062C                     u4550:
   953     062C                     l3171:
   954                           
   955                           ;main.c: 146:                     loc = 8;}
   956     062C  3008               	movlw	8
   957     062D  1283               	bcf	3,5	;RP0=0, select bank0
   958     062E  1303               	bcf	3,6	;RP1=0, select bank0
   959     062F  00E9               	movwf	_loc
   960     0630  3000               	movlw	0
   961     0631  00EA               	movwf	_loc+1
   962     0632  2E41               	goto	l3177
   963     0633                     l3173:
   964     0633  3003               	movlw	3
   965     0634  0676               	xorwf	_position,w
   966     0635  0477               	iorwf	_position+1,w
   967     0636  1D03               	btfss	3,2
   968     0637  2E39               	goto	u4561
   969     0638  2E3A               	goto	u4560
   970     0639                     u4561:
   971     0639  2E41               	goto	l192
   972     063A                     u4560:
   973     063A                     l3175:
   974                           
   975                           ;main.c: 148:                     loc = 12;}
   976     063A  300C               	movlw	12
   977     063B  1283               	bcf	3,5	;RP0=0, select bank0
   978     063C  1303               	bcf	3,6	;RP1=0, select bank0
   979     063D  00E9               	movwf	_loc
   980     063E  3000               	movlw	0
   981     063F  00EA               	movwf	_loc+1
   982     0640  2E41               	goto	l3177
   983     0641                     l192:
   984     0641                     l3177:
   985                           
   986                           ;main.c: 149:                 writeEEPROM(loc, CCPR1L);
   987     0641  1283               	bcf	3,5	;RP0=0, select bank0
   988     0642  0815               	movf	21,w	;volatile
   989     0643  00F4               	movwf	writeEEPROM@data
   990     0644  0869               	movf	_loc,w
   991     0645  120A  158A  236F  120A  118A  	fcall	_writeEEPROM
   992     064A                     l3179:
   993                           
   994                           ;main.c: 150:                 writeEEPROM((loc + 1), CCPR2L);
   995     064A  1283               	bcf	3,5	;RP0=0, select bank0
   996     064B  1303               	bcf	3,6	;RP1=0, select bank0
   997     064C  081B               	movf	27,w	;volatile
   998     064D  00F4               	movwf	writeEEPROM@data
   999     064E  0869               	movf	_loc,w
  1000     064F  3E01               	addlw	1
  1001     0650  120A  158A  236F  120A  118A  	fcall	_writeEEPROM
  1002     0655                     l3181:
  1003                           
  1004                           ;main.c: 151:                 writeEEPROM((loc + 2), pot);
  1005     0655  1283               	bcf	3,5	;RP0=0, select bank0
  1006     0656  1303               	bcf	3,6	;RP1=0, select bank0
  1007     0657  086D               	movf	_pot,w
  1008     0658  00F4               	movwf	writeEEPROM@data
  1009     0659  0869               	movf	_loc,w
  1010     065A  3E02               	addlw	2
  1011     065B  120A  158A  236F  120A  118A  	fcall	_writeEEPROM
  1012     0660                     l3183:
  1013                           
  1014                           ;main.c: 152:                 writeEEPROM((loc + 3), pot1);
  1015     0660  1283               	bcf	3,5	;RP0=0, select bank0
  1016     0661  1303               	bcf	3,6	;RP1=0, select bank0
  1017     0662  086B               	movf	_pot1,w
  1018     0663  00F4               	movwf	writeEEPROM@data
  1019     0664  0869               	movf	_loc,w
  1020     0665  3E03               	addlw	3
  1021     0666  120A  158A  236F  120A  118A  	fcall	_writeEEPROM
  1022     066B                     l3185:
  1023                           
  1024                           ;main.c: 153:                 writeread = 0;
  1025     066B  1683               	bsf	3,5	;RP0=1, select bank1
  1026     066C  1303               	bcf	3,6	;RP1=0, select bank1
  1027     066D  01B3               	clrf	_writeread^(0+128)
  1028     066E  01B4               	clrf	(_writeread+1)^(0+128)
  1029     066F                     l3187:
  1030                           
  1031                           ;main.c: 154:                 PORTCbits.RC5 = 0;
  1032     066F  1283               	bcf	3,5	;RP0=0, select bank0
  1033     0670  1303               	bcf	3,6	;RP1=0, select bank0
  1034     0671  1287               	bcf	7,5	;volatile
  1035     0672                     l3189:
  1036                           
  1037                           ;main.c: 156:             _delay((unsigned long)((100)*(500000/4000000.0)));
  1038     0672  3003               	movlw	3
  1039     0673  1683               	bsf	3,5	;RP0=1, select bank1
  1040     0674  1303               	bcf	3,6	;RP1=0, select bank1
  1041     0675  00C9               	movwf	??_main^(0+128)
  1042     0676                     u4657:
  1043     0676  0BC9               	decfsz	??_main^(0+128),f
  1044     0677  2E76               	goto	u4657
  1045                           
  1046                           ;main.c: 157:         }
  1047     0678  2F2A               	goto	l3235
  1048     0679                     l3191:
  1049     0679  0378               	decf	_modo,w
  1050     067A  0479               	iorwf	_modo+1,w
  1051     067B  1D03               	btfss	3,2
  1052     067C  2E7E               	goto	u4571
  1053     067D  2E7F               	goto	u4570
  1054     067E                     u4571:
  1055     067E  2F0B               	goto	l3225
  1056     067F                     u4570:
  1057     067F                     l3193:
  1058                           
  1059                           ;main.c: 160:            verifpos();
  1060     067F  120A  158A  23FF  120A  118A  	fcall	_verifpos
  1061                           
  1062                           ;main.c: 161:            adamodo();
  1063     0684  120A  158A  2643  120A  118A  	fcall	_adamodo
  1064     0689                     l3195:
  1065                           
  1066                           ;main.c: 162:            if (writeread == 1){
  1067     0689  1683               	bsf	3,5	;RP0=1, select bank1
  1068     068A  1303               	bcf	3,6	;RP1=0, select bank1
  1069     068B  0333               	decf	_writeread^(0+128),w
  1070     068C  0434               	iorwf	(_writeread+1)^(0+128),w
  1071     068D  1D03               	btfss	3,2
  1072     068E  2E90               	goto	u4581
  1073     068F  2E91               	goto	u4580
  1074     0690                     u4581:
  1075     0690  2F2A               	goto	l3235
  1076     0691                     u4580:
  1077     0691                     l3197:
  1078                           
  1079                           ;main.c: 163:                 if (position == 0){
  1080     0691  0876               	movf	_position,w
  1081     0692  0477               	iorwf	_position+1,w
  1082     0693  1D03               	btfss	3,2
  1083     0694  2E96               	goto	u4591
  1084     0695  2E97               	goto	u4590
  1085     0696                     u4591:
  1086     0696  2E9C               	goto	l3201
  1087     0697                     u4590:
  1088     0697                     l3199:
  1089                           
  1090                           ;main.c: 164:                     loc = 0;}
  1091     0697  1283               	bcf	3,5	;RP0=0, select bank0
  1092     0698  1303               	bcf	3,6	;RP1=0, select bank0
  1093     0699  01E9               	clrf	_loc
  1094     069A  01EA               	clrf	_loc+1
  1095     069B  2EC5               	goto	l3213
  1096     069C                     l3201:
  1097     069C  0376               	decf	_position,w
  1098     069D  0477               	iorwf	_position+1,w
  1099     069E  1D03               	btfss	3,2
  1100     069F  2EA1               	goto	u4601
  1101     06A0  2EA2               	goto	u4600
  1102     06A1                     u4601:
  1103     06A1  2EA9               	goto	l3205
  1104     06A2                     u4600:
  1105     06A2                     l3203:
  1106                           
  1107                           ;main.c: 166:                     loc = 4;}
  1108     06A2  3004               	movlw	4
  1109     06A3  1283               	bcf	3,5	;RP0=0, select bank0
  1110     06A4  1303               	bcf	3,6	;RP1=0, select bank0
  1111     06A5  00E9               	movwf	_loc
  1112     06A6  3000               	movlw	0
  1113     06A7  00EA               	movwf	_loc+1
  1114     06A8  2EC5               	goto	l3213
  1115     06A9                     l3205:
  1116     06A9  3002               	movlw	2
  1117     06AA  0676               	xorwf	_position,w
  1118     06AB  0477               	iorwf	_position+1,w
  1119     06AC  1D03               	btfss	3,2
  1120     06AD  2EAF               	goto	u4611
  1121     06AE  2EB0               	goto	u4610
  1122     06AF                     u4611:
  1123     06AF  2EB7               	goto	l3209
  1124     06B0                     u4610:
  1125     06B0                     l3207:
  1126                           
  1127                           ;main.c: 168:                     loc = 8;}
  1128     06B0  3008               	movlw	8
  1129     06B1  1283               	bcf	3,5	;RP0=0, select bank0
  1130     06B2  1303               	bcf	3,6	;RP1=0, select bank0
  1131     06B3  00E9               	movwf	_loc
  1132     06B4  3000               	movlw	0
  1133     06B5  00EA               	movwf	_loc+1
  1134     06B6  2EC5               	goto	l3213
  1135     06B7                     l3209:
  1136     06B7  3003               	movlw	3
  1137     06B8  0676               	xorwf	_position,w
  1138     06B9  0477               	iorwf	_position+1,w
  1139     06BA  1D03               	btfss	3,2
  1140     06BB  2EBD               	goto	u4621
  1141     06BC  2EBE               	goto	u4620
  1142     06BD                     u4621:
  1143     06BD  2EC5               	goto	l202
  1144     06BE                     u4620:
  1145     06BE                     l3211:
  1146                           
  1147                           ;main.c: 170:                     loc = 12;}
  1148     06BE  300C               	movlw	12
  1149     06BF  1283               	bcf	3,5	;RP0=0, select bank0
  1150     06C0  1303               	bcf	3,6	;RP1=0, select bank0
  1151     06C1  00E9               	movwf	_loc
  1152     06C2  3000               	movlw	0
  1153     06C3  00EA               	movwf	_loc+1
  1154     06C4  2EC5               	goto	l3213
  1155     06C5                     l202:
  1156     06C5                     l3213:
  1157                           
  1158                           ;main.c: 171:                 CCPR1L = readEEPROM(loc);
  1159     06C5  1283               	bcf	3,5	;RP0=0, select bank0
  1160     06C6  0869               	movf	_loc,w
  1161     06C7  120A  158A  227D  120A  118A  	fcall	_readEEPROM
  1162     06CC  1283               	bcf	3,5	;RP0=0, select bank0
  1163     06CD  1303               	bcf	3,6	;RP1=0, select bank0
  1164     06CE  0095               	movwf	21	;volatile
  1165     06CF                     l3215:
  1166                           
  1167                           ;main.c: 172:                 CCPR2L = readEEPROM((loc+1));
  1168     06CF  0869               	movf	_loc,w
  1169     06D0  3E01               	addlw	1
  1170     06D1  120A  158A  227D  120A  118A  	fcall	_readEEPROM
  1171     06D6  1283               	bcf	3,5	;RP0=0, select bank0
  1172     06D7  1303               	bcf	3,6	;RP1=0, select bank0
  1173     06D8  009B               	movwf	27	;volatile
  1174     06D9                     l3217:
  1175                           
  1176                           ;main.c: 173:                 pot = readEEPROM((loc+2));
  1177     06D9  0869               	movf	_loc,w
  1178     06DA  3E02               	addlw	2
  1179     06DB  120A  158A  227D  120A  118A  	fcall	_readEEPROM
  1180     06E0  1683               	bsf	3,5	;RP0=1, select bank1
  1181     06E1  1303               	bcf	3,6	;RP1=0, select bank1
  1182     06E2  00C9               	movwf	??_main^(0+128)
  1183     06E3  01CA               	clrf	(??_main^(0+128)+1)
  1184     06E4  0849               	movf	??_main^(0+128),w
  1185     06E5  1283               	bcf	3,5	;RP0=0, select bank0
  1186     06E6  1303               	bcf	3,6	;RP1=0, select bank0
  1187     06E7  00ED               	movwf	_pot
  1188     06E8  1683               	bsf	3,5	;RP0=1, select bank1
  1189     06E9  1303               	bcf	3,6	;RP1=0, select bank1
  1190     06EA  084A               	movf	(??_main+1)^(0+128),w
  1191     06EB  1283               	bcf	3,5	;RP0=0, select bank0
  1192     06EC  1303               	bcf	3,6	;RP1=0, select bank0
  1193     06ED  00EE               	movwf	_pot+1
  1194     06EE                     l3219:
  1195                           
  1196                           ;main.c: 174:                 pot1 = readEEPROM((loc+3));
  1197     06EE  0869               	movf	_loc,w
  1198     06EF  3E03               	addlw	3
  1199     06F0  120A  158A  227D  120A  118A  	fcall	_readEEPROM
  1200     06F5  1683               	bsf	3,5	;RP0=1, select bank1
  1201     06F6  1303               	bcf	3,6	;RP1=0, select bank1
  1202     06F7  00C9               	movwf	??_main^(0+128)
  1203     06F8  01CA               	clrf	(??_main^(0+128)+1)
  1204     06F9  0849               	movf	??_main^(0+128),w
  1205     06FA  1283               	bcf	3,5	;RP0=0, select bank0
  1206     06FB  1303               	bcf	3,6	;RP1=0, select bank0
  1207     06FC  00EB               	movwf	_pot1
  1208     06FD  1683               	bsf	3,5	;RP0=1, select bank1
  1209     06FE  1303               	bcf	3,6	;RP1=0, select bank1
  1210     06FF  084A               	movf	(??_main+1)^(0+128),w
  1211     0700  1283               	bcf	3,5	;RP0=0, select bank0
  1212     0701  1303               	bcf	3,6	;RP1=0, select bank0
  1213     0702  00EC               	movwf	_pot1+1
  1214     0703                     l3221:
  1215                           
  1216                           ;main.c: 175:                 writeread = 0;
  1217     0703  1683               	bsf	3,5	;RP0=1, select bank1
  1218     0704  1303               	bcf	3,6	;RP1=0, select bank1
  1219     0705  01B3               	clrf	_writeread^(0+128)
  1220     0706  01B4               	clrf	(_writeread+1)^(0+128)
  1221     0707                     l3223:
  1222                           
  1223                           ;main.c: 176:                 PORTCbits.RC5 = 0;
  1224     0707  1283               	bcf	3,5	;RP0=0, select bank0
  1225     0708  1303               	bcf	3,6	;RP1=0, select bank0
  1226     0709  1287               	bcf	7,5	;volatile
  1227     070A  2F2A               	goto	l3235
  1228     070B                     l3225:
  1229     070B  3002               	movlw	2
  1230     070C  0678               	xorwf	_modo,w
  1231     070D  0479               	iorwf	_modo+1,w
  1232     070E  1D03               	btfss	3,2
  1233     070F  2F11               	goto	u4631
  1234     0710  2F12               	goto	u4630
  1235     0711                     u4631:
  1236     0711  2F2A               	goto	l3235
  1237     0712                     u4630:
  1238     0712                     l3227:
  1239                           
  1240                           ;main.c: 180:             verifpos();
  1241     0712  120A  158A  23FF  120A  118A  	fcall	_verifpos
  1242                           
  1243                           ;main.c: 181:             adamodo();
  1244     0717  120A  158A  2643  120A  118A  	fcall	_adamodo
  1245     071C                     l3229:
  1246                           
  1247                           ;main.c: 183:              if (writeread == 1){
  1248     071C  1683               	bsf	3,5	;RP0=1, select bank1
  1249     071D  1303               	bcf	3,6	;RP1=0, select bank1
  1250     071E  0333               	decf	_writeread^(0+128),w
  1251     071F  0434               	iorwf	(_writeread+1)^(0+128),w
  1252     0720  1D03               	btfss	3,2
  1253     0721  2F23               	goto	u4641
  1254     0722  2F24               	goto	u4640
  1255     0723                     u4641:
  1256     0723  2F2A               	goto	l206
  1257     0724                     u4640:
  1258     0724                     l3231:
  1259                           
  1260                           ;main.c: 184:                 writeread = 0;
  1261     0724  01B3               	clrf	_writeread^(0+128)
  1262     0725  01B4               	clrf	(_writeread+1)^(0+128)
  1263     0726                     l3233:
  1264                           
  1265                           ;main.c: 185:                 PORTCbits.RC5 = 0;}
  1266     0726  1283               	bcf	3,5	;RP0=0, select bank0
  1267     0727  1303               	bcf	3,6	;RP1=0, select bank0
  1268     0728  1287               	bcf	7,5	;volatile
  1269     0729  2F2A               	goto	l3235
  1270     072A                     l206:
  1271     072A                     l3235:
  1272                           
  1273                           ;main.c: 187:         _delay((unsigned long)((100)*(500000/4000000.0)));
  1274     072A  3003               	movlw	3
  1275     072B  1683               	bsf	3,5	;RP0=1, select bank1
  1276     072C  1303               	bcf	3,6	;RP1=0, select bank1
  1277     072D  00C9               	movwf	??_main^(0+128)
  1278     072E                     u4667:
  1279     072E  0BC9               	decfsz	??_main^(0+128),f
  1280     072F  2F2E               	goto	u4667
  1281     0730  2DF0               	goto	l3151
  1282     0731  120A  118A  280C   	ljmp	start
  1283     0734                     __end_of_main:
  1284                           
  1285                           	psect	text1
  1286     0B6F                     __ptext1:	
  1287 ;; *************** function _writeEEPROM *****************
  1288 ;; Defined at:
  1289 ;;		line 374 in file "main.c"
  1290 ;; Parameters:    Size  Location     Type
  1291 ;;  address         1    wreg     unsigned char 
  1292 ;;  data            1    4[COMMON] unsigned char 
  1293 ;; Auto vars:     Size  Location     Type
  1294 ;;  address         1    0[BANK0 ] unsigned char 
  1295 ;;  gieStatus       1    1[BANK0 ] unsigned char 
  1296 ;; Return value:  Size  Location     Type
  1297 ;;                  1    wreg      void 
  1298 ;; Registers used:
  1299 ;;		wreg, status,2, status,0
  1300 ;; Tracked objects:
  1301 ;;		On entry : 0/0
  1302 ;;		On exit  : 0/0
  1303 ;;		Unchanged: 0/0
  1304 ;; Data sizes:     COMMON   BANK0   BANK1   BANK3   BANK2
  1305 ;;      Params:         1       0       0       0       0
  1306 ;;      Locals:         0       2       0       0       0
  1307 ;;      Temps:          0       0       0       0       0
  1308 ;;      Totals:         1       2       0       0       0
  1309 ;;Total ram usage:        3 bytes
  1310 ;; Hardware stack levels used: 1
  1311 ;; Hardware stack levels required when called: 2
  1312 ;; This function calls:
  1313 ;;		Nothing
  1314 ;; This function is called by:
  1315 ;;		_main
  1316 ;; This function uses a non-reentrant model
  1317 ;;
  1318                           
  1319     0B6F                     _writeEEPROM:	
  1320                           ;psect for function _writeEEPROM
  1321                           
  1322                           
  1323                           ;incstack = 0
  1324                           ; Regs used in _writeEEPROM: [wreg+status,2+status,0]
  1325                           ;writeEEPROM@address stored from wreg
  1326     0B6F  1283               	bcf	3,5	;RP0=0, select bank0
  1327     0B70  1303               	bcf	3,6	;RP1=0, select bank0
  1328     0B71  00A0               	movwf	writeEEPROM@address
  1329     0B72                     l3121:
  1330     0B72                     l268:	
  1331                           ;main.c: 375:     uint8_t gieStatus;;main.c: 376:     while (WR);
  1332                           
  1333     0B72  1683               	bsf	3,5	;RP0=1, select bank3
  1334     0B73  1703               	bsf	3,6	;RP1=1, select bank3
  1335     0B74  188C               	btfsc	12,1	;volsfr
  1336     0B75  2B77               	goto	u4501
  1337     0B76  2B78               	goto	u4500
  1338     0B77                     u4501:
  1339     0B77  2B72               	goto	l268
  1340     0B78                     u4500:
  1341     0B78                     l3123:
  1342                           
  1343                           ;main.c: 378:     EEADR = address;
  1344     0B78  1283               	bcf	3,5	;RP0=0, select bank0
  1345     0B79  1303               	bcf	3,6	;RP1=0, select bank0
  1346     0B7A  0820               	movf	writeEEPROM@address,w
  1347     0B7B  1283               	bcf	3,5	;RP0=0, select bank2
  1348     0B7C  1703               	bsf	3,6	;RP1=1, select bank2
  1349     0B7D  008D               	movwf	13	;volatile
  1350                           
  1351                           ;main.c: 379:     EEDAT = data;
  1352     0B7E  0874               	movf	writeEEPROM@data,w
  1353     0B7F  008C               	movwf	12	;volatile
  1354     0B80                     l3125:
  1355                           
  1356                           ;main.c: 380:     EECON1bits.EEPGD = 0;
  1357     0B80  1683               	bsf	3,5	;RP0=1, select bank3
  1358     0B81  1703               	bsf	3,6	;RP1=1, select bank3
  1359     0B82  138C               	bcf	12,7	;volsfr
  1360     0B83                     l3127:
  1361                           
  1362                           ;main.c: 381:     EECON1bits.WREN = 1;
  1363     0B83  150C               	bsf	12,2	;volsfr
  1364     0B84                     l3129:
  1365                           
  1366                           ;main.c: 382:     gieStatus = GIE;
  1367     0B84  3000               	movlw	0
  1368     0B85  1B8B               	btfsc	11,7	;volatile
  1369     0B86  3001               	movlw	1
  1370     0B87  1283               	bcf	3,5	;RP0=0, select bank0
  1371     0B88  1303               	bcf	3,6	;RP1=0, select bank0
  1372     0B89  00A1               	movwf	writeEEPROM@gieStatus
  1373     0B8A                     l3131:
  1374                           
  1375                           ;main.c: 383:     INTCONbits.GIE = 0;
  1376     0B8A  138B               	bcf	11,7	;volatile
  1377     0B8B                     l3133:
  1378                           
  1379                           ;main.c: 384:     EECON2 = 0x55;
  1380     0B8B  3055               	movlw	85
  1381     0B8C  1683               	bsf	3,5	;RP0=1, select bank3
  1382     0B8D  1703               	bsf	3,6	;RP1=1, select bank3
  1383     0B8E  008D               	movwf	13	;volsfr
  1384     0B8F                     l3135:
  1385                           
  1386                           ;main.c: 385:     EECON2 = 0xAA;
  1387     0B8F  30AA               	movlw	170
  1388     0B90  008D               	movwf	13	;volsfr
  1389     0B91                     l3137:
  1390                           
  1391                           ;main.c: 386:     EECON1bits.WR = 1;
  1392     0B91  148C               	bsf	12,1	;volsfr
  1393     0B92                     l3139:
  1394                           
  1395                           ;main.c: 387:     EECON1bits.WREN = 0;
  1396     0B92  110C               	bcf	12,2	;volsfr
  1397     0B93                     l3141:
  1398                           
  1399                           ;main.c: 388:     INTCONbits.GIE = gieStatus;
  1400     0B93  1283               	bcf	3,5	;RP0=0, select bank0
  1401     0B94  1303               	bcf	3,6	;RP1=0, select bank0
  1402     0B95  0C21               	rrf	writeEEPROM@gieStatus,w
  1403     0B96  1C03               	skipc
  1404     0B97  138B               	bcf	11,7	;volatile
  1405     0B98  1803               	skipnc
  1406     0B99  178B               	bsf	11,7	;volatile
  1407     0B9A                     l271:
  1408     0B9A  0008               	return
  1409     0B9B                     __end_of_writeEEPROM:
  1410                           
  1411                           	psect	text2
  1412     0BFF                     __ptext2:	
  1413 ;; *************** function _verifpos *****************
  1414 ;; Defined at:
  1415 ;;		line 393 in file "main.c"
  1416 ;; Parameters:    Size  Location     Type
  1417 ;;		None
  1418 ;; Auto vars:     Size  Location     Type
  1419 ;;		None
  1420 ;; Return value:  Size  Location     Type
  1421 ;;                  1    wreg      void 
  1422 ;; Registers used:
  1423 ;;		wreg, status,2, status,0
  1424 ;; Tracked objects:
  1425 ;;		On entry : 0/0
  1426 ;;		On exit  : 0/0
  1427 ;;		Unchanged: 0/0
  1428 ;; Data sizes:     COMMON   BANK0   BANK1   BANK3   BANK2
  1429 ;;      Params:         0       0       0       0       0
  1430 ;;      Locals:         0       0       0       0       0
  1431 ;;      Temps:          0       0       0       0       0
  1432 ;;      Totals:         0       0       0       0       0
  1433 ;;Total ram usage:        0 bytes
  1434 ;; Hardware stack levels used: 1
  1435 ;; Hardware stack levels required when called: 2
  1436 ;; This function calls:
  1437 ;;		Nothing
  1438 ;; This function is called by:
  1439 ;;		_main
  1440 ;; This function uses a non-reentrant model
  1441 ;;
  1442                           
  1443     0BFF                     _verifpos:	
  1444                           ;psect for function _verifpos
  1445                           
  1446     0BFF                     l2533:	
  1447                           ;incstack = 0
  1448                           ; Regs used in _verifpos: [wreg+status,2+status,0]
  1449                           
  1450                           
  1451                           ;main.c: 395:     if (position == 0){
  1452     0BFF  0876               	movf	_position,w
  1453     0C00  0477               	iorwf	_position+1,w
  1454     0C01  1D03               	btfss	3,2
  1455     0C02  2C04               	goto	u3251
  1456     0C03  2C05               	goto	u3250
  1457     0C04                     u3251:
  1458     0C04  2C0A               	goto	l2537
  1459     0C05                     u3250:
  1460     0C05                     l2535:
  1461                           
  1462                           ;main.c: 396:         PORTDbits.RD2 = 0;
  1463     0C05  1283               	bcf	3,5	;RP0=0, select bank0
  1464     0C06  1303               	bcf	3,6	;RP1=0, select bank0
  1465     0C07  1108               	bcf	8,2	;volatile
  1466                           
  1467                           ;main.c: 397:         PORTDbits.RD3 = 0;}
  1468     0C08  1188               	bcf	8,3	;volatile
  1469     0C09  2C2D               	goto	l2549
  1470     0C0A                     l2537:
  1471     0C0A  0376               	decf	_position,w
  1472     0C0B  0477               	iorwf	_position+1,w
  1473     0C0C  1D03               	btfss	3,2
  1474     0C0D  2C0F               	goto	u3261
  1475     0C0E  2C10               	goto	u3260
  1476     0C0F                     u3261:
  1477     0C0F  2C15               	goto	l2541
  1478     0C10                     u3260:
  1479     0C10                     l2539:
  1480                           
  1481                           ;main.c: 399:         PORTDbits.RD2 = 1;
  1482     0C10  1283               	bcf	3,5	;RP0=0, select bank0
  1483     0C11  1303               	bcf	3,6	;RP1=0, select bank0
  1484     0C12  1508               	bsf	8,2	;volatile
  1485                           
  1486                           ;main.c: 400:         PORTDbits.RD3 = 0;}
  1487     0C13  1188               	bcf	8,3	;volatile
  1488     0C14  2C2D               	goto	l2549
  1489     0C15                     l2541:
  1490     0C15  3002               	movlw	2
  1491     0C16  0676               	xorwf	_position,w
  1492     0C17  0477               	iorwf	_position+1,w
  1493     0C18  1D03               	btfss	3,2
  1494     0C19  2C1B               	goto	u3271
  1495     0C1A  2C1C               	goto	u3270
  1496     0C1B                     u3271:
  1497     0C1B  2C21               	goto	l2545
  1498     0C1C                     u3270:
  1499     0C1C                     l2543:
  1500                           
  1501                           ;main.c: 402:         PORTDbits.RD2 = 0;
  1502     0C1C  1283               	bcf	3,5	;RP0=0, select bank0
  1503     0C1D  1303               	bcf	3,6	;RP1=0, select bank0
  1504     0C1E  1108               	bcf	8,2	;volatile
  1505                           
  1506                           ;main.c: 403:         PORTDbits.RD3 = 1;}
  1507     0C1F  1588               	bsf	8,3	;volatile
  1508     0C20  2C2D               	goto	l2549
  1509     0C21                     l2545:
  1510     0C21  3003               	movlw	3
  1511     0C22  0676               	xorwf	_position,w
  1512     0C23  0477               	iorwf	_position+1,w
  1513     0C24  1D03               	btfss	3,2
  1514     0C25  2C27               	goto	u3281
  1515     0C26  2C28               	goto	u3280
  1516     0C27                     u3281:
  1517     0C27  2C2D               	goto	l277
  1518     0C28                     u3280:
  1519     0C28                     l2547:
  1520                           
  1521                           ;main.c: 405:         PORTDbits.RD2 = 1;
  1522     0C28  1283               	bcf	3,5	;RP0=0, select bank0
  1523     0C29  1303               	bcf	3,6	;RP1=0, select bank0
  1524     0C2A  1508               	bsf	8,2	;volatile
  1525                           
  1526                           ;main.c: 406:         PORTDbits.RD3 = 1;}
  1527     0C2B  1588               	bsf	8,3	;volatile
  1528     0C2C  2C2D               	goto	l2549
  1529     0C2D                     l277:
  1530     0C2D                     l2549:
  1531                           
  1532                           ;main.c: 408:     if (modo == 0){
  1533     0C2D  0878               	movf	_modo,w
  1534     0C2E  0479               	iorwf	_modo+1,w
  1535     0C2F  1D03               	btfss	3,2
  1536     0C30  2C32               	goto	u3291
  1537     0C31  2C33               	goto	u3290
  1538     0C32                     u3291:
  1539     0C32  2C39               	goto	l2553
  1540     0C33                     u3290:
  1541     0C33                     l2551:
  1542                           
  1543                           ;main.c: 409:         PORTDbits.RD0 = 1;
  1544     0C33  1283               	bcf	3,5	;RP0=0, select bank0
  1545     0C34  1303               	bcf	3,6	;RP1=0, select bank0
  1546     0C35  1408               	bsf	8,0	;volatile
  1547                           
  1548                           ;main.c: 410:         PORTDbits.RD1 = 0;
  1549     0C36  1088               	bcf	8,1	;volatile
  1550                           
  1551                           ;main.c: 411:         PORTCbits.RC4 = 0;}
  1552     0C37  1207               	bcf	7,4	;volatile
  1553     0C38  2C51               	goto	l286
  1554     0C39                     l2553:
  1555     0C39  0378               	decf	_modo,w
  1556     0C3A  0479               	iorwf	_modo+1,w
  1557     0C3B  1D03               	btfss	3,2
  1558     0C3C  2C3E               	goto	u3301
  1559     0C3D  2C3F               	goto	u3300
  1560     0C3E                     u3301:
  1561     0C3E  2C45               	goto	l2557
  1562     0C3F                     u3300:
  1563     0C3F                     l2555:
  1564                           
  1565                           ;main.c: 413:         PORTDbits.RD0 = 0;
  1566     0C3F  1283               	bcf	3,5	;RP0=0, select bank0
  1567     0C40  1303               	bcf	3,6	;RP1=0, select bank0
  1568     0C41  1008               	bcf	8,0	;volatile
  1569                           
  1570                           ;main.c: 414:         PORTDbits.RD1 = 1;
  1571     0C42  1488               	bsf	8,1	;volatile
  1572                           
  1573                           ;main.c: 415:         PORTCbits.RC4 = 0;}
  1574     0C43  1207               	bcf	7,4	;volatile
  1575     0C44  2C51               	goto	l286
  1576     0C45                     l2557:
  1577     0C45  3002               	movlw	2
  1578     0C46  0678               	xorwf	_modo,w
  1579     0C47  0479               	iorwf	_modo+1,w
  1580     0C48  1D03               	btfss	3,2
  1581     0C49  2C4B               	goto	u3311
  1582     0C4A  2C4C               	goto	u3310
  1583     0C4B                     u3311:
  1584     0C4B  2C51               	goto	l286
  1585     0C4C                     u3310:
  1586     0C4C                     l2559:
  1587                           
  1588                           ;main.c: 417:         PORTDbits.RD0 = 0;
  1589     0C4C  1283               	bcf	3,5	;RP0=0, select bank0
  1590     0C4D  1303               	bcf	3,6	;RP1=0, select bank0
  1591     0C4E  1008               	bcf	8,0	;volatile
  1592                           
  1593                           ;main.c: 418:         PORTDbits.RD1 = 0;
  1594     0C4F  1088               	bcf	8,1	;volatile
  1595                           
  1596                           ;main.c: 419:         PORTCbits.RC4 = 1;}
  1597     0C50  1607               	bsf	7,4	;volatile
  1598     0C51                     l286:
  1599     0C51  0008               	return
  1600     0C52                     __end_of_verifpos:
  1601                           
  1602                           	psect	text3
  1603     0A57                     __ptext3:	
  1604 ;; *************** function _setupTMR0 *****************
  1605 ;; Defined at:
  1606 ;;		line 280 in file "main.c"
  1607 ;; Parameters:    Size  Location     Type
  1608 ;;		None
  1609 ;; Auto vars:     Size  Location     Type
  1610 ;;		None
  1611 ;; Return value:  Size  Location     Type
  1612 ;;                  1    wreg      void 
  1613 ;; Registers used:
  1614 ;;		wreg, status,2, status,0
  1615 ;; Tracked objects:
  1616 ;;		On entry : 0/0
  1617 ;;		On exit  : 0/0
  1618 ;;		Unchanged: 0/0
  1619 ;; Data sizes:     COMMON   BANK0   BANK1   BANK3   BANK2
  1620 ;;      Params:         0       0       0       0       0
  1621 ;;      Locals:         0       0       0       0       0
  1622 ;;      Temps:          0       0       0       0       0
  1623 ;;      Totals:         0       0       0       0       0
  1624 ;;Total ram usage:        0 bytes
  1625 ;; Hardware stack levels used: 1
  1626 ;; Hardware stack levels required when called: 2
  1627 ;; This function calls:
  1628 ;;		Nothing
  1629 ;; This function is called by:
  1630 ;;		_main
  1631 ;; This function uses a non-reentrant model
  1632 ;;
  1633                           
  1634     0A57                     _setupTMR0:	
  1635                           ;psect for function _setupTMR0
  1636                           
  1637     0A57                     l2477:	
  1638                           ;incstack = 0
  1639                           ; Regs used in _setupTMR0: [wreg+status,2+status,0]
  1640                           
  1641                           
  1642                           ;main.c: 281:     INTCONbits.GIE = 1;
  1643     0A57  178B               	bsf	11,7	;volatile
  1644                           
  1645                           ;main.c: 282:     INTCONbits.T0IE = 1;
  1646     0A58  168B               	bsf	11,5	;volatile
  1647                           
  1648                           ;main.c: 283:     INTCONbits.T0IF = 0;
  1649     0A59  110B               	bcf	11,2	;volatile
  1650                           
  1651                           ;main.c: 285:     OPTION_REGbits.T0CS = 0;
  1652     0A5A  1683               	bsf	3,5	;RP0=1, select bank1
  1653     0A5B  1303               	bcf	3,6	;RP1=0, select bank1
  1654     0A5C  1281               	bcf	1,5	;volatile
  1655                           
  1656                           ;main.c: 286:     OPTION_REGbits.PSA = 0;
  1657     0A5D  1181               	bcf	1,3	;volatile
  1658     0A5E                     l2479:
  1659                           
  1660                           ;main.c: 287:     OPTION_REGbits.PS = 0b011;
  1661     0A5E  0801               	movf	1,w	;volatile
  1662     0A5F  39F8               	andlw	-8
  1663     0A60  3803               	iorlw	3
  1664     0A61  0081               	movwf	1	;volatile
  1665     0A62                     l2481:
  1666                           
  1667                           ;main.c: 288:     TMR0 = 99;
  1668     0A62  3063               	movlw	99
  1669     0A63  1283               	bcf	3,5	;RP0=0, select bank0
  1670     0A64  1303               	bcf	3,6	;RP1=0, select bank0
  1671     0A65  0081               	movwf	1	;volatile
  1672     0A66                     l232:
  1673     0A66  0008               	return
  1674     0A67                     __end_of_setupTMR0:
  1675                           
  1676                           	psect	text4
  1677     0AAF                     __ptext4:	
  1678 ;; *************** function _setupPWM2 *****************
  1679 ;; Defined at:
  1680 ;;		line 260 in file "main.c"
  1681 ;; Parameters:    Size  Location     Type
  1682 ;;		None
  1683 ;; Auto vars:     Size  Location     Type
  1684 ;;		None
  1685 ;; Return value:  Size  Location     Type
  1686 ;;                  1    wreg      void 
  1687 ;; Registers used:
  1688 ;;		wreg, status,2, status,0
  1689 ;; Tracked objects:
  1690 ;;		On entry : 0/0
  1691 ;;		On exit  : 0/0
  1692 ;;		Unchanged: 0/0
  1693 ;; Data sizes:     COMMON   BANK0   BANK1   BANK3   BANK2
  1694 ;;      Params:         0       0       0       0       0
  1695 ;;      Locals:         0       0       0       0       0
  1696 ;;      Temps:          0       0       0       0       0
  1697 ;;      Totals:         0       0       0       0       0
  1698 ;;Total ram usage:        0 bytes
  1699 ;; Hardware stack levels used: 1
  1700 ;; Hardware stack levels required when called: 2
  1701 ;; This function calls:
  1702 ;;		Nothing
  1703 ;; This function is called by:
  1704 ;;		_main
  1705 ;; This function uses a non-reentrant model
  1706 ;;
  1707                           
  1708     0AAF                     _setupPWM2:	
  1709                           ;psect for function _setupPWM2
  1710                           
  1711     0AAF                     l2463:	
  1712                           ;incstack = 0
  1713                           ; Regs used in _setupPWM2: [wreg+status,2+status,0]
  1714                           
  1715                           
  1716                           ;main.c: 262:     TRISCbits.TRISC1 = 1;
  1717     0AAF  1683               	bsf	3,5	;RP0=1, select bank1
  1718     0AB0  1303               	bcf	3,6	;RP1=0, select bank1
  1719     0AB1  1487               	bsf	7,1	;volatile
  1720     0AB2                     l2465:
  1721                           
  1722                           ;main.c: 264:     PR2 = 155;
  1723     0AB2  309B               	movlw	155
  1724     0AB3  0092               	movwf	18	;volatile
  1725     0AB4                     l2467:
  1726                           
  1727                           ;main.c: 266:     CCP2CONbits.CCP2M = 0b1111;
  1728     0AB4  300F               	movlw	15
  1729     0AB5  1283               	bcf	3,5	;RP0=0, select bank0
  1730     0AB6  1303               	bcf	3,6	;RP1=0, select bank0
  1731     0AB7  049D               	iorwf	29,f	;volatile
  1732     0AB8                     l2469:
  1733                           
  1734                           ;main.c: 268:     CCP2CONbits.DC2B1 = valDCL;
  1735     0AB8  1683               	bsf	3,5	;RP0=1, select bank1
  1736     0AB9  1303               	bcf	3,6	;RP1=0, select bank1
  1737     0ABA  0C39               	rrf	_valDCL^(0+128),w
  1738     0ABB  1283               	bcf	3,5	;RP0=0, select bank0
  1739     0ABC  1303               	bcf	3,6	;RP1=0, select bank0
  1740     0ABD  1C03               	skipc
  1741     0ABE  129D               	bcf	29,5	;volatile
  1742     0ABF  1803               	skipnc
  1743     0AC0  169D               	bsf	29,5	;volatile
  1744     0AC1                     l2471:
  1745                           
  1746                           ;main.c: 269:     CCP2CONbits.DC2B0 = 0b1;
  1747     0AC1  161D               	bsf	29,4	;volatile
  1748     0AC2                     l2473:
  1749                           
  1750                           ;main.c: 270:     CCPR2L = valDCH;
  1751     0AC2  1683               	bsf	3,5	;RP0=1, select bank1
  1752     0AC3  1303               	bcf	3,6	;RP1=0, select bank1
  1753     0AC4  0837               	movf	_valDCH^(0+128),w
  1754     0AC5  1283               	bcf	3,5	;RP0=0, select bank0
  1755     0AC6  1303               	bcf	3,6	;RP1=0, select bank0
  1756     0AC7  009B               	movwf	27	;volatile
  1757     0AC8                     l2475:
  1758                           
  1759                           ;main.c: 272:     TMR2IF = 0;
  1760     0AC8  108C               	bcf	12,1	;volatile
  1761     0AC9                     l226:	
  1762                           ;main.c: 274:     while(!TMR2IF);
  1763                           
  1764     0AC9  1C8C               	btfss	12,1	;volatile
  1765     0ACA  2ACC               	goto	u3201
  1766     0ACB  2ACD               	goto	u3200
  1767     0ACC                     u3201:
  1768     0ACC  2AC9               	goto	l226
  1769     0ACD                     u3200:
  1770     0ACD                     l228:
  1771                           
  1772                           ;main.c: 275:     TRISCbits.TRISC1 = 0;
  1773     0ACD  1683               	bsf	3,5	;RP0=1, select bank1
  1774     0ACE  1303               	bcf	3,6	;RP1=0, select bank1
  1775     0ACF  1087               	bcf	7,1	;volatile
  1776     0AD0                     l229:
  1777     0AD0  0008               	return
  1778     0AD1                     __end_of_setupPWM2:
  1779                           
  1780                           	psect	text5
  1781     0B1F                     __ptext5:	
  1782 ;; *************** function _setupPWM *****************
  1783 ;; Defined at:
  1784 ;;		line 242 in file "main.c"
  1785 ;; Parameters:    Size  Location     Type
  1786 ;;		None
  1787 ;; Auto vars:     Size  Location     Type
  1788 ;;		None
  1789 ;; Return value:  Size  Location     Type
  1790 ;;                  1    wreg      void 
  1791 ;; Registers used:
  1792 ;;		wreg, status,2, status,0
  1793 ;; Tracked objects:
  1794 ;;		On entry : 0/0
  1795 ;;		On exit  : 0/0
  1796 ;;		Unchanged: 0/0
  1797 ;; Data sizes:     COMMON   BANK0   BANK1   BANK3   BANK2
  1798 ;;      Params:         0       0       0       0       0
  1799 ;;      Locals:         0       0       0       0       0
  1800 ;;      Temps:          1       0       0       0       0
  1801 ;;      Totals:         1       0       0       0       0
  1802 ;;Total ram usage:        1 bytes
  1803 ;; Hardware stack levels used: 1
  1804 ;; Hardware stack levels required when called: 2
  1805 ;; This function calls:
  1806 ;;		Nothing
  1807 ;; This function is called by:
  1808 ;;		_main
  1809 ;; This function uses a non-reentrant model
  1810 ;;
  1811                           
  1812     0B1F                     _setupPWM:	
  1813                           ;psect for function _setupPWM
  1814                           
  1815     0B1F                     l2451:	
  1816                           ;incstack = 0
  1817                           ; Regs used in _setupPWM: [wreg+status,2+status,0]
  1818                           
  1819                           
  1820                           ;main.c: 244:     TRISCbits.TRISC2 = 1;
  1821     0B1F  1683               	bsf	3,5	;RP0=1, select bank1
  1822     0B20  1303               	bcf	3,6	;RP1=0, select bank1
  1823     0B21  1507               	bsf	7,2	;volatile
  1824     0B22                     l2453:
  1825                           
  1826                           ;main.c: 246:     PR2 = 155;
  1827     0B22  309B               	movlw	155
  1828     0B23  0092               	movwf	18	;volatile
  1829                           
  1830                           ;main.c: 248:     CCP1CON = 0b00001100;
  1831     0B24  300C               	movlw	12
  1832     0B25  1283               	bcf	3,5	;RP0=0, select bank0
  1833     0B26  1303               	bcf	3,6	;RP1=0, select bank0
  1834     0B27  0097               	movwf	23	;volatile
  1835     0B28                     l2455:
  1836                           
  1837                           ;main.c: 250:     CCP1CONbits.DC1B = valDCL;
  1838     0B28  1683               	bsf	3,5	;RP0=1, select bank1
  1839     0B29  1303               	bcf	3,6	;RP1=0, select bank1
  1840     0B2A  0839               	movf	_valDCL^(0+128),w
  1841     0B2B  00F4               	movwf	??_setupPWM
  1842     0B2C  0EF4               	swapf	??_setupPWM,f
  1843     0B2D  1283               	bcf	3,5	;RP0=0, select bank0
  1844     0B2E  1303               	bcf	3,6	;RP1=0, select bank0
  1845     0B2F  0817               	movf	23,w	;volatile
  1846     0B30  0674               	xorwf	??_setupPWM,w
  1847     0B31  39CF               	andlw	-49
  1848     0B32  0674               	xorwf	??_setupPWM,w
  1849     0B33  0097               	movwf	23	;volatile
  1850     0B34                     l2457:
  1851                           
  1852                           ;main.c: 251:     CCPR1L = valDCH ;
  1853     0B34  1683               	bsf	3,5	;RP0=1, select bank1
  1854     0B35  1303               	bcf	3,6	;RP1=0, select bank1
  1855     0B36  0837               	movf	_valDCH^(0+128),w
  1856     0B37  1283               	bcf	3,5	;RP0=0, select bank0
  1857     0B38  1303               	bcf	3,6	;RP1=0, select bank0
  1858     0B39  0095               	movwf	21	;volatile
  1859     0B3A                     l2459:
  1860                           
  1861                           ;main.c: 253:     TMR2IF = 0;
  1862     0B3A  108C               	bcf	12,1	;volatile
  1863                           
  1864                           ;main.c: 254:     T2CONbits.T2CKPS = 0b11;
  1865     0B3B  3003               	movlw	3
  1866     0B3C  0492               	iorwf	18,f	;volatile
  1867     0B3D                     l2461:
  1868                           
  1869                           ;main.c: 255:     TMR2ON = 1;
  1870     0B3D  1512               	bsf	18,2	;volatile
  1871     0B3E                     l220:	
  1872                           ;main.c: 257:     while(!TMR2IF);
  1873                           
  1874     0B3E  1C8C               	btfss	12,1	;volatile
  1875     0B3F  2B41               	goto	u3191
  1876     0B40  2B42               	goto	u3190
  1877     0B41                     u3191:
  1878     0B41  2B3E               	goto	l220
  1879     0B42                     u3190:
  1880     0B42                     l222:
  1881                           
  1882                           ;main.c: 258:     TRISCbits.TRISC2 = 0;
  1883     0B42  1683               	bsf	3,5	;RP0=1, select bank1
  1884     0B43  1303               	bcf	3,6	;RP1=0, select bank1
  1885     0B44  1107               	bcf	7,2	;volatile
  1886     0B45                     l223:
  1887     0B45  0008               	return
  1888     0B46                     __end_of_setupPWM:
  1889                           
  1890                           	psect	text6
  1891     0AF8                     __ptext6:	
  1892 ;; *************** function _setupINTOSC *****************
  1893 ;; Defined at:
  1894 ;;		line 14 in file "oscilador.c"
  1895 ;; Parameters:    Size  Location     Type
  1896 ;;  IRCF            1    wreg     unsigned char 
  1897 ;; Auto vars:     Size  Location     Type
  1898 ;;  IRCF            1    4[COMMON] unsigned char 
  1899 ;; Return value:  Size  Location     Type
  1900 ;;                  1    wreg      void 
  1901 ;; Registers used:
  1902 ;;		wreg, status,2, status,0
  1903 ;; Tracked objects:
  1904 ;;		On entry : 0/0
  1905 ;;		On exit  : 0/0
  1906 ;;		Unchanged: 0/0
  1907 ;; Data sizes:     COMMON   BANK0   BANK1   BANK3   BANK2
  1908 ;;      Params:         0       0       0       0       0
  1909 ;;      Locals:         1       0       0       0       0
  1910 ;;      Temps:          0       0       0       0       0
  1911 ;;      Totals:         1       0       0       0       0
  1912 ;;Total ram usage:        1 bytes
  1913 ;; Hardware stack levels used: 1
  1914 ;; Hardware stack levels required when called: 2
  1915 ;; This function calls:
  1916 ;;		Nothing
  1917 ;; This function is called by:
  1918 ;;		_main
  1919 ;; This function uses a non-reentrant model
  1920 ;;
  1921                           
  1922     0AF8                     _setupINTOSC:	
  1923                           ;psect for function _setupINTOSC
  1924                           
  1925                           
  1926                           ;incstack = 0
  1927                           ; Regs used in _setupINTOSC: [wreg+status,2+status,0]
  1928                           ;setupINTOSC@IRCF stored from wreg
  1929     0AF8  00F4               	movwf	setupINTOSC@IRCF
  1930     0AF9                     l2393:
  1931                           
  1932                           ;oscilador.c: 17:     if(IRCF == 7){
  1933     0AF9  3007               	movlw	7
  1934     0AFA  0674               	xorwf	setupINTOSC@IRCF,w
  1935     0AFB  1D03               	btfss	3,2
  1936     0AFC  2AFE               	goto	u3161
  1937     0AFD  2AFF               	goto	u3160
  1938     0AFE                     u3161:
  1939     0AFE  2B03               	goto	l328
  1940     0AFF                     u3160:
  1941     0AFF                     l2395:
  1942                           
  1943                           ;oscilador.c: 18:         OSCCONbits.IRCF = 0b111;
  1944     0AFF  3070               	movlw	112
  1945     0B00  1683               	bsf	3,5	;RP0=1, select bank1
  1946     0B01  1303               	bcf	3,6	;RP1=0, select bank1
  1947     0B02  048F               	iorwf	15,f	;volatile
  1948     0B03                     l328:	
  1949                           ;oscilador.c: 19:     }
  1950                           
  1951                           
  1952                           ;oscilador.c: 20:     if(IRCF == 6){
  1953     0B03  3006               	movlw	6
  1954     0B04  0674               	xorwf	setupINTOSC@IRCF,w
  1955     0B05  1D03               	btfss	3,2
  1956     0B06  2B08               	goto	u3171
  1957     0B07  2B09               	goto	u3170
  1958     0B08                     u3171:
  1959     0B08  2B0F               	goto	l329
  1960     0B09                     u3170:
  1961     0B09                     l2397:
  1962                           
  1963                           ;oscilador.c: 21:         OSCCONbits.IRCF = 0b110;
  1964     0B09  1683               	bsf	3,5	;RP0=1, select bank1
  1965     0B0A  1303               	bcf	3,6	;RP1=0, select bank1
  1966     0B0B  080F               	movf	15,w	;volatile
  1967     0B0C  398F               	andlw	-113
  1968     0B0D  3860               	iorlw	96
  1969     0B0E  008F               	movwf	15	;volatile
  1970     0B0F                     l329:	
  1971                           ;oscilador.c: 22:     }
  1972                           
  1973                           
  1974                           ;oscilador.c: 23:     if(IRCF == 3){
  1975     0B0F  3003               	movlw	3
  1976     0B10  0674               	xorwf	setupINTOSC@IRCF,w
  1977     0B11  1D03               	btfss	3,2
  1978     0B12  2B14               	goto	u3181
  1979     0B13  2B15               	goto	u3180
  1980     0B14                     u3181:
  1981     0B14  2B1B               	goto	l2401
  1982     0B15                     u3180:
  1983     0B15                     l2399:
  1984                           
  1985                           ;oscilador.c: 24:         OSCCONbits.IRCF = 0b011;
  1986     0B15  1683               	bsf	3,5	;RP0=1, select bank1
  1987     0B16  1303               	bcf	3,6	;RP1=0, select bank1
  1988     0B17  080F               	movf	15,w	;volatile
  1989     0B18  398F               	andlw	-113
  1990     0B19  3830               	iorlw	48
  1991     0B1A  008F               	movwf	15	;volatile
  1992     0B1B                     l2401:
  1993                           
  1994                           ;oscilador.c: 27:     OSCCONbits.SCS = 1;
  1995     0B1B  1683               	bsf	3,5	;RP0=1, select bank1
  1996     0B1C  1303               	bcf	3,6	;RP1=0, select bank1
  1997     0B1D  140F               	bsf	15,0	;volatile
  1998     0B1E                     l331:
  1999     0B1E  0008               	return
  2000     0B1F                     __end_of_setupINTOSC:
  2001                           
  2002                           	psect	text7
  2003     0B9B                     __ptext7:	
  2004 ;; *************** function _setupADC *****************
  2005 ;; Defined at:
  2006 ;;		line 212 in file "main.c"
  2007 ;; Parameters:    Size  Location     Type
  2008 ;;		None
  2009 ;; Auto vars:     Size  Location     Type
  2010 ;;		None
  2011 ;; Return value:  Size  Location     Type
  2012 ;;                  1    wreg      void 
  2013 ;; Registers used:
  2014 ;;		wreg, status,2
  2015 ;; Tracked objects:
  2016 ;;		On entry : 0/0
  2017 ;;		On exit  : 0/0
  2018 ;;		Unchanged: 0/0
  2019 ;; Data sizes:     COMMON   BANK0   BANK1   BANK3   BANK2
  2020 ;;      Params:         0       0       0       0       0
  2021 ;;      Locals:         0       0       0       0       0
  2022 ;;      Temps:          1       0       0       0       0
  2023 ;;      Totals:         1       0       0       0       0
  2024 ;;Total ram usage:        1 bytes
  2025 ;; Hardware stack levels used: 1
  2026 ;; Hardware stack levels required when called: 2
  2027 ;; This function calls:
  2028 ;;		Nothing
  2029 ;; This function is called by:
  2030 ;;		_main
  2031 ;; This function uses a non-reentrant model
  2032 ;;
  2033                           
  2034     0B9B                     _setupADC:	
  2035                           ;psect for function _setupADC
  2036                           
  2037     0B9B                     l2419:	
  2038                           ;incstack = 0
  2039                           ; Regs used in _setupADC: [wreg+status,2]
  2040                           
  2041                           
  2042                           ;main.c: 215:     ANSELH = 0;
  2043     0B9B  1683               	bsf	3,5	;RP0=1, select bank3
  2044     0B9C  1703               	bsf	3,6	;RP1=1, select bank3
  2045     0B9D  0189               	clrf	9	;volatile
  2046     0B9E                     l2421:
  2047                           
  2048                           ;main.c: 216:     TRISAbits.TRISA5 = 1;
  2049     0B9E  1683               	bsf	3,5	;RP0=1, select bank1
  2050     0B9F  1303               	bcf	3,6	;RP1=0, select bank1
  2051     0BA0  1685               	bsf	5,5	;volatile
  2052     0BA1                     l2423:
  2053                           
  2054                           ;main.c: 217:     ANSELbits.ANS5 = 1;
  2055     0BA1  1683               	bsf	3,5	;RP0=1, select bank3
  2056     0BA2  1703               	bsf	3,6	;RP1=1, select bank3
  2057     0BA3  1688               	bsf	8,5	;volatile
  2058     0BA4                     l2425:
  2059                           
  2060                           ;main.c: 218:     TRISAbits.TRISA1 = 1;
  2061     0BA4  1683               	bsf	3,5	;RP0=1, select bank1
  2062     0BA5  1303               	bcf	3,6	;RP1=0, select bank1
  2063     0BA6  1485               	bsf	5,1	;volatile
  2064     0BA7                     l2427:
  2065                           
  2066                           ;main.c: 219:     ANSELbits.ANS1 = 1;
  2067     0BA7  1683               	bsf	3,5	;RP0=1, select bank3
  2068     0BA8  1703               	bsf	3,6	;RP1=1, select bank3
  2069     0BA9  1488               	bsf	8,1	;volatile
  2070     0BAA                     l2429:
  2071                           
  2072                           ;main.c: 220:     TRISAbits.TRISA2 = 1;
  2073     0BAA  1683               	bsf	3,5	;RP0=1, select bank1
  2074     0BAB  1303               	bcf	3,6	;RP1=0, select bank1
  2075     0BAC  1505               	bsf	5,2	;volatile
  2076     0BAD                     l2431:
  2077                           
  2078                           ;main.c: 221:     ANSELbits.ANS2 = 1;
  2079     0BAD  1683               	bsf	3,5	;RP0=1, select bank3
  2080     0BAE  1703               	bsf	3,6	;RP1=1, select bank3
  2081     0BAF  1508               	bsf	8,2	;volatile
  2082     0BB0                     l2433:
  2083                           
  2084                           ;main.c: 222:     TRISAbits.TRISA3 = 1;
  2085     0BB0  1683               	bsf	3,5	;RP0=1, select bank1
  2086     0BB1  1303               	bcf	3,6	;RP1=0, select bank1
  2087     0BB2  1585               	bsf	5,3	;volatile
  2088     0BB3                     l2435:
  2089                           
  2090                           ;main.c: 223:     ANSELbits.ANS3 = 1;
  2091     0BB3  1683               	bsf	3,5	;RP0=1, select bank3
  2092     0BB4  1703               	bsf	3,6	;RP1=1, select bank3
  2093     0BB5  1588               	bsf	8,3	;volatile
  2094     0BB6                     l2437:
  2095                           
  2096                           ;main.c: 228:     ADCON0bits.ADCS1 = 0;
  2097     0BB6  1283               	bcf	3,5	;RP0=0, select bank0
  2098     0BB7  1303               	bcf	3,6	;RP1=0, select bank0
  2099     0BB8  139F               	bcf	31,7	;volatile
  2100     0BB9                     l2439:
  2101                           
  2102                           ;main.c: 229:     ADCON0bits.ADCS0 = 1;
  2103     0BB9  171F               	bsf	31,6	;volatile
  2104     0BBA                     l2441:
  2105                           
  2106                           ;main.c: 231:     ADCON1bits.VCFG1 = 0;
  2107     0BBA  1683               	bsf	3,5	;RP0=1, select bank1
  2108     0BBB  1303               	bcf	3,6	;RP1=0, select bank1
  2109     0BBC  129F               	bcf	31,5	;volatile
  2110     0BBD                     l2443:
  2111                           
  2112                           ;main.c: 232:     ADCON1bits.VCFG0 = 0;
  2113     0BBD  121F               	bcf	31,4	;volatile
  2114     0BBE                     l2445:
  2115                           
  2116                           ;main.c: 234:     ADCON1bits.ADFM = 0;
  2117     0BBE  139F               	bcf	31,7	;volatile
  2118     0BBF                     l2447:
  2119                           
  2120                           ;main.c: 236:     ADCON0bits.ADON = 1;
  2121     0BBF  1283               	bcf	3,5	;RP0=0, select bank0
  2122     0BC0  1303               	bcf	3,6	;RP1=0, select bank0
  2123     0BC1  141F               	bsf	31,0	;volatile
  2124     0BC2                     l2449:
  2125                           
  2126                           ;main.c: 237:     _delay((unsigned long)((100)*(500000/4000000.0)));
  2127     0BC2  3003               	movlw	3
  2128     0BC3  00F4               	movwf	??_setupADC
  2129     0BC4                     u4677:
  2130     0BC4  0BF4               	decfsz	??_setupADC,f
  2131     0BC5  2BC4               	goto	u4677
  2132     0BC6  2BC7               	nop2
  2133     0BC7                     l217:
  2134     0BC7  0008               	return
  2135     0BC8                     __end_of_setupADC:
  2136                           
  2137                           	psect	text8
  2138     0A94                     __ptext8:	
  2139 ;; *************** function _setup *****************
  2140 ;; Defined at:
  2141 ;;		line 193 in file "main.c"
  2142 ;; Parameters:    Size  Location     Type
  2143 ;;		None
  2144 ;; Auto vars:     Size  Location     Type
  2145 ;;		None
  2146 ;; Return value:  Size  Location     Type
  2147 ;;                  1    wreg      void 
  2148 ;; Registers used:
  2149 ;;		wreg, status,2
  2150 ;; Tracked objects:
  2151 ;;		On entry : 0/0
  2152 ;;		On exit  : 0/0
  2153 ;;		Unchanged: 0/0
  2154 ;; Data sizes:     COMMON   BANK0   BANK1   BANK3   BANK2
  2155 ;;      Params:         0       0       0       0       0
  2156 ;;      Locals:         0       0       0       0       0
  2157 ;;      Temps:          0       0       0       0       0
  2158 ;;      Totals:         0       0       0       0       0
  2159 ;;Total ram usage:        0 bytes
  2160 ;; Hardware stack levels used: 1
  2161 ;; Hardware stack levels required when called: 2
  2162 ;; This function calls:
  2163 ;;		Nothing
  2164 ;; This function is called by:
  2165 ;;		_main
  2166 ;; This function uses a non-reentrant model
  2167 ;;
  2168                           
  2169     0A94                     _setup:	
  2170                           ;psect for function _setup
  2171                           
  2172     0A94                     l2375:	
  2173                           ;incstack = 0
  2174                           ; Regs used in _setup: [wreg+status,2]
  2175                           
  2176                           
  2177                           ;main.c: 194:     ANSELH = 0;
  2178     0A94  1683               	bsf	3,5	;RP0=1, select bank3
  2179     0A95  1703               	bsf	3,6	;RP1=1, select bank3
  2180     0A96  0189               	clrf	9	;volatile
  2181                           
  2182                           ;main.c: 195:     PORTA = 0;
  2183     0A97  1283               	bcf	3,5	;RP0=0, select bank0
  2184     0A98  1303               	bcf	3,6	;RP1=0, select bank0
  2185     0A99  0185               	clrf	5	;volatile
  2186                           
  2187                           ;main.c: 196:     PORTC = 0;
  2188     0A9A  0187               	clrf	7	;volatile
  2189                           
  2190                           ;main.c: 197:     PORTD = 0;
  2191     0A9B  0188               	clrf	8	;volatile
  2192                           
  2193                           ;main.c: 198:     TRISD = 0;
  2194     0A9C  1683               	bsf	3,5	;RP0=1, select bank1
  2195     0A9D  1303               	bcf	3,6	;RP1=0, select bank1
  2196     0A9E  0188               	clrf	8	;volatile
  2197     0A9F                     l2377:
  2198                           
  2199                           ;main.c: 199:     TRISC = 0b10000000;
  2200     0A9F  3080               	movlw	128
  2201     0AA0  0087               	movwf	7	;volatile
  2202     0AA1                     l2379:
  2203                           
  2204                           ;main.c: 200:     PIE1bits.ADIE = 1;
  2205     0AA1  170C               	bsf	12,6	;volatile
  2206     0AA2                     l2381:
  2207                           
  2208                           ;main.c: 201:     PIR1bits.ADIF = 0;
  2209     0AA2  1283               	bcf	3,5	;RP0=0, select bank0
  2210     0AA3  1303               	bcf	3,6	;RP1=0, select bank0
  2211     0AA4  130C               	bcf	12,6	;volatile
  2212     0AA5                     l2383:
  2213                           
  2214                           ;main.c: 203:     INTCONbits.RBIE = 1;
  2215     0AA5  158B               	bsf	11,3	;volatile
  2216     0AA6                     l2385:
  2217                           
  2218                           ;main.c: 204:     INTCONbits.RBIF = 0;
  2219     0AA6  100B               	bcf	11,0	;volatile
  2220     0AA7                     l2387:
  2221                           
  2222                           ;main.c: 205:     IOCB = 0b0000111;
  2223     0AA7  3007               	movlw	7
  2224     0AA8  1683               	bsf	3,5	;RP0=1, select bank1
  2225     0AA9  1303               	bcf	3,6	;RP1=0, select bank1
  2226     0AAA  0096               	movwf	22	;volatile
  2227     0AAB                     l2389:
  2228                           
  2229                           ;main.c: 206:     WPUB = 0b0000111;
  2230     0AAB  3007               	movlw	7
  2231     0AAC  0095               	movwf	21	;volatile
  2232     0AAD                     l2391:
  2233                           
  2234                           ;main.c: 207:     OPTION_REGbits.nRBPU = 0;
  2235     0AAD  1381               	bcf	1,7	;volatile
  2236     0AAE                     l214:
  2237     0AAE  0008               	return
  2238     0AAF                     __end_of_setup:
  2239                           
  2240                           	psect	text9
  2241     0A7D                     __ptext9:	
  2242 ;; *************** function _readEEPROM *****************
  2243 ;; Defined at:
  2244 ;;		line 366 in file "main.c"
  2245 ;; Parameters:    Size  Location     Type
  2246 ;;  address         1    wreg     unsigned char 
  2247 ;; Auto vars:     Size  Location     Type
  2248 ;;  address         1    4[COMMON] unsigned char 
  2249 ;; Return value:  Size  Location     Type
  2250 ;;                  1    wreg      unsigned char 
  2251 ;; Registers used:
  2252 ;;		wreg
  2253 ;; Tracked objects:
  2254 ;;		On entry : 0/0
  2255 ;;		On exit  : 0/0
  2256 ;;		Unchanged: 0/0
  2257 ;; Data sizes:     COMMON   BANK0   BANK1   BANK3   BANK2
  2258 ;;      Params:         0       0       0       0       0
  2259 ;;      Locals:         1       0       0       0       0
  2260 ;;      Temps:          0       0       0       0       0
  2261 ;;      Totals:         1       0       0       0       0
  2262 ;;Total ram usage:        1 bytes
  2263 ;; Hardware stack levels used: 1
  2264 ;; Hardware stack levels required when called: 2
  2265 ;; This function calls:
  2266 ;;		Nothing
  2267 ;; This function is called by:
  2268 ;;		_main
  2269 ;; This function uses a non-reentrant model
  2270 ;;
  2271                           
  2272     0A7D                     _readEEPROM:	
  2273                           ;psect for function _readEEPROM
  2274                           
  2275                           
  2276                           ;incstack = 0
  2277                           ; Regs used in _readEEPROM: [wreg]
  2278                           ;readEEPROM@address stored from wreg
  2279     0A7D  00F4               	movwf	readEEPROM@address
  2280     0A7E                     l2653:
  2281     0A7E                     l262:	
  2282                           ;main.c: 367:     while (WR||RD);
  2283                           
  2284     0A7E  1683               	bsf	3,5	;RP0=1, select bank3
  2285     0A7F  1703               	bsf	3,6	;RP1=1, select bank3
  2286     0A80  188C               	btfsc	12,1	;volsfr
  2287     0A81  2A83               	goto	u3511
  2288     0A82  2A84               	goto	u3510
  2289     0A83                     u3511:
  2290     0A83  2A7E               	goto	l262
  2291     0A84                     u3510:
  2292     0A84                     l2655:
  2293     0A84  180C               	btfsc	12,0	;volsfr
  2294     0A85  2A87               	goto	u3521
  2295     0A86  2A88               	goto	u3520
  2296     0A87                     u3521:
  2297     0A87  2A7E               	goto	l262
  2298     0A88                     u3520:
  2299     0A88                     l2657:
  2300                           
  2301                           ;main.c: 368:     EEADR = address;
  2302     0A88  0874               	movf	readEEPROM@address,w
  2303     0A89  1283               	bcf	3,5	;RP0=0, select bank2
  2304     0A8A  1703               	bsf	3,6	;RP1=1, select bank2
  2305     0A8B  008D               	movwf	13	;volatile
  2306     0A8C                     l2659:
  2307                           
  2308                           ;main.c: 369:     EECON1bits.EEPGD = 0;
  2309     0A8C  1683               	bsf	3,5	;RP0=1, select bank3
  2310     0A8D  1703               	bsf	3,6	;RP1=1, select bank3
  2311     0A8E  138C               	bcf	12,7	;volsfr
  2312     0A8F                     l2661:
  2313                           
  2314                           ;main.c: 370:     EECON1bits.RD = 1;
  2315     0A8F  140C               	bsf	12,0	;volsfr
  2316                           
  2317                           ;main.c: 371:     return EEDAT;
  2318     0A90  1283               	bcf	3,5	;RP0=0, select bank2
  2319     0A91  1703               	bsf	3,6	;RP1=1, select bank2
  2320     0A92  080C               	movf	12,w	;volatile
  2321     0A93                     l265:
  2322     0A93  0008               	return
  2323     0A94                     __end_of_readEEPROM:
  2324                           
  2325                           	psect	text10
  2326     0A67                     __ptext10:	
  2327 ;; *************** function _initUART *****************
  2328 ;; Defined at:
  2329 ;;		line 424 in file "main.c"
  2330 ;; Parameters:    Size  Location     Type
  2331 ;;		None
  2332 ;; Auto vars:     Size  Location     Type
  2333 ;;		None
  2334 ;; Return value:  Size  Location     Type
  2335 ;;                  1    wreg      void 
  2336 ;; Registers used:
  2337 ;;		wreg
  2338 ;; Tracked objects:
  2339 ;;		On entry : 0/0
  2340 ;;		On exit  : 0/0
  2341 ;;		Unchanged: 0/0
  2342 ;; Data sizes:     COMMON   BANK0   BANK1   BANK3   BANK2
  2343 ;;      Params:         0       0       0       0       0
  2344 ;;      Locals:         0       0       0       0       0
  2345 ;;      Temps:          0       0       0       0       0
  2346 ;;      Totals:         0       0       0       0       0
  2347 ;;Total ram usage:        0 bytes
  2348 ;; Hardware stack levels used: 1
  2349 ;; Hardware stack levels required when called: 2
  2350 ;; This function calls:
  2351 ;;		Nothing
  2352 ;; This function is called by:
  2353 ;;		_main
  2354 ;; This function uses a non-reentrant model
  2355 ;;
  2356                           
  2357     0A67                     _initUART:	
  2358                           ;psect for function _initUART
  2359                           
  2360     0A67                     l2403:	
  2361                           ;incstack = 0
  2362                           ; Regs used in _initUART: [wreg]
  2363                           
  2364                           
  2365                           ;main.c: 426:     SPBRG = 12;
  2366     0A67  300C               	movlw	12
  2367     0A68  1683               	bsf	3,5	;RP0=1, select bank1
  2368     0A69  1303               	bcf	3,6	;RP1=0, select bank1
  2369     0A6A  0099               	movwf	25	;volatile
  2370     0A6B                     l2405:
  2371                           
  2372                           ;main.c: 428:     TXSTAbits.SYNC = 0;
  2373     0A6B  1218               	bcf	24,4	;volatile
  2374     0A6C                     l2407:
  2375                           
  2376                           ;main.c: 429:     RCSTAbits.SPEN = 1;
  2377     0A6C  1283               	bcf	3,5	;RP0=0, select bank0
  2378     0A6D  1303               	bcf	3,6	;RP1=0, select bank0
  2379     0A6E  1798               	bsf	24,7	;volatile
  2380     0A6F                     l2409:
  2381                           
  2382                           ;main.c: 431:     TXSTAbits.BRGH = 1;
  2383     0A6F  1683               	bsf	3,5	;RP0=1, select bank1
  2384     0A70  1303               	bcf	3,6	;RP1=0, select bank1
  2385     0A71  1518               	bsf	24,2	;volatile
  2386     0A72                     l2411:
  2387                           
  2388                           ;main.c: 432:     BAUDCTLbits.BRG16 = 1;
  2389     0A72  1683               	bsf	3,5	;RP0=1, select bank3
  2390     0A73  1703               	bsf	3,6	;RP1=1, select bank3
  2391     0A74  1587               	bsf	7,3	;volatile
  2392     0A75                     l2413:
  2393                           
  2394                           ;main.c: 434:     TXSTAbits.TXEN = 1;
  2395     0A75  1683               	bsf	3,5	;RP0=1, select bank1
  2396     0A76  1303               	bcf	3,6	;RP1=0, select bank1
  2397     0A77  1698               	bsf	24,5	;volatile
  2398     0A78                     l2415:
  2399                           
  2400                           ;main.c: 435:     PIR1bits.TXIF = 0;
  2401     0A78  1283               	bcf	3,5	;RP0=0, select bank0
  2402     0A79  1303               	bcf	3,6	;RP1=0, select bank0
  2403     0A7A  120C               	bcf	12,4	;volatile
  2404     0A7B                     l2417:
  2405                           
  2406                           ;main.c: 436:     RCSTAbits.CREN = 1;
  2407     0A7B  1618               	bsf	24,4	;volatile
  2408     0A7C                     l289:
  2409     0A7C  0008               	return
  2410     0A7D                     __end_of_initUART:
  2411                           
  2412                           	psect	text11
  2413     0F15                     __ptext11:	
  2414 ;; *************** function _controlmotores *****************
  2415 ;; Defined at:
  2416 ;;		line 315 in file "main.c"
  2417 ;; Parameters:    Size  Location     Type
  2418 ;;		None
  2419 ;; Auto vars:     Size  Location     Type
  2420 ;;		None
  2421 ;; Return value:  Size  Location     Type
  2422 ;;                  1    wreg      void 
  2423 ;; Registers used:
  2424 ;;		wreg, status,2, status,0, btemp+1, pclath, cstack
  2425 ;; Tracked objects:
  2426 ;;		On entry : 0/0
  2427 ;;		On exit  : 0/0
  2428 ;;		Unchanged: 0/0
  2429 ;; Data sizes:     COMMON   BANK0   BANK1   BANK3   BANK2
  2430 ;;      Params:         0       0       0       0       0
  2431 ;;      Locals:         0       0       0       0       0
  2432 ;;      Temps:          0       3       0       0       0
  2433 ;;      Totals:         0       3       0       0       0
  2434 ;;Total ram usage:        3 bytes
  2435 ;; Hardware stack levels used: 1
  2436 ;; Hardware stack levels required when called: 5
  2437 ;; This function calls:
  2438 ;;		_map
  2439 ;;		_mapeo
  2440 ;; This function is called by:
  2441 ;;		_main
  2442 ;; This function uses a non-reentrant model
  2443 ;;
  2444                           
  2445     0F15                     _controlmotores:	
  2446                           ;psect for function _controlmotores
  2447                           
  2448     0F15                     l3071:	
  2449                           ;incstack = 0
  2450                           ; Regs used in _controlmotores: [wreg+status,2+status,0+btemp+1+pclath+cstack]
  2451                           
  2452                           
  2453                           ;main.c: 317:     ADCON0bits.CHS = 0b0001;
  2454     0F15  1283               	bcf	3,5	;RP0=0, select bank0
  2455     0F16  1303               	bcf	3,6	;RP1=0, select bank0
  2456     0F17  081F               	movf	31,w	;volatile
  2457     0F18  39C3               	andlw	-61
  2458     0F19  3804               	iorlw	4
  2459     0F1A  009F               	movwf	31	;volatile
  2460     0F1B                     l3073:
  2461                           
  2462                           ;main.c: 318:     _delay((unsigned long)((100)*(500000/4000000.0)));
  2463     0F1B  3003               	movlw	3
  2464     0F1C  1283               	bcf	3,5	;RP0=0, select bank0
  2465     0F1D  1303               	bcf	3,6	;RP1=0, select bank0
  2466     0F1E  00E6               	movwf	??_controlmotores
  2467     0F1F                     u4687:
  2468     0F1F  0BE6               	decfsz	??_controlmotores,f
  2469     0F20  2F1F               	goto	u4687
  2470     0F21                     l3075:
  2471                           
  2472                           ;main.c: 319:     ADCON0bits.GO = 1;
  2473     0F21  1283               	bcf	3,5	;RP0=0, select bank0
  2474     0F22  1303               	bcf	3,6	;RP1=0, select bank0
  2475     0F23  149F               	bsf	31,1	;volatile
  2476     0F24                     l247:	
  2477                           ;main.c: 321:     while(ADCON0bits.GO == 1);
  2478                           
  2479     0F24  189F               	btfsc	31,1	;volatile
  2480     0F25  2F27               	goto	u4461
  2481     0F26  2F28               	goto	u4460
  2482     0F27                     u4461:
  2483     0F27  2F24               	goto	l247
  2484     0F28                     u4460:
  2485     0F28                     l249:
  2486                           
  2487                           ;main.c: 322:     ADIF = 0;
  2488     0F28  130C               	bcf	12,6	;volatile
  2489     0F29                     l3077:
  2490                           
  2491                           ;main.c: 323:     mapeo();
  2492     0F29  120A  158A  25AE  120A  158A  	fcall	_mapeo
  2493     0F2E                     l3079:
  2494                           
  2495                           ;main.c: 324:     CCP1CONbits.DC1B = valDCL;
  2496     0F2E  1683               	bsf	3,5	;RP0=1, select bank1
  2497     0F2F  1303               	bcf	3,6	;RP1=0, select bank1
  2498     0F30  0839               	movf	_valDCL^(0+128),w
  2499     0F31  1283               	bcf	3,5	;RP0=0, select bank0
  2500     0F32  1303               	bcf	3,6	;RP1=0, select bank0
  2501     0F33  00E6               	movwf	??_controlmotores
  2502     0F34  0EE6               	swapf	??_controlmotores,f
  2503     0F35  0817               	movf	23,w	;volatile
  2504     0F36  0666               	xorwf	??_controlmotores,w
  2505     0F37  39CF               	andlw	-49
  2506     0F38  0666               	xorwf	??_controlmotores,w
  2507     0F39  0097               	movwf	23	;volatile
  2508     0F3A                     l3081:
  2509                           
  2510                           ;main.c: 325:     CCPR1L = valDCH;
  2511     0F3A  1683               	bsf	3,5	;RP0=1, select bank1
  2512     0F3B  1303               	bcf	3,6	;RP1=0, select bank1
  2513     0F3C  0837               	movf	_valDCH^(0+128),w
  2514     0F3D  1283               	bcf	3,5	;RP0=0, select bank0
  2515     0F3E  1303               	bcf	3,6	;RP1=0, select bank0
  2516     0F3F  0095               	movwf	21	;volatile
  2517     0F40                     l3083:
  2518                           
  2519                           ;main.c: 326:     _delay((unsigned long)((1)*(500000/4000.0)));
  2520     0F40  3028               	movlw	40
  2521     0F41  1283               	bcf	3,5	;RP0=0, select bank0
  2522     0F42  1303               	bcf	3,6	;RP1=0, select bank0
  2523     0F43  00E6               	movwf	??_controlmotores
  2524     0F44                     u4697:
  2525     0F44  0BE6               	decfsz	??_controlmotores,f
  2526     0F45  2F44               	goto	u4697
  2527     0F46  2F47               	nop2
  2528     0F47                     l3085:
  2529                           
  2530                           ;main.c: 329:     ADCON0bits.CHS = 0b0010;
  2531     0F47  1283               	bcf	3,5	;RP0=0, select bank0
  2532     0F48  1303               	bcf	3,6	;RP1=0, select bank0
  2533     0F49  081F               	movf	31,w	;volatile
  2534     0F4A  39C3               	andlw	-61
  2535     0F4B  3808               	iorlw	8
  2536     0F4C  009F               	movwf	31	;volatile
  2537     0F4D                     l3087:
  2538                           
  2539                           ;main.c: 330:     _delay((unsigned long)((100)*(500000/4000000.0)));
  2540     0F4D  3003               	movlw	3
  2541     0F4E  1283               	bcf	3,5	;RP0=0, select bank0
  2542     0F4F  1303               	bcf	3,6	;RP1=0, select bank0
  2543     0F50  00E6               	movwf	??_controlmotores
  2544     0F51                     u4707:
  2545     0F51  0BE6               	decfsz	??_controlmotores,f
  2546     0F52  2F51               	goto	u4707
  2547     0F53                     l3089:
  2548                           
  2549                           ;main.c: 331:     ADCON0bits.GO = 1;
  2550     0F53  1283               	bcf	3,5	;RP0=0, select bank0
  2551     0F54  1303               	bcf	3,6	;RP1=0, select bank0
  2552     0F55  149F               	bsf	31,1	;volatile
  2553     0F56                     l250:	
  2554                           ;main.c: 333:     while(ADCON0bits.GO == 1);
  2555                           
  2556     0F56  189F               	btfsc	31,1	;volatile
  2557     0F57  2F59               	goto	u4471
  2558     0F58  2F5A               	goto	u4470
  2559     0F59                     u4471:
  2560     0F59  2F56               	goto	l250
  2561     0F5A                     u4470:
  2562     0F5A                     l252:
  2563                           
  2564                           ;main.c: 334:     ADIF = 0;
  2565     0F5A  130C               	bcf	12,6	;volatile
  2566     0F5B                     l3091:
  2567                           
  2568                           ;main.c: 335:     mapeo();
  2569     0F5B  120A  158A  25AE  120A  158A  	fcall	_mapeo
  2570     0F60                     l3093:
  2571                           
  2572                           ;main.c: 336:     CCP2CONbits.DC2B0 = valDCL & 0x01;
  2573     0F60  1683               	bsf	3,5	;RP0=1, select bank1
  2574     0F61  1303               	bcf	3,6	;RP1=0, select bank1
  2575     0F62  0839               	movf	_valDCL^(0+128),w
  2576     0F63  3901               	andlw	1
  2577     0F64  1283               	bcf	3,5	;RP0=0, select bank0
  2578     0F65  1303               	bcf	3,6	;RP1=0, select bank0
  2579     0F66  00E6               	movwf	??_controlmotores
  2580     0F67  0EE6               	swapf	??_controlmotores,f
  2581     0F68  081D               	movf	29,w	;volatile
  2582     0F69  0666               	xorwf	??_controlmotores,w
  2583     0F6A  39EF               	andlw	-17
  2584     0F6B  0666               	xorwf	??_controlmotores,w
  2585     0F6C  009D               	movwf	29	;volatile
  2586     0F6D                     l3095:
  2587                           
  2588                           ;main.c: 337:     CCP2CONbits.DC2B1 = (valDCL & 0x02) >> 1;
  2589     0F6D  1683               	bsf	3,5	;RP0=1, select bank1
  2590     0F6E  1303               	bcf	3,6	;RP1=0, select bank1
  2591     0F6F  083A               	movf	(_valDCL+1)^(0+128),w
  2592     0F70  1283               	bcf	3,5	;RP0=0, select bank0
  2593     0F71  1303               	bcf	3,6	;RP1=0, select bank0
  2594     0F72  00E7               	movwf	??_controlmotores+1
  2595     0F73  1683               	bsf	3,5	;RP0=1, select bank1
  2596     0F74  1303               	bcf	3,6	;RP1=0, select bank1
  2597     0F75  0839               	movf	_valDCL^(0+128),w
  2598     0F76  1283               	bcf	3,5	;RP0=0, select bank0
  2599     0F77  1303               	bcf	3,6	;RP1=0, select bank0
  2600     0F78  00E6               	movwf	??_controlmotores
  2601     0F79  1003               	clrc
  2602     0F7A  0CE7               	rrf	??_controlmotores+1,f
  2603     0F7B  0CE6               	rrf	??_controlmotores,f
  2604     0F7C  0866               	movf	??_controlmotores,w
  2605     0F7D  3901               	andlw	1
  2606     0F7E  00E8               	movwf	??_controlmotores+2
  2607     0F7F  0EE8               	swapf	??_controlmotores+2,f
  2608     0F80  0DE8               	rlf	??_controlmotores+2,f
  2609     0F81  081D               	movf	29,w	;volatile
  2610     0F82  0668               	xorwf	??_controlmotores+2,w
  2611     0F83  39DF               	andlw	-33
  2612     0F84  0668               	xorwf	??_controlmotores+2,w
  2613     0F85  009D               	movwf	29	;volatile
  2614     0F86                     l3097:
  2615                           
  2616                           ;main.c: 338:     CCPR2L = valDCH;
  2617     0F86  1683               	bsf	3,5	;RP0=1, select bank1
  2618     0F87  1303               	bcf	3,6	;RP1=0, select bank1
  2619     0F88  0837               	movf	_valDCH^(0+128),w
  2620     0F89  1283               	bcf	3,5	;RP0=0, select bank0
  2621     0F8A  1303               	bcf	3,6	;RP1=0, select bank0
  2622     0F8B  009B               	movwf	27	;volatile
  2623     0F8C                     l3099:
  2624                           
  2625                           ;main.c: 339:     _delay((unsigned long)((1)*(500000/4000.0)));
  2626     0F8C  3028               	movlw	40
  2627     0F8D  1283               	bcf	3,5	;RP0=0, select bank0
  2628     0F8E  1303               	bcf	3,6	;RP1=0, select bank0
  2629     0F8F  00E6               	movwf	??_controlmotores
  2630     0F90                     u4717:
  2631     0F90  0BE6               	decfsz	??_controlmotores,f
  2632     0F91  2F90               	goto	u4717
  2633     0F92  2F93               	nop2
  2634     0F93                     l3101:
  2635                           
  2636                           ;main.c: 343:     ADCON0bits.CHS = 0b0011;
  2637     0F93  1283               	bcf	3,5	;RP0=0, select bank0
  2638     0F94  1303               	bcf	3,6	;RP1=0, select bank0
  2639     0F95  081F               	movf	31,w	;volatile
  2640     0F96  39C3               	andlw	-61
  2641     0F97  380C               	iorlw	12
  2642     0F98  009F               	movwf	31	;volatile
  2643     0F99                     l3103:
  2644                           
  2645                           ;main.c: 344:     _delay((unsigned long)((100)*(500000/4000000.0)));
  2646     0F99  3003               	movlw	3
  2647     0F9A  1283               	bcf	3,5	;RP0=0, select bank0
  2648     0F9B  1303               	bcf	3,6	;RP1=0, select bank0
  2649     0F9C  00E6               	movwf	??_controlmotores
  2650     0F9D                     u4727:
  2651     0F9D  0BE6               	decfsz	??_controlmotores,f
  2652     0F9E  2F9D               	goto	u4727
  2653     0F9F                     l3105:
  2654                           
  2655                           ;main.c: 345:     ADCON0bits.GO = 1;
  2656     0F9F  1283               	bcf	3,5	;RP0=0, select bank0
  2657     0FA0  1303               	bcf	3,6	;RP1=0, select bank0
  2658     0FA1  149F               	bsf	31,1	;volatile
  2659     0FA2                     l253:	
  2660                           ;main.c: 347:     while(ADCON0bits.GO == 1);
  2661                           
  2662     0FA2  189F               	btfsc	31,1	;volatile
  2663     0FA3  2FA5               	goto	u4481
  2664     0FA4  2FA6               	goto	u4480
  2665     0FA5                     u4481:
  2666     0FA5  2FA2               	goto	l253
  2667     0FA6                     u4480:
  2668     0FA6                     l255:
  2669                           
  2670                           ;main.c: 348:     ADIF = 0;
  2671     0FA6  130C               	bcf	12,6	;volatile
  2672     0FA7                     l3107:
  2673                           
  2674                           ;main.c: 349:     pot = map(ADRESH, 0, 255, 1, 17);
  2675     0FA7  3000               	movlw	0
  2676     0FA8  00AD               	movwf	map@inputmin
  2677     0FA9  00AE               	movwf	map@inputmin+1
  2678     0FAA  30FF               	movlw	255
  2679     0FAB  00AF               	movwf	map@inputmax
  2680     0FAC  3000               	movlw	0
  2681     0FAD  00B0               	movwf	map@inputmax+1
  2682     0FAE  3001               	movlw	1
  2683     0FAF  00B1               	movwf	map@outmin
  2684     0FB0  3000               	movlw	0
  2685     0FB1  00B2               	movwf	map@outmin+1
  2686     0FB2  3011               	movlw	17
  2687     0FB3  00B3               	movwf	map@outmax
  2688     0FB4  3000               	movlw	0
  2689     0FB5  00B4               	movwf	map@outmax+1
  2690     0FB6  081E               	movf	30,w	;volatile
  2691     0FB7  120A  158A  23C8  120A  158A  	fcall	_map
  2692     0FBC  1283               	bcf	3,5	;RP0=0, select bank0
  2693     0FBD  1303               	bcf	3,6	;RP1=0, select bank0
  2694     0FBE  082E               	movf	?_map+1,w
  2695     0FBF  00EE               	movwf	_pot+1
  2696     0FC0  082D               	movf	?_map,w
  2697     0FC1  00ED               	movwf	_pot
  2698     0FC2                     l3109:
  2699                           
  2700                           ;main.c: 350:     _delay((unsigned long)((1)*(500000/4000.0)));
  2701     0FC2  3028               	movlw	40
  2702     0FC3  1283               	bcf	3,5	;RP0=0, select bank0
  2703     0FC4  1303               	bcf	3,6	;RP1=0, select bank0
  2704     0FC5  00E6               	movwf	??_controlmotores
  2705     0FC6                     u4737:
  2706     0FC6  0BE6               	decfsz	??_controlmotores,f
  2707     0FC7  2FC6               	goto	u4737
  2708     0FC8  2FC9               	nop2
  2709     0FC9                     l3111:
  2710                           
  2711                           ;main.c: 353:     ADCON0bits.CHS = 0b0100;
  2712     0FC9  1283               	bcf	3,5	;RP0=0, select bank0
  2713     0FCA  1303               	bcf	3,6	;RP1=0, select bank0
  2714     0FCB  081F               	movf	31,w	;volatile
  2715     0FCC  39C3               	andlw	-61
  2716     0FCD  3810               	iorlw	16
  2717     0FCE  009F               	movwf	31	;volatile
  2718     0FCF                     l3113:
  2719                           
  2720                           ;main.c: 354:     _delay((unsigned long)((100)*(500000/4000000.0)));
  2721     0FCF  3003               	movlw	3
  2722     0FD0  1283               	bcf	3,5	;RP0=0, select bank0
  2723     0FD1  1303               	bcf	3,6	;RP1=0, select bank0
  2724     0FD2  00E6               	movwf	??_controlmotores
  2725     0FD3                     u4747:
  2726     0FD3  0BE6               	decfsz	??_controlmotores,f
  2727     0FD4  2FD3               	goto	u4747
  2728     0FD5                     l3115:
  2729                           
  2730                           ;main.c: 355:     ADCON0bits.GO = 1;
  2731     0FD5  1283               	bcf	3,5	;RP0=0, select bank0
  2732     0FD6  1303               	bcf	3,6	;RP1=0, select bank0
  2733     0FD7  149F               	bsf	31,1	;volatile
  2734     0FD8                     l256:	
  2735                           ;main.c: 357:     while(ADCON0bits.GO == 1);
  2736                           
  2737     0FD8  189F               	btfsc	31,1	;volatile
  2738     0FD9  2FDB               	goto	u4491
  2739     0FDA  2FDC               	goto	u4490
  2740     0FDB                     u4491:
  2741     0FDB  2FD8               	goto	l256
  2742     0FDC                     u4490:
  2743     0FDC                     l258:
  2744                           
  2745                           ;main.c: 358:     ADIF = 0;
  2746     0FDC  130C               	bcf	12,6	;volatile
  2747     0FDD                     l3117:
  2748                           
  2749                           ;main.c: 359:     pot1 = map(ADRESH, 0, 255, 1, 17);
  2750     0FDD  3000               	movlw	0
  2751     0FDE  00AD               	movwf	map@inputmin
  2752     0FDF  00AE               	movwf	map@inputmin+1
  2753     0FE0  30FF               	movlw	255
  2754     0FE1  00AF               	movwf	map@inputmax
  2755     0FE2  3000               	movlw	0
  2756     0FE3  00B0               	movwf	map@inputmax+1
  2757     0FE4  3001               	movlw	1
  2758     0FE5  00B1               	movwf	map@outmin
  2759     0FE6  3000               	movlw	0
  2760     0FE7  00B2               	movwf	map@outmin+1
  2761     0FE8  3011               	movlw	17
  2762     0FE9  00B3               	movwf	map@outmax
  2763     0FEA  3000               	movlw	0
  2764     0FEB  00B4               	movwf	map@outmax+1
  2765     0FEC  081E               	movf	30,w	;volatile
  2766     0FED  120A  158A  23C8  120A  158A  	fcall	_map
  2767     0FF2  1283               	bcf	3,5	;RP0=0, select bank0
  2768     0FF3  1303               	bcf	3,6	;RP1=0, select bank0
  2769     0FF4  082E               	movf	?_map+1,w
  2770     0FF5  00EC               	movwf	_pot1+1
  2771     0FF6  082D               	movf	?_map,w
  2772     0FF7  00EB               	movwf	_pot1
  2773     0FF8                     l3119:
  2774                           
  2775                           ;main.c: 360:     _delay((unsigned long)((1)*(500000/4000.0)));
  2776     0FF8  3028               	movlw	40
  2777     0FF9  1283               	bcf	3,5	;RP0=0, select bank0
  2778     0FFA  1303               	bcf	3,6	;RP1=0, select bank0
  2779     0FFB  00E6               	movwf	??_controlmotores
  2780     0FFC                     u4757:
  2781     0FFC  0BE6               	decfsz	??_controlmotores,f
  2782     0FFD  2FFC               	goto	u4757
  2783     0FFE  2FFF               	nop2
  2784     0FFF                     l259:
  2785     0FFF  0008               	return
  2786     1000                     __end_of_controlmotores:
  2787                           
  2788                           	psect	text12
  2789     0DAE                     __ptext12:	
  2790 ;; *************** function _mapeo *****************
  2791 ;; Defined at:
  2792 ;;		line 306 in file "main.c"
  2793 ;; Parameters:    Size  Location     Type
  2794 ;;		None
  2795 ;; Auto vars:     Size  Location     Type
  2796 ;;		None
  2797 ;; Return value:  Size  Location     Type
  2798 ;;                  1    wreg      void 
  2799 ;; Registers used:
  2800 ;;		wreg, status,2, status,0, btemp+1, pclath, cstack
  2801 ;; Tracked objects:
  2802 ;;		On entry : 0/0
  2803 ;;		On exit  : 0/0
  2804 ;;		Unchanged: 0/0
  2805 ;; Data sizes:     COMMON   BANK0   BANK1   BANK3   BANK2
  2806 ;;      Params:         0       0       0       0       0
  2807 ;;      Locals:         0       0       0       0       0
  2808 ;;      Temps:          0       0       5       0       0
  2809 ;;      Totals:         0       0       5       0       0
  2810 ;;Total ram usage:        5 bytes
  2811 ;; Hardware stack levels used: 1
  2812 ;; Hardware stack levels required when called: 4
  2813 ;; This function calls:
  2814 ;;		___fladd
  2815 ;;		___flmul
  2816 ;;		___fltol
  2817 ;;		___xxtofl
  2818 ;; This function is called by:
  2819 ;;		_controlmotores
  2820 ;; This function uses a non-reentrant model
  2821 ;;
  2822                           
  2823     0DAE                     _mapeo:	
  2824                           ;psect for function _mapeo
  2825                           
  2826     0DAE                     l3063:	
  2827                           ;incstack = 0
  2828                           ; Regs used in _mapeo: [wreg+status,2+status,0+btemp+1+pclath+cstack]
  2829                           
  2830                           
  2831                           ;main.c: 307:     ADC_RES = ((ADRESH<<2)+(ADRESL>>6));
  2832     0DAE  1683               	bsf	3,5	;RP0=1, select bank1
  2833     0DAF  1303               	bcf	3,6	;RP1=0, select bank1
  2834     0DB0  081E               	movf	30,w	;volatile
  2835     0DB1  00C4               	movwf	??_mapeo^(0+128)
  2836     0DB2  3006               	movlw	6
  2837     0DB3                     u4455:
  2838     0DB3  1003               	clrc
  2839     0DB4  0CC4               	rrf	??_mapeo^(0+128),f
  2840     0DB5  3EFF               	addlw	-1
  2841     0DB6  1D03               	skipz
  2842     0DB7  2DB3               	goto	u4455
  2843     0DB8  1283               	bcf	3,5	;RP0=0, select bank0
  2844     0DB9  1303               	bcf	3,6	;RP1=0, select bank0
  2845     0DBA  081E               	movf	30,w	;volatile
  2846     0DBB  1683               	bsf	3,5	;RP0=1, select bank1
  2847     0DBC  1303               	bcf	3,6	;RP1=0, select bank1
  2848     0DBD  00C5               	movwf	(??_mapeo+1)^(0+128)
  2849     0DBE  01C6               	clrf	((??_mapeo+1)^(0+128)+1)
  2850     0DBF  1003               	clrc
  2851     0DC0  0DC5               	rlf	(??_mapeo+1)^(0+128),f
  2852     0DC1  0DC6               	rlf	((??_mapeo+1)^(0+128)+1),f
  2853     0DC2  1003               	clrc
  2854     0DC3  0DC5               	rlf	(??_mapeo+1)^(0+128),f
  2855     0DC4  0DC6               	rlf	((??_mapeo+1)^(0+128)+1),f
  2856     0DC5  0844               	movf	??_mapeo^(0+128),w
  2857     0DC6  0745               	addwf	(??_mapeo+1)^(0+128),w
  2858     0DC7  00C7               	movwf	(??_mapeo+3)^(0+128)
  2859     0DC8  3000               	movlw	0
  2860     0DC9  1803               	skipnc
  2861     0DCA  3001               	movlw	1
  2862     0DCB  0746               	addwf	(??_mapeo+2)^(0+128),w
  2863     0DCC  00C8               	movwf	(??_mapeo+4)^(0+128)
  2864     0DCD  0847               	movf	(??_mapeo+3)^(0+128),w
  2865     0DCE  00C2               	movwf	_ADC_RES^(0+128)
  2866     0DCF  0848               	movf	(??_mapeo+4)^(0+128),w
  2867     0DD0  00C3               	movwf	(_ADC_RES+1)^(0+128)
  2868     0DD1                     l3065:
  2869                           
  2870                           ;main.c: 308:     valDC = (0.033*ADC_RES+32);
  2871     0DD1  0842               	movf	_ADC_RES^(0+128),w
  2872     0DD2  1283               	bcf	3,5	;RP0=0, select bank0
  2873     0DD3  1303               	bcf	3,6	;RP1=0, select bank0
  2874     0DD4  00A0               	movwf	___xxtofl@val
  2875     0DD5  1683               	bsf	3,5	;RP0=1, select bank1
  2876     0DD6  1303               	bcf	3,6	;RP1=0, select bank1
  2877     0DD7  0843               	movf	(_ADC_RES+1)^(0+128),w
  2878     0DD8  1283               	bcf	3,5	;RP0=0, select bank0
  2879     0DD9  1303               	bcf	3,6	;RP1=0, select bank0
  2880     0DDA  00A1               	movwf	___xxtofl@val+1
  2881     0DDB  01A2               	clrf	___xxtofl@val+2
  2882     0DDC  01A3               	clrf	___xxtofl@val+3
  2883     0DDD  3000               	movlw	0
  2884     0DDE  120A  118A  2734  120A  158A  	fcall	___xxtofl
  2885     0DE3  1283               	bcf	3,5	;RP0=0, select bank0
  2886     0DE4  1303               	bcf	3,6	;RP1=0, select bank0
  2887     0DE5  0823               	movf	?___xxtofl+3,w
  2888     0DE6  00B5               	movwf	___flmul@a+3
  2889     0DE7  0822               	movf	?___xxtofl+2,w
  2890     0DE8  00B4               	movwf	___flmul@a+2
  2891     0DE9  0821               	movf	?___xxtofl+1,w
  2892     0DEA  00B3               	movwf	___flmul@a+1
  2893     0DEB  0820               	movf	?___xxtofl,w
  2894     0DEC  00B2               	movwf	___flmul@a
  2895     0DED  303D               	movlw	61
  2896     0DEE  00B1               	movwf	___flmul@b+3
  2897     0DEF  3007               	movlw	7
  2898     0DF0  00B0               	movwf	___flmul@b+2
  2899     0DF1  302B               	movlw	43
  2900     0DF2  00AF               	movwf	___flmul@b+1
  2901     0DF3  3002               	movlw	2
  2902     0DF4  00AE               	movwf	___flmul@b
  2903     0DF5  120A  118A  2028  120A  158A  	fcall	___flmul
  2904     0DFA  1283               	bcf	3,5	;RP0=0, select bank0
  2905     0DFB  1303               	bcf	3,6	;RP1=0, select bank0
  2906     0DFC  0831               	movf	?___flmul+3,w
  2907     0DFD  00CF               	movwf	___fladd@a+3
  2908     0DFE  0830               	movf	?___flmul+2,w
  2909     0DFF  00CE               	movwf	___fladd@a+2
  2910     0E00  082F               	movf	?___flmul+1,w
  2911     0E01  00CD               	movwf	___fladd@a+1
  2912     0E02  082E               	movf	?___flmul,w
  2913     0E03  00CC               	movwf	___fladd@a
  2914     0E04  3042               	movlw	66
  2915     0E05  00CB               	movwf	___fladd@b+3
  2916     0E06  3000               	movlw	0
  2917     0E07  00CA               	movwf	___fladd@b+2
  2918     0E08  3000               	movlw	0
  2919     0E09  00C9               	movwf	___fladd@b+1
  2920     0E0A  3000               	movlw	0
  2921     0E0B  00C8               	movwf	___fladd@b
  2922     0E0C  120A  118A  236D  120A  158A  	fcall	___fladd
  2923     0E11  1283               	bcf	3,5	;RP0=0, select bank0
  2924     0E12  1303               	bcf	3,6	;RP1=0, select bank0
  2925     0E13  084B               	movf	?___fladd+3,w
  2926     0E14  00DF               	movwf	___fltol@f1+3
  2927     0E15  084A               	movf	?___fladd+2,w
  2928     0E16  00DE               	movwf	___fltol@f1+2
  2929     0E17  0849               	movf	?___fladd+1,w
  2930     0E18  00DD               	movwf	___fltol@f1+1
  2931     0E19  0848               	movf	?___fladd,w
  2932     0E1A  00DC               	movwf	___fltol@f1
  2933     0E1B  120A  158A  24BB  120A  158A  	fcall	___fltol
  2934     0E20  1283               	bcf	3,5	;RP0=0, select bank0
  2935     0E21  1303               	bcf	3,6	;RP1=0, select bank0
  2936     0E22  085D               	movf	?___fltol+1,w
  2937     0E23  1683               	bsf	3,5	;RP0=1, select bank1
  2938     0E24  1303               	bcf	3,6	;RP1=0, select bank1
  2939     0E25  00BC               	movwf	(_valDC+1)^(0+128)
  2940     0E26  1283               	bcf	3,5	;RP0=0, select bank0
  2941     0E27  1303               	bcf	3,6	;RP1=0, select bank0
  2942     0E28  085C               	movf	?___fltol,w
  2943     0E29  1683               	bsf	3,5	;RP0=1, select bank1
  2944     0E2A  1303               	bcf	3,6	;RP1=0, select bank1
  2945     0E2B  00BB               	movwf	_valDC^(0+128)
  2946     0E2C                     l3067:
  2947                           
  2948                           ;main.c: 309:     valDCL = valDC & 0x003;
  2949     0E2C  3003               	movlw	3
  2950     0E2D  053B               	andwf	_valDC^(0+128),w
  2951     0E2E  00B9               	movwf	_valDCL^(0+128)
  2952     0E2F  3000               	movlw	0
  2953     0E30  053C               	andwf	(_valDC+1)^(0+128),w
  2954     0E31  00BA               	movwf	(_valDCL+1)^(0+128)
  2955     0E32                     l3069:
  2956                           
  2957                           ;main.c: 310:     valDCH = (valDC & 0x3FC) >> 2;
  2958     0E32  083C               	movf	(_valDC+1)^(0+128),w
  2959     0E33  00C5               	movwf	(??_mapeo^(0+128)+1)
  2960     0E34  083B               	movf	_valDC^(0+128),w
  2961     0E35  00C4               	movwf	??_mapeo^(0+128)
  2962     0E36  1003               	clrc
  2963     0E37  0CC5               	rrf	(??_mapeo^(0+128)+1),f
  2964     0E38  0CC4               	rrf	??_mapeo^(0+128),f
  2965     0E39  1003               	clrc
  2966     0E3A  0CC5               	rrf	(??_mapeo^(0+128)+1),f
  2967     0E3B  0CC4               	rrf	??_mapeo^(0+128),f
  2968     0E3C  30FF               	movlw	255
  2969     0E3D  0544               	andwf	??_mapeo^(0+128),w
  2970     0E3E  00B7               	movwf	_valDCH^(0+128)
  2971     0E3F  3000               	movlw	0
  2972     0E40  0545               	andwf	(??_mapeo+1)^(0+128),w
  2973     0E41  00B8               	movwf	(_valDCH+1)^(0+128)
  2974     0E42                     l244:
  2975     0E42  0008               	return
  2976     0E43                     __end_of_mapeo:
  2977                           
  2978                           	psect	text13
  2979     0734                     __ptext13:	
  2980 ;; *************** function ___xxtofl *****************
  2981 ;; Defined at:
  2982 ;;		line 10 in file "C:\Program Files\Microchip\xc8\v2.40\pic\sources\c90\common\xxtofl.c"
  2983 ;; Parameters:    Size  Location     Type
  2984 ;;  sign            1    wreg     unsigned char 
  2985 ;;  val             4    0[BANK0 ] long 
  2986 ;; Auto vars:     Size  Location     Type
  2987 ;;  sign            1    8[BANK0 ] unsigned char 
  2988 ;;  arg             4   10[BANK0 ] unsigned long 
  2989 ;;  exp             1    9[BANK0 ] unsigned char 
  2990 ;; Return value:  Size  Location     Type
  2991 ;;                  4    0[BANK0 ] unsigned char 
  2992 ;; Registers used:
  2993 ;;		wreg, status,2, status,0
  2994 ;; Tracked objects:
  2995 ;;		On entry : 0/0
  2996 ;;		On exit  : 0/0
  2997 ;;		Unchanged: 0/0
  2998 ;; Data sizes:     COMMON   BANK0   BANK1   BANK3   BANK2
  2999 ;;      Params:         0       4       0       0       0
  3000 ;;      Locals:         0       6       0       0       0
  3001 ;;      Temps:          0       4       0       0       0
  3002 ;;      Totals:         0      14       0       0       0
  3003 ;;Total ram usage:       14 bytes
  3004 ;; Hardware stack levels used: 1
  3005 ;; Hardware stack levels required when called: 2
  3006 ;; This function calls:
  3007 ;;		Nothing
  3008 ;; This function is called by:
  3009 ;;		_mapeo
  3010 ;; This function uses a non-reentrant model
  3011 ;;
  3012                           
  3013     0734                     ___xxtofl:	
  3014                           ;psect for function ___xxtofl
  3015                           
  3016                           
  3017                           ;incstack = 0
  3018                           ; Regs used in ___xxtofl: [wreg+status,2+status,0]
  3019                           ;___xxtofl@sign stored from wreg
  3020     0734  1283               	bcf	3,5	;RP0=0, select bank0
  3021     0735  1303               	bcf	3,6	;RP1=0, select bank0
  3022     0736  00A8               	movwf	___xxtofl@sign
  3023     0737                     l3015:
  3024     0737  0828               	movf	___xxtofl@sign,w
  3025     0738  1903               	btfsc	3,2
  3026     0739  2F3B               	goto	u4311
  3027     073A  2F3C               	goto	u4310
  3028     073B                     u4311:
  3029     073B  2F50               	goto	l3021
  3030     073C                     u4310:
  3031     073C                     l3017:
  3032     073C  1FA3               	btfss	___xxtofl@val+3,7
  3033     073D  2F3F               	goto	u4321
  3034     073E  2F40               	goto	u4320
  3035     073F                     u4321:
  3036     073F  2F50               	goto	l3021
  3037     0740                     u4320:
  3038     0740                     l3019:
  3039     0740  0920               	comf	___xxtofl@val,w
  3040     0741  00AA               	movwf	___xxtofl@arg
  3041     0742  0921               	comf	___xxtofl@val+1,w
  3042     0743  00AB               	movwf	___xxtofl@arg+1
  3043     0744  0922               	comf	___xxtofl@val+2,w
  3044     0745  00AC               	movwf	___xxtofl@arg+2
  3045     0746  0923               	comf	___xxtofl@val+3,w
  3046     0747  00AD               	movwf	___xxtofl@arg+3
  3047     0748  0AAA               	incf	___xxtofl@arg,f
  3048     0749  1903               	skipnz
  3049     074A  0AAB               	incf	___xxtofl@arg+1,f
  3050     074B  1903               	skipnz
  3051     074C  0AAC               	incf	___xxtofl@arg+2,f
  3052     074D  1903               	skipnz
  3053     074E  0AAD               	incf	___xxtofl@arg+3,f
  3054     074F  2F58               	goto	l850
  3055     0750                     l3021:
  3056     0750  0823               	movf	___xxtofl@val+3,w
  3057     0751  00AD               	movwf	___xxtofl@arg+3
  3058     0752  0822               	movf	___xxtofl@val+2,w
  3059     0753  00AC               	movwf	___xxtofl@arg+2
  3060     0754  0821               	movf	___xxtofl@val+1,w
  3061     0755  00AB               	movwf	___xxtofl@arg+1
  3062     0756  0820               	movf	___xxtofl@val,w
  3063     0757  00AA               	movwf	___xxtofl@arg
  3064     0758                     l850:
  3065     0758  0823               	movf	___xxtofl@val+3,w
  3066     0759  0422               	iorwf	___xxtofl@val+2,w
  3067     075A  0421               	iorwf	___xxtofl@val+1,w
  3068     075B  0420               	iorwf	___xxtofl@val,w
  3069     075C  1D03               	skipz
  3070     075D  2F5F               	goto	u4331
  3071     075E  2F60               	goto	u4330
  3072     075F                     u4331:
  3073     075F  2F69               	goto	l3027
  3074     0760                     u4330:
  3075     0760                     l3023:
  3076     0760  3000               	movlw	0
  3077     0761  00A3               	movwf	?___xxtofl+3
  3078     0762  3000               	movlw	0
  3079     0763  00A2               	movwf	?___xxtofl+2
  3080     0764  3000               	movlw	0
  3081     0765  00A1               	movwf	?___xxtofl+1
  3082     0766  3000               	movlw	0
  3083     0767  00A0               	movwf	?___xxtofl
  3084     0768  2FED               	goto	l852
  3085     0769                     l3027:
  3086     0769  3096               	movlw	150
  3087     076A  00A9               	movwf	___xxtofl@exp
  3088     076B  2F79               	goto	l3031
  3089     076C                     l3029:
  3090     076C  3001               	movlw	1
  3091     076D  00A4               	movwf	??___xxtofl
  3092     076E  0824               	movf	??___xxtofl,w
  3093     076F  07A9               	addwf	___xxtofl@exp,f
  3094     0770  3001               	movlw	1
  3095     0771                     u4345:
  3096     0771  1003               	clrc
  3097     0772  0CAD               	rrf	___xxtofl@arg+3,f
  3098     0773  0CAC               	rrf	___xxtofl@arg+2,f
  3099     0774  0CAB               	rrf	___xxtofl@arg+1,f
  3100     0775  0CAA               	rrf	___xxtofl@arg,f
  3101     0776  3EFF               	addlw	-1
  3102     0777  1D03               	skipz
  3103     0778  2F71               	goto	u4345
  3104     0779                     l3031:
  3105     0779  30FE               	movlw	254
  3106     077A  052D               	andwf	___xxtofl@arg+3,w
  3107     077B  1D03               	btfss	3,2
  3108     077C  2F7E               	goto	u4351
  3109     077D  2F7F               	goto	u4350
  3110     077E                     u4351:
  3111     077E  2F6C               	goto	l3029
  3112     077F                     u4350:
  3113     077F  2F9B               	goto	l856
  3114     0780                     l3033:
  3115     0780  3001               	movlw	1
  3116     0781  00A4               	movwf	??___xxtofl
  3117     0782  0824               	movf	??___xxtofl,w
  3118     0783  07A9               	addwf	___xxtofl@exp,f
  3119     0784                     l3035:
  3120     0784  3001               	movlw	1
  3121     0785  07AA               	addwf	___xxtofl@arg,f
  3122     0786  3000               	movlw	0
  3123     0787  1803               	skipnc
  3124     0788  3001               	movlw	1
  3125     0789  07AB               	addwf	___xxtofl@arg+1,f
  3126     078A  3000               	movlw	0
  3127     078B  1803               	skipnc
  3128     078C  3001               	movlw	1
  3129     078D  07AC               	addwf	___xxtofl@arg+2,f
  3130     078E  3000               	movlw	0
  3131     078F  1803               	skipnc
  3132     0790  3001               	movlw	1
  3133     0791  07AD               	addwf	___xxtofl@arg+3,f
  3134     0792                     l3037:
  3135     0792  3001               	movlw	1
  3136     0793                     u4365:
  3137     0793  1003               	clrc
  3138     0794  0CAD               	rrf	___xxtofl@arg+3,f
  3139     0795  0CAC               	rrf	___xxtofl@arg+2,f
  3140     0796  0CAB               	rrf	___xxtofl@arg+1,f
  3141     0797  0CAA               	rrf	___xxtofl@arg,f
  3142     0798  3EFF               	addlw	-1
  3143     0799  1D03               	skipz
  3144     079A  2F93               	goto	u4365
  3145     079B                     l856:
  3146     079B  30FF               	movlw	255
  3147     079C  052D               	andwf	___xxtofl@arg+3,w
  3148     079D  1D03               	btfss	3,2
  3149     079E  2FA0               	goto	u4371
  3150     079F  2FA1               	goto	u4370
  3151     07A0                     u4371:
  3152     07A0  2F80               	goto	l3033
  3153     07A1                     u4370:
  3154     07A1  2FAD               	goto	l3041
  3155     07A2                     l3039:
  3156     07A2  3001               	movlw	1
  3157     07A3  02A9               	subwf	___xxtofl@exp,f
  3158     07A4  3001               	movlw	1
  3159     07A5  00A4               	movwf	??___xxtofl
  3160     07A6                     u4385:
  3161     07A6  1003               	clrc
  3162     07A7  0DAA               	rlf	___xxtofl@arg,f
  3163     07A8  0DAB               	rlf	___xxtofl@arg+1,f
  3164     07A9  0DAC               	rlf	___xxtofl@arg+2,f
  3165     07AA  0DAD               	rlf	___xxtofl@arg+3,f
  3166     07AB  0BA4               	decfsz	??___xxtofl,f
  3167     07AC  2FA6               	goto	u4385
  3168     07AD                     l3041:
  3169     07AD  1BAC               	btfsc	___xxtofl@arg+2,7
  3170     07AE  2FB0               	goto	u4391
  3171     07AF  2FB1               	goto	u4390
  3172     07B0                     u4391:
  3173     07B0  2FB7               	goto	l863
  3174     07B1                     u4390:
  3175     07B1                     l3043:
  3176     07B1  3002               	movlw	2
  3177     07B2  0229               	subwf	___xxtofl@exp,w
  3178     07B3  1803               	skipnc
  3179     07B4  2FB6               	goto	u4401
  3180     07B5  2FB7               	goto	u4400
  3181     07B6                     u4401:
  3182     07B6  2FA2               	goto	l3039
  3183     07B7                     u4400:
  3184     07B7                     l863:
  3185     07B7  1829               	btfsc	___xxtofl@exp,0
  3186     07B8  2FBA               	goto	u4411
  3187     07B9  2FBB               	goto	u4410
  3188     07BA                     u4411:
  3189     07BA  2FC3               	goto	l864
  3190     07BB                     u4410:
  3191     07BB                     l3045:
  3192     07BB  30FF               	movlw	255
  3193     07BC  05AA               	andwf	___xxtofl@arg,f
  3194     07BD  30FF               	movlw	255
  3195     07BE  05AB               	andwf	___xxtofl@arg+1,f
  3196     07BF  307F               	movlw	127
  3197     07C0  05AC               	andwf	___xxtofl@arg+2,f
  3198     07C1  30FF               	movlw	255
  3199     07C2  05AD               	andwf	___xxtofl@arg+3,f
  3200     07C3                     l864:
  3201     07C3  1003               	clrc
  3202     07C4  0CA9               	rrf	___xxtofl@exp,f
  3203     07C5                     l3047:
  3204     07C5  0829               	movf	___xxtofl@exp,w
  3205     07C6  00A4               	movwf	??___xxtofl
  3206     07C7  01A5               	clrf	??___xxtofl+1
  3207     07C8  01A6               	clrf	??___xxtofl+2
  3208     07C9  01A7               	clrf	??___xxtofl+3
  3209     07CA  3018               	movlw	24
  3210     07CB                     u4425:
  3211     07CB  1003               	clrc
  3212     07CC  0DA4               	rlf	??___xxtofl,f
  3213     07CD  0DA5               	rlf	??___xxtofl+1,f
  3214     07CE  0DA6               	rlf	??___xxtofl+2,f
  3215     07CF  0DA7               	rlf	??___xxtofl+3,f
  3216     07D0                     u4420:
  3217     07D0  3EFF               	addlw	-1
  3218     07D1  1D03               	skipz
  3219     07D2  2FCB               	goto	u4425
  3220     07D3  0824               	movf	??___xxtofl,w
  3221     07D4  04AA               	iorwf	___xxtofl@arg,f
  3222     07D5  0825               	movf	??___xxtofl+1,w
  3223     07D6  04AB               	iorwf	___xxtofl@arg+1,f
  3224     07D7  0826               	movf	??___xxtofl+2,w
  3225     07D8  04AC               	iorwf	___xxtofl@arg+2,f
  3226     07D9  0827               	movf	??___xxtofl+3,w
  3227     07DA  04AD               	iorwf	___xxtofl@arg+3,f
  3228     07DB                     l3049:
  3229     07DB  0828               	movf	___xxtofl@sign,w
  3230     07DC  1903               	btfsc	3,2
  3231     07DD  2FDF               	goto	u4431
  3232     07DE  2FE0               	goto	u4430
  3233     07DF                     u4431:
  3234     07DF  2FE5               	goto	l3055
  3235     07E0                     u4430:
  3236     07E0                     l3051:
  3237     07E0  1FA3               	btfss	___xxtofl@val+3,7
  3238     07E1  2FE3               	goto	u4441
  3239     07E2  2FE4               	goto	u4440
  3240     07E3                     u4441:
  3241     07E3  2FE5               	goto	l3055
  3242     07E4                     u4440:
  3243     07E4                     l3053:
  3244     07E4  17AD               	bsf	___xxtofl@arg+3,7
  3245     07E5                     l3055:
  3246     07E5  082D               	movf	___xxtofl@arg+3,w
  3247     07E6  00A3               	movwf	?___xxtofl+3
  3248     07E7  082C               	movf	___xxtofl@arg+2,w
  3249     07E8  00A2               	movwf	?___xxtofl+2
  3250     07E9  082B               	movf	___xxtofl@arg+1,w
  3251     07EA  00A1               	movwf	?___xxtofl+1
  3252     07EB  082A               	movf	___xxtofl@arg,w
  3253     07EC  00A0               	movwf	?___xxtofl
  3254     07ED                     l852:
  3255     07ED  0008               	return
  3256     07EE                     __end_of___xxtofl:
  3257                           
  3258                           	psect	text14
  3259     0CBB                     __ptext14:	
  3260 ;; *************** function ___fltol *****************
  3261 ;; Defined at:
  3262 ;;		line 43 in file "C:\Program Files\Microchip\xc8\v2.40\pic\sources\c90\common\fltol.c"
  3263 ;; Parameters:    Size  Location     Type
  3264 ;;  f1              4   60[BANK0 ] unsigned char 
  3265 ;; Auto vars:     Size  Location     Type
  3266 ;;  exp1            1   69[BANK0 ] unsigned char 
  3267 ;;  sign1           1   68[BANK0 ] unsigned char 
  3268 ;; Return value:  Size  Location     Type
  3269 ;;                  4   60[BANK0 ] long 
  3270 ;; Registers used:
  3271 ;;		wreg, status,2, status,0
  3272 ;; Tracked objects:
  3273 ;;		On entry : 0/0
  3274 ;;		On exit  : 0/0
  3275 ;;		Unchanged: 0/0
  3276 ;; Data sizes:     COMMON   BANK0   BANK1   BANK3   BANK2
  3277 ;;      Params:         0       4       0       0       0
  3278 ;;      Locals:         0       2       0       0       0
  3279 ;;      Temps:          0       4       0       0       0
  3280 ;;      Totals:         0      10       0       0       0
  3281 ;;Total ram usage:       10 bytes
  3282 ;; Hardware stack levels used: 1
  3283 ;; Hardware stack levels required when called: 2
  3284 ;; This function calls:
  3285 ;;		Nothing
  3286 ;; This function is called by:
  3287 ;;		_mapeo
  3288 ;; This function uses a non-reentrant model
  3289 ;;
  3290                           
  3291     0CBB                     ___fltol:	
  3292                           ;psect for function ___fltol
  3293                           
  3294     0CBB                     l2839:	
  3295                           ;incstack = 0
  3296                           ; Regs used in ___fltol: [wreg+status,2+status,0]
  3297                           
  3298     0CBB  1003               	clrc
  3299     0CBC  1283               	bcf	3,5	;RP0=0, select bank0
  3300     0CBD  1303               	bcf	3,6	;RP1=0, select bank0
  3301     0CBE  0D5E               	rlf	___fltol@f1+2,w
  3302     0CBF  0D5F               	rlf	___fltol@f1+3,w
  3303     0CC0  00E5               	movwf	___fltol@exp1
  3304     0CC1  0865               	movf	___fltol@exp1,w
  3305     0CC2  1D03               	btfss	3,2
  3306     0CC3  2CC5               	goto	u3841
  3307     0CC4  2CC6               	goto	u3840
  3308     0CC5                     u3841:
  3309     0CC5  2CCF               	goto	l2845
  3310     0CC6                     u3840:
  3311     0CC6                     l2841:
  3312     0CC6  3000               	movlw	0
  3313     0CC7  00DF               	movwf	?___fltol+3
  3314     0CC8  3000               	movlw	0
  3315     0CC9  00DE               	movwf	?___fltol+2
  3316     0CCA  3000               	movlw	0
  3317     0CCB  00DD               	movwf	?___fltol+1
  3318     0CCC  3000               	movlw	0
  3319     0CCD  00DC               	movwf	?___fltol
  3320     0CCE  2D32               	goto	l603
  3321     0CCF                     l2845:
  3322     0CCF  085C               	movf	___fltol@f1,w
  3323     0CD0  00E0               	movwf	??___fltol
  3324     0CD1  085D               	movf	___fltol@f1+1,w
  3325     0CD2  00E1               	movwf	??___fltol+1
  3326     0CD3  085E               	movf	___fltol@f1+2,w
  3327     0CD4  00E2               	movwf	??___fltol+2
  3328     0CD5  085F               	movf	___fltol@f1+3,w
  3329     0CD6  00E3               	movwf	??___fltol+3
  3330     0CD7  301F               	movlw	31
  3331     0CD8                     u3855:
  3332     0CD8  1003               	clrc
  3333     0CD9  0CE3               	rrf	??___fltol+3,f
  3334     0CDA  0CE2               	rrf	??___fltol+2,f
  3335     0CDB  0CE1               	rrf	??___fltol+1,f
  3336     0CDC  0CE0               	rrf	??___fltol,f
  3337     0CDD                     u3850:
  3338     0CDD  3EFF               	addlw	-1
  3339     0CDE  1D03               	skipz
  3340     0CDF  2CD8               	goto	u3855
  3341     0CE0  0860               	movf	??___fltol,w
  3342     0CE1  00E4               	movwf	___fltol@sign1
  3343     0CE2                     l2847:
  3344     0CE2  17DE               	bsf	___fltol@f1+2,7
  3345     0CE3                     l2849:
  3346     0CE3  30FF               	movlw	255
  3347     0CE4  05DC               	andwf	___fltol@f1,f
  3348     0CE5  30FF               	movlw	255
  3349     0CE6  05DD               	andwf	___fltol@f1+1,f
  3350     0CE7  30FF               	movlw	255
  3351     0CE8  05DE               	andwf	___fltol@f1+2,f
  3352     0CE9  3000               	movlw	0
  3353     0CEA  05DF               	andwf	___fltol@f1+3,f
  3354     0CEB                     l2851:
  3355     0CEB  3096               	movlw	150
  3356     0CEC  02E5               	subwf	___fltol@exp1,f
  3357     0CED                     l2853:
  3358     0CED  1FE5               	btfss	___fltol@exp1,7
  3359     0CEE  2CF0               	goto	u3861
  3360     0CEF  2CF1               	goto	u3860
  3361     0CF0                     u3861:
  3362     0CF0  2D0B               	goto	l2863
  3363     0CF1                     u3860:
  3364     0CF1                     l2855:
  3365     0CF1  0865               	movf	___fltol@exp1,w
  3366     0CF2  3A80               	xorlw	128
  3367     0CF3  3E97               	addlw	151
  3368     0CF4  1803               	skipnc
  3369     0CF5  2CF7               	goto	u3871
  3370     0CF6  2CF8               	goto	u3870
  3371     0CF7                     u3871:
  3372     0CF7  2CF9               	goto	l2861
  3373     0CF8                     u3870:
  3374     0CF8  2CC6               	goto	l2841
  3375     0CF9                     l2861:
  3376     0CF9  3001               	movlw	1
  3377     0CFA                     u3885:
  3378     0CFA  1003               	clrc
  3379     0CFB  0CDF               	rrf	___fltol@f1+3,f
  3380     0CFC  0CDE               	rrf	___fltol@f1+2,f
  3381     0CFD  0CDD               	rrf	___fltol@f1+1,f
  3382     0CFE  0CDC               	rrf	___fltol@f1,f
  3383     0CFF  3EFF               	addlw	-1
  3384     0D00  1D03               	skipz
  3385     0D01  2CFA               	goto	u3885
  3386     0D02  3001               	movlw	1
  3387     0D03  00E0               	movwf	??___fltol
  3388     0D04  0860               	movf	??___fltol,w
  3389     0D05  07E5               	addwf	___fltol@exp1,f
  3390     0D06  1D03               	btfss	3,2
  3391     0D07  2D09               	goto	u3891
  3392     0D08  2D0A               	goto	u3890
  3393     0D09                     u3891:
  3394     0D09  2CF9               	goto	l2861
  3395     0D0A                     u3890:
  3396     0D0A  2D22               	goto	l2871
  3397     0D0B                     l2863:
  3398     0D0B  3020               	movlw	32
  3399     0D0C  0265               	subwf	___fltol@exp1,w
  3400     0D0D  1C03               	skipc
  3401     0D0E  2D10               	goto	u3901
  3402     0D0F  2D11               	goto	u3900
  3403     0D10                     u3901:
  3404     0D10  2D1D               	goto	l610
  3405     0D11                     u3900:
  3406     0D11  2CC6               	goto	l2841
  3407     0D12                     l2869:
  3408     0D12  3001               	movlw	1
  3409     0D13  00E0               	movwf	??___fltol
  3410     0D14                     u3915:
  3411     0D14  1003               	clrc
  3412     0D15  0DDC               	rlf	___fltol@f1,f
  3413     0D16  0DDD               	rlf	___fltol@f1+1,f
  3414     0D17  0DDE               	rlf	___fltol@f1+2,f
  3415     0D18  0DDF               	rlf	___fltol@f1+3,f
  3416     0D19  0BE0               	decfsz	??___fltol,f
  3417     0D1A  2D14               	goto	u3915
  3418     0D1B  3001               	movlw	1
  3419     0D1C  02E5               	subwf	___fltol@exp1,f
  3420     0D1D                     l610:
  3421     0D1D  0865               	movf	___fltol@exp1,w
  3422     0D1E  1D03               	btfss	3,2
  3423     0D1F  2D21               	goto	u3921
  3424     0D20  2D22               	goto	u3920
  3425     0D21                     u3921:
  3426     0D21  2D12               	goto	l2869
  3427     0D22                     u3920:
  3428     0D22                     l2871:
  3429     0D22  0864               	movf	___fltol@sign1,w
  3430     0D23  1903               	btfsc	3,2
  3431     0D24  2D26               	goto	u3931
  3432     0D25  2D27               	goto	u3930
  3433     0D26                     u3931:
  3434     0D26  2D32               	goto	l613
  3435     0D27                     u3930:
  3436     0D27                     l2873:
  3437     0D27  09DC               	comf	___fltol@f1,f
  3438     0D28  09DD               	comf	___fltol@f1+1,f
  3439     0D29  09DE               	comf	___fltol@f1+2,f
  3440     0D2A  09DF               	comf	___fltol@f1+3,f
  3441     0D2B  0ADC               	incf	___fltol@f1,f
  3442     0D2C  1903               	skipnz
  3443     0D2D  0ADD               	incf	___fltol@f1+1,f
  3444     0D2E  1903               	skipnz
  3445     0D2F  0ADE               	incf	___fltol@f1+2,f
  3446     0D30  1903               	skipnz
  3447     0D31  0ADF               	incf	___fltol@f1+3,f
  3448     0D32                     l613:
  3449     0D32                     l603:
  3450     0D32  0008               	return
  3451     0D33                     __end_of___fltol:
  3452                           
  3453                           	psect	text15
  3454     0028                     __ptext15:	
  3455 ;; *************** function ___flmul *****************
  3456 ;; Defined at:
  3457 ;;		line 8 in file "C:\Program Files\Microchip\xc8\v2.40\pic\sources\c90\common\sprcmul.c"
  3458 ;; Parameters:    Size  Location     Type
  3459 ;;  b               4   14[BANK0 ] long 
  3460 ;;  a               4   18[BANK0 ] long 
  3461 ;; Auto vars:     Size  Location     Type
  3462 ;;  prod            4   34[BANK0 ] struct .
  3463 ;;  grs             4   29[BANK0 ] unsigned long 
  3464 ;;  temp            2   38[BANK0 ] struct .
  3465 ;;  bexp            1   33[BANK0 ] unsigned char 
  3466 ;;  aexp            1   28[BANK0 ] unsigned char 
  3467 ;;  sign            1   27[BANK0 ] unsigned char 
  3468 ;; Return value:  Size  Location     Type
  3469 ;;                  4   14[BANK0 ] unsigned char 
  3470 ;; Registers used:
  3471 ;;		wreg, status,2, status,0, btemp+1, pclath, cstack
  3472 ;; Tracked objects:
  3473 ;;		On entry : 0/0
  3474 ;;		On exit  : 0/0
  3475 ;;		Unchanged: 0/0
  3476 ;; Data sizes:     COMMON   BANK0   BANK1   BANK3   BANK2
  3477 ;;      Params:         0       8       0       0       0
  3478 ;;      Locals:         0      13       0       0       0
  3479 ;;      Temps:          0       5       0       0       0
  3480 ;;      Totals:         0      26       0       0       0
  3481 ;;Total ram usage:       26 bytes
  3482 ;; Hardware stack levels used: 1
  3483 ;; Hardware stack levels required when called: 3
  3484 ;; This function calls:
  3485 ;;		__Umul8_16
  3486 ;; This function is called by:
  3487 ;;		_mapeo
  3488 ;; This function uses a non-reentrant model
  3489 ;;
  3490                           
  3491     0028                     ___flmul:	
  3492                           ;psect for function ___flmul
  3493                           
  3494     0028                     l2875:	
  3495                           ;incstack = 0
  3496                           ; Regs used in ___flmul: [wreg+status,2+status,0+btemp+1+pclath+cstack]
  3497                           
  3498     0028  1283               	bcf	3,5	;RP0=0, select bank0
  3499     0029  1303               	bcf	3,6	;RP1=0, select bank0
  3500     002A  0831               	movf	___flmul@b+3,w
  3501     002B  3980               	andlw	128
  3502     002C  00BB               	movwf	___flmul@sign
  3503     002D                     l2877:
  3504     002D  0831               	movf	___flmul@b+3,w
  3505     002E  00B6               	movwf	??___flmul
  3506     002F  0736               	addwf	??___flmul,w
  3507     0030  00C1               	movwf	___flmul@bexp
  3508     0031                     l2879:
  3509     0031  1FB0               	btfss	___flmul@b+2,7
  3510     0032  2834               	goto	u3941
  3511     0033  2835               	goto	u3940
  3512     0034                     u3941:
  3513     0034  2836               	goto	l2883
  3514     0035                     u3940:
  3515     0035                     l2881:
  3516     0035  1441               	bsf	___flmul@bexp,0
  3517     0036                     l2883:
  3518     0036  0841               	movf	___flmul@bexp,w
  3519     0037  1903               	btfsc	3,2
  3520     0038  283A               	goto	u3951
  3521     0039  283B               	goto	u3950
  3522     003A                     u3951:
  3523     003A  284A               	goto	l2891
  3524     003B                     u3950:
  3525     003B                     l2885:
  3526     003B  0A41               	incf	___flmul@bexp,w
  3527     003C  1D03               	btfss	3,2
  3528     003D  283F               	goto	u3961
  3529     003E  2840               	goto	u3960
  3530     003F                     u3961:
  3531     003F  2848               	goto	l2889
  3532     0040                     u3960:
  3533     0040                     l2887:
  3534     0040  3000               	movlw	0
  3535     0041  00B1               	movwf	___flmul@b+3
  3536     0042  3000               	movlw	0
  3537     0043  00B0               	movwf	___flmul@b+2
  3538     0044  3000               	movlw	0
  3539     0045  00AF               	movwf	___flmul@b+1
  3540     0046  3000               	movlw	0
  3541     0047  00AE               	movwf	___flmul@b
  3542     0048                     l2889:
  3543     0048  17B0               	bsf	___flmul@b+2,7
  3544     0049  2852               	goto	l2893
  3545     004A                     l2891:
  3546     004A  3000               	movlw	0
  3547     004B  00B1               	movwf	___flmul@b+3
  3548     004C  3000               	movlw	0
  3549     004D  00B0               	movwf	___flmul@b+2
  3550     004E  3000               	movlw	0
  3551     004F  00AF               	movwf	___flmul@b+1
  3552     0050  3000               	movlw	0
  3553     0051  00AE               	movwf	___flmul@b
  3554     0052                     l2893:
  3555     0052  0835               	movf	___flmul@a+3,w
  3556     0053  3980               	andlw	128
  3557     0054  00B6               	movwf	??___flmul
  3558     0055  0836               	movf	??___flmul,w
  3559     0056  06BB               	xorwf	___flmul@sign,f
  3560     0057                     l2895:
  3561     0057  0835               	movf	___flmul@a+3,w
  3562     0058  00B6               	movwf	??___flmul
  3563     0059  0736               	addwf	??___flmul,w
  3564     005A  00BC               	movwf	___flmul@aexp
  3565     005B                     l2897:
  3566     005B  1FB4               	btfss	___flmul@a+2,7
  3567     005C  285E               	goto	u3971
  3568     005D  285F               	goto	u3970
  3569     005E                     u3971:
  3570     005E  2860               	goto	l2901
  3571     005F                     u3970:
  3572     005F                     l2899:
  3573     005F  143C               	bsf	___flmul@aexp,0
  3574     0060                     l2901:
  3575     0060  083C               	movf	___flmul@aexp,w
  3576     0061  1903               	btfsc	3,2
  3577     0062  2864               	goto	u3981
  3578     0063  2865               	goto	u3980
  3579     0064                     u3981:
  3580     0064  2874               	goto	l2909
  3581     0065                     u3980:
  3582     0065                     l2903:
  3583     0065  0A3C               	incf	___flmul@aexp,w
  3584     0066  1D03               	btfss	3,2
  3585     0067  2869               	goto	u3991
  3586     0068  286A               	goto	u3990
  3587     0069                     u3991:
  3588     0069  2872               	goto	l2907
  3589     006A                     u3990:
  3590     006A                     l2905:
  3591     006A  3000               	movlw	0
  3592     006B  00B5               	movwf	___flmul@a+3
  3593     006C  3000               	movlw	0
  3594     006D  00B4               	movwf	___flmul@a+2
  3595     006E  3000               	movlw	0
  3596     006F  00B3               	movwf	___flmul@a+1
  3597     0070  3000               	movlw	0
  3598     0071  00B2               	movwf	___flmul@a
  3599     0072                     l2907:
  3600     0072  17B4               	bsf	___flmul@a+2,7
  3601     0073  287C               	goto	l2911
  3602     0074                     l2909:
  3603     0074  3000               	movlw	0
  3604     0075  00B5               	movwf	___flmul@a+3
  3605     0076  3000               	movlw	0
  3606     0077  00B4               	movwf	___flmul@a+2
  3607     0078  3000               	movlw	0
  3608     0079  00B3               	movwf	___flmul@a+1
  3609     007A  3000               	movlw	0
  3610     007B  00B2               	movwf	___flmul@a
  3611     007C                     l2911:
  3612     007C  083C               	movf	___flmul@aexp,w
  3613     007D  1903               	btfsc	3,2
  3614     007E  2880               	goto	u4001
  3615     007F  2881               	goto	u4000
  3616     0080                     u4001:
  3617     0080  2886               	goto	l2915
  3618     0081                     u4000:
  3619     0081                     l2913:
  3620     0081  0841               	movf	___flmul@bexp,w
  3621     0082  1D03               	btfss	3,2
  3622     0083  2885               	goto	u4011
  3623     0084  2886               	goto	u4010
  3624     0085                     u4011:
  3625     0085  288F               	goto	l2919
  3626     0086                     u4010:
  3627     0086                     l2915:
  3628     0086  3000               	movlw	0
  3629     0087  00B1               	movwf	?___flmul+3
  3630     0088  3000               	movlw	0
  3631     0089  00B0               	movwf	?___flmul+2
  3632     008A  3000               	movlw	0
  3633     008B  00AF               	movwf	?___flmul+1
  3634     008C  3000               	movlw	0
  3635     008D  00AE               	movwf	?___flmul
  3636     008E  2B6C               	goto	l806
  3637     008F                     l2919:
  3638     008F  082E               	movf	___flmul@b,w
  3639     0090  00F4               	movwf	__Umul8_16@multiplicand
  3640     0091  0834               	movf	___flmul@a+2,w
  3641     0092  120A  158A  2346  120A  118A  	fcall	__Umul8_16
  3642     0097  0875               	movf	?__Umul8_16+1,w
  3643     0098  1283               	bcf	3,5	;RP0=0, select bank0
  3644     0099  1303               	bcf	3,6	;RP1=0, select bank0
  3645     009A  00C7               	movwf	___flmul@temp+1
  3646     009B  0874               	movf	?__Umul8_16,w
  3647     009C  00C6               	movwf	___flmul@temp
  3648     009D                     l2921:
  3649     009D  0846               	movf	___flmul@temp,w
  3650     009E  00B6               	movwf	??___flmul
  3651     009F  01B7               	clrf	??___flmul+1
  3652     00A0  01B8               	clrf	??___flmul+2
  3653     00A1  01B9               	clrf	??___flmul+3
  3654     00A2  0839               	movf	??___flmul+3,w
  3655     00A3  00C0               	movwf	___flmul@grs+3
  3656     00A4  0838               	movf	??___flmul+2,w
  3657     00A5  00BF               	movwf	___flmul@grs+2
  3658     00A6  0837               	movf	??___flmul+1,w
  3659     00A7  00BE               	movwf	___flmul@grs+1
  3660     00A8  0836               	movf	??___flmul,w
  3661     00A9  00BD               	movwf	___flmul@grs
  3662     00AA                     l2923:
  3663     00AA  0847               	movf	___flmul@temp+1,w
  3664     00AB  00B6               	movwf	??___flmul
  3665     00AC  01B7               	clrf	??___flmul+1
  3666     00AD  01B8               	clrf	??___flmul+2
  3667     00AE  01B9               	clrf	??___flmul+3
  3668     00AF  0839               	movf	??___flmul+3,w
  3669     00B0  00C5               	movwf	___flmul@prod+3
  3670     00B1  0838               	movf	??___flmul+2,w
  3671     00B2  00C4               	movwf	___flmul@prod+2
  3672     00B3  0837               	movf	??___flmul+1,w
  3673     00B4  00C3               	movwf	___flmul@prod+1
  3674     00B5  0836               	movf	??___flmul,w
  3675     00B6  00C2               	movwf	___flmul@prod
  3676     00B7  082F               	movf	___flmul@b+1,w
  3677     00B8  00F4               	movwf	__Umul8_16@multiplicand
  3678     00B9  0833               	movf	___flmul@a+1,w
  3679     00BA  120A  158A  2346  120A  118A  	fcall	__Umul8_16
  3680     00BF  0875               	movf	?__Umul8_16+1,w
  3681     00C0  1283               	bcf	3,5	;RP0=0, select bank0
  3682     00C1  1303               	bcf	3,6	;RP1=0, select bank0
  3683     00C2  00C7               	movwf	___flmul@temp+1
  3684     00C3  0874               	movf	?__Umul8_16,w
  3685     00C4  00C6               	movwf	___flmul@temp
  3686     00C5                     l2925:
  3687     00C5  0846               	movf	___flmul@temp,w
  3688     00C6  00B6               	movwf	??___flmul
  3689     00C7  01B7               	clrf	??___flmul+1
  3690     00C8  01B8               	clrf	??___flmul+2
  3691     00C9  01B9               	clrf	??___flmul+3
  3692     00CA  0836               	movf	??___flmul,w
  3693     00CB  07BD               	addwf	___flmul@grs,f
  3694     00CC  0837               	movf	??___flmul+1,w
  3695     00CD  1103               	clrz
  3696     00CE  1803               	skipnc
  3697     00CF  3E01               	addlw	1
  3698     00D0  1903               	skipnz
  3699     00D1  28D3               	goto	u4021
  3700     00D2  07BE               	addwf	___flmul@grs+1,f
  3701     00D3                     u4021:
  3702     00D3  0838               	movf	??___flmul+2,w
  3703     00D4  1103               	clrz
  3704     00D5  1803               	skipnc
  3705     00D6  3E01               	addlw	1
  3706     00D7  1903               	skipnz
  3707     00D8  28DA               	goto	u4022
  3708     00D9  07BF               	addwf	___flmul@grs+2,f
  3709     00DA                     u4022:
  3710     00DA  0839               	movf	??___flmul+3,w
  3711     00DB  1103               	clrz
  3712     00DC  1803               	skipnc
  3713     00DD  3E01               	addlw	1
  3714     00DE  1903               	skipnz
  3715     00DF  28E1               	goto	u4023
  3716     00E0  07C0               	addwf	___flmul@grs+3,f
  3717     00E1                     u4023:
  3718     00E1                     l2927:
  3719     00E1  0847               	movf	___flmul@temp+1,w
  3720     00E2  00B6               	movwf	??___flmul
  3721     00E3  01B7               	clrf	??___flmul+1
  3722     00E4  01B8               	clrf	??___flmul+2
  3723     00E5  01B9               	clrf	??___flmul+3
  3724     00E6  0836               	movf	??___flmul,w
  3725     00E7  07C2               	addwf	___flmul@prod,f
  3726     00E8  0837               	movf	??___flmul+1,w
  3727     00E9  1103               	clrz
  3728     00EA  1803               	skipnc
  3729     00EB  3E01               	addlw	1
  3730     00EC  1903               	skipnz
  3731     00ED  28EF               	goto	u4031
  3732     00EE  07C3               	addwf	___flmul@prod+1,f
  3733     00EF                     u4031:
  3734     00EF  0838               	movf	??___flmul+2,w
  3735     00F0  1103               	clrz
  3736     00F1  1803               	skipnc
  3737     00F2  3E01               	addlw	1
  3738     00F3  1903               	skipnz
  3739     00F4  28F6               	goto	u4032
  3740     00F5  07C4               	addwf	___flmul@prod+2,f
  3741     00F6                     u4032:
  3742     00F6  0839               	movf	??___flmul+3,w
  3743     00F7  1103               	clrz
  3744     00F8  1803               	skipnc
  3745     00F9  3E01               	addlw	1
  3746     00FA  1903               	skipnz
  3747     00FB  28FD               	goto	u4033
  3748     00FC  07C5               	addwf	___flmul@prod+3,f
  3749     00FD                     u4033:
  3750     00FD  0830               	movf	___flmul@b+2,w
  3751     00FE  00F4               	movwf	__Umul8_16@multiplicand
  3752     00FF  0832               	movf	___flmul@a,w
  3753     0100  120A  158A  2346  120A  118A  	fcall	__Umul8_16
  3754     0105  0875               	movf	?__Umul8_16+1,w
  3755     0106  1283               	bcf	3,5	;RP0=0, select bank0
  3756     0107  1303               	bcf	3,6	;RP1=0, select bank0
  3757     0108  00C7               	movwf	___flmul@temp+1
  3758     0109  0874               	movf	?__Umul8_16,w
  3759     010A  00C6               	movwf	___flmul@temp
  3760     010B                     l2929:
  3761     010B  0846               	movf	___flmul@temp,w
  3762     010C  00B6               	movwf	??___flmul
  3763     010D  01B7               	clrf	??___flmul+1
  3764     010E  01B8               	clrf	??___flmul+2
  3765     010F  01B9               	clrf	??___flmul+3
  3766     0110  0836               	movf	??___flmul,w
  3767     0111  07BD               	addwf	___flmul@grs,f
  3768     0112  0837               	movf	??___flmul+1,w
  3769     0113  1103               	clrz
  3770     0114  1803               	skipnc
  3771     0115  3E01               	addlw	1
  3772     0116  1903               	skipnz
  3773     0117  2919               	goto	u4041
  3774     0118  07BE               	addwf	___flmul@grs+1,f
  3775     0119                     u4041:
  3776     0119  0838               	movf	??___flmul+2,w
  3777     011A  1103               	clrz
  3778     011B  1803               	skipnc
  3779     011C  3E01               	addlw	1
  3780     011D  1903               	skipnz
  3781     011E  2920               	goto	u4042
  3782     011F  07BF               	addwf	___flmul@grs+2,f
  3783     0120                     u4042:
  3784     0120  0839               	movf	??___flmul+3,w
  3785     0121  1103               	clrz
  3786     0122  1803               	skipnc
  3787     0123  3E01               	addlw	1
  3788     0124  1903               	skipnz
  3789     0125  2927               	goto	u4043
  3790     0126  07C0               	addwf	___flmul@grs+3,f
  3791     0127                     u4043:
  3792     0127                     l2931:
  3793     0127  0847               	movf	___flmul@temp+1,w
  3794     0128  00B6               	movwf	??___flmul
  3795     0129  01B7               	clrf	??___flmul+1
  3796     012A  01B8               	clrf	??___flmul+2
  3797     012B  01B9               	clrf	??___flmul+3
  3798     012C  0836               	movf	??___flmul,w
  3799     012D  07C2               	addwf	___flmul@prod,f
  3800     012E  0837               	movf	??___flmul+1,w
  3801     012F  1103               	clrz
  3802     0130  1803               	skipnc
  3803     0131  3E01               	addlw	1
  3804     0132  1903               	skipnz
  3805     0133  2935               	goto	u4051
  3806     0134  07C3               	addwf	___flmul@prod+1,f
  3807     0135                     u4051:
  3808     0135  0838               	movf	??___flmul+2,w
  3809     0136  1103               	clrz
  3810     0137  1803               	skipnc
  3811     0138  3E01               	addlw	1
  3812     0139  1903               	skipnz
  3813     013A  293C               	goto	u4052
  3814     013B  07C4               	addwf	___flmul@prod+2,f
  3815     013C                     u4052:
  3816     013C  0839               	movf	??___flmul+3,w
  3817     013D  1103               	clrz
  3818     013E  1803               	skipnc
  3819     013F  3E01               	addlw	1
  3820     0140  1903               	skipnz
  3821     0141  2943               	goto	u4053
  3822     0142  07C5               	addwf	___flmul@prod+3,f
  3823     0143                     u4053:
  3824     0143                     l2933:
  3825     0143  3008               	movlw	8
  3826     0144  00B6               	movwf	??___flmul
  3827     0145                     u4065:
  3828     0145  1003               	clrc
  3829     0146  0DBD               	rlf	___flmul@grs,f
  3830     0147  0DBE               	rlf	___flmul@grs+1,f
  3831     0148  0DBF               	rlf	___flmul@grs+2,f
  3832     0149  0DC0               	rlf	___flmul@grs+3,f
  3833     014A  0BB6               	decfsz	??___flmul,f
  3834     014B  2945               	goto	u4065
  3835     014C                     l2935:
  3836     014C  082F               	movf	___flmul@b+1,w
  3837     014D  00F4               	movwf	__Umul8_16@multiplicand
  3838     014E  0832               	movf	___flmul@a,w
  3839     014F  120A  158A  2346  120A  118A  	fcall	__Umul8_16
  3840     0154  0875               	movf	?__Umul8_16+1,w
  3841     0155  1283               	bcf	3,5	;RP0=0, select bank0
  3842     0156  1303               	bcf	3,6	;RP1=0, select bank0
  3843     0157  00C7               	movwf	___flmul@temp+1
  3844     0158  0874               	movf	?__Umul8_16,w
  3845     0159  00C6               	movwf	___flmul@temp
  3846     015A                     l2937:
  3847     015A  0846               	movf	___flmul@temp,w
  3848     015B  00B6               	movwf	??___flmul
  3849     015C  0847               	movf	___flmul@temp+1,w
  3850     015D  00B7               	movwf	??___flmul+1
  3851     015E  01B8               	clrf	??___flmul+2
  3852     015F  01B9               	clrf	??___flmul+3
  3853     0160  0836               	movf	??___flmul,w
  3854     0161  07BD               	addwf	___flmul@grs,f
  3855     0162  0837               	movf	??___flmul+1,w
  3856     0163  1103               	clrz
  3857     0164  1803               	skipnc
  3858     0165  3E01               	addlw	1
  3859     0166  1903               	skipnz
  3860     0167  2969               	goto	u4071
  3861     0168  07BE               	addwf	___flmul@grs+1,f
  3862     0169                     u4071:
  3863     0169  0838               	movf	??___flmul+2,w
  3864     016A  1103               	clrz
  3865     016B  1803               	skipnc
  3866     016C  3E01               	addlw	1
  3867     016D  1903               	skipnz
  3868     016E  2970               	goto	u4072
  3869     016F  07BF               	addwf	___flmul@grs+2,f
  3870     0170                     u4072:
  3871     0170  0839               	movf	??___flmul+3,w
  3872     0171  1103               	clrz
  3873     0172  1803               	skipnc
  3874     0173  3E01               	addlw	1
  3875     0174  1903               	skipnz
  3876     0175  2977               	goto	u4073
  3877     0176  07C0               	addwf	___flmul@grs+3,f
  3878     0177                     u4073:
  3879     0177                     l2939:
  3880     0177  082E               	movf	___flmul@b,w
  3881     0178  00F4               	movwf	__Umul8_16@multiplicand
  3882     0179  0833               	movf	___flmul@a+1,w
  3883     017A  120A  158A  2346  120A  118A  	fcall	__Umul8_16
  3884     017F  0875               	movf	?__Umul8_16+1,w
  3885     0180  1283               	bcf	3,5	;RP0=0, select bank0
  3886     0181  1303               	bcf	3,6	;RP1=0, select bank0
  3887     0182  00C7               	movwf	___flmul@temp+1
  3888     0183  0874               	movf	?__Umul8_16,w
  3889     0184  00C6               	movwf	___flmul@temp
  3890     0185                     l2941:
  3891     0185  0846               	movf	___flmul@temp,w
  3892     0186  00B6               	movwf	??___flmul
  3893     0187  0847               	movf	___flmul@temp+1,w
  3894     0188  00B7               	movwf	??___flmul+1
  3895     0189  01B8               	clrf	??___flmul+2
  3896     018A  01B9               	clrf	??___flmul+3
  3897     018B  0836               	movf	??___flmul,w
  3898     018C  07BD               	addwf	___flmul@grs,f
  3899     018D  0837               	movf	??___flmul+1,w
  3900     018E  1103               	clrz
  3901     018F  1803               	skipnc
  3902     0190  3E01               	addlw	1
  3903     0191  1903               	skipnz
  3904     0192  2994               	goto	u4081
  3905     0193  07BE               	addwf	___flmul@grs+1,f
  3906     0194                     u4081:
  3907     0194  0838               	movf	??___flmul+2,w
  3908     0195  1103               	clrz
  3909     0196  1803               	skipnc
  3910     0197  3E01               	addlw	1
  3911     0198  1903               	skipnz
  3912     0199  299B               	goto	u4082
  3913     019A  07BF               	addwf	___flmul@grs+2,f
  3914     019B                     u4082:
  3915     019B  0839               	movf	??___flmul+3,w
  3916     019C  1103               	clrz
  3917     019D  1803               	skipnc
  3918     019E  3E01               	addlw	1
  3919     019F  1903               	skipnz
  3920     01A0  29A2               	goto	u4083
  3921     01A1  07C0               	addwf	___flmul@grs+3,f
  3922     01A2                     u4083:
  3923     01A2                     l2943:
  3924     01A2  3008               	movlw	8
  3925     01A3  00B6               	movwf	??___flmul
  3926     01A4                     u4095:
  3927     01A4  1003               	clrc
  3928     01A5  0DBD               	rlf	___flmul@grs,f
  3929     01A6  0DBE               	rlf	___flmul@grs+1,f
  3930     01A7  0DBF               	rlf	___flmul@grs+2,f
  3931     01A8  0DC0               	rlf	___flmul@grs+3,f
  3932     01A9  0BB6               	decfsz	??___flmul,f
  3933     01AA  29A4               	goto	u4095
  3934     01AB  082E               	movf	___flmul@b,w
  3935     01AC  00F4               	movwf	__Umul8_16@multiplicand
  3936     01AD  0832               	movf	___flmul@a,w
  3937     01AE  120A  158A  2346  120A  118A  	fcall	__Umul8_16
  3938     01B3  0875               	movf	?__Umul8_16+1,w
  3939     01B4  1283               	bcf	3,5	;RP0=0, select bank0
  3940     01B5  1303               	bcf	3,6	;RP1=0, select bank0
  3941     01B6  00C7               	movwf	___flmul@temp+1
  3942     01B7  0874               	movf	?__Umul8_16,w
  3943     01B8  00C6               	movwf	___flmul@temp
  3944     01B9                     l2945:
  3945     01B9  0846               	movf	___flmul@temp,w
  3946     01BA  00B6               	movwf	??___flmul
  3947     01BB  0847               	movf	___flmul@temp+1,w
  3948     01BC  00B7               	movwf	??___flmul+1
  3949     01BD  01B8               	clrf	??___flmul+2
  3950     01BE  01B9               	clrf	??___flmul+3
  3951     01BF  0836               	movf	??___flmul,w
  3952     01C0  07BD               	addwf	___flmul@grs,f
  3953     01C1  0837               	movf	??___flmul+1,w
  3954     01C2  1103               	clrz
  3955     01C3  1803               	skipnc
  3956     01C4  3E01               	addlw	1
  3957     01C5  1903               	skipnz
  3958     01C6  29C8               	goto	u4101
  3959     01C7  07BE               	addwf	___flmul@grs+1,f
  3960     01C8                     u4101:
  3961     01C8  0838               	movf	??___flmul+2,w
  3962     01C9  1103               	clrz
  3963     01CA  1803               	skipnc
  3964     01CB  3E01               	addlw	1
  3965     01CC  1903               	skipnz
  3966     01CD  29CF               	goto	u4102
  3967     01CE  07BF               	addwf	___flmul@grs+2,f
  3968     01CF                     u4102:
  3969     01CF  0839               	movf	??___flmul+3,w
  3970     01D0  1103               	clrz
  3971     01D1  1803               	skipnc
  3972     01D2  3E01               	addlw	1
  3973     01D3  1903               	skipnz
  3974     01D4  29D6               	goto	u4103
  3975     01D5  07C0               	addwf	___flmul@grs+3,f
  3976     01D6                     u4103:
  3977     01D6                     l2947:
  3978     01D6  082F               	movf	___flmul@b+1,w
  3979     01D7  00F4               	movwf	__Umul8_16@multiplicand
  3980     01D8  0834               	movf	___flmul@a+2,w
  3981     01D9  120A  158A  2346  120A  118A  	fcall	__Umul8_16
  3982     01DE  0875               	movf	?__Umul8_16+1,w
  3983     01DF  1283               	bcf	3,5	;RP0=0, select bank0
  3984     01E0  1303               	bcf	3,6	;RP1=0, select bank0
  3985     01E1  00C7               	movwf	___flmul@temp+1
  3986     01E2  0874               	movf	?__Umul8_16,w
  3987     01E3  00C6               	movwf	___flmul@temp
  3988     01E4  0846               	movf	___flmul@temp,w
  3989     01E5  00B6               	movwf	??___flmul
  3990     01E6  0847               	movf	___flmul@temp+1,w
  3991     01E7  00B7               	movwf	??___flmul+1
  3992     01E8  01B8               	clrf	??___flmul+2
  3993     01E9  01B9               	clrf	??___flmul+3
  3994     01EA  0836               	movf	??___flmul,w
  3995     01EB  07C2               	addwf	___flmul@prod,f
  3996     01EC  0837               	movf	??___flmul+1,w
  3997     01ED  1103               	clrz
  3998     01EE  1803               	skipnc
  3999     01EF  3E01               	addlw	1
  4000     01F0  1903               	skipnz
  4001     01F1  29F3               	goto	u4111
  4002     01F2  07C3               	addwf	___flmul@prod+1,f
  4003     01F3                     u4111:
  4004     01F3  0838               	movf	??___flmul+2,w
  4005     01F4  1103               	clrz
  4006     01F5  1803               	skipnc
  4007     01F6  3E01               	addlw	1
  4008     01F7  1903               	skipnz
  4009     01F8  29FA               	goto	u4112
  4010     01F9  07C4               	addwf	___flmul@prod+2,f
  4011     01FA                     u4112:
  4012     01FA  0839               	movf	??___flmul+3,w
  4013     01FB  1103               	clrz
  4014     01FC  1803               	skipnc
  4015     01FD  3E01               	addlw	1
  4016     01FE  1903               	skipnz
  4017     01FF  2A01               	goto	u4113
  4018     0200  07C5               	addwf	___flmul@prod+3,f
  4019     0201                     u4113:
  4020     0201                     l2949:
  4021     0201  0830               	movf	___flmul@b+2,w
  4022     0202  00F4               	movwf	__Umul8_16@multiplicand
  4023     0203  0833               	movf	___flmul@a+1,w
  4024     0204  120A  158A  2346  120A  118A  	fcall	__Umul8_16
  4025     0209  0875               	movf	?__Umul8_16+1,w
  4026     020A  1283               	bcf	3,5	;RP0=0, select bank0
  4027     020B  1303               	bcf	3,6	;RP1=0, select bank0
  4028     020C  00C7               	movwf	___flmul@temp+1
  4029     020D  0874               	movf	?__Umul8_16,w
  4030     020E  00C6               	movwf	___flmul@temp
  4031     020F                     l2951:
  4032     020F  0846               	movf	___flmul@temp,w
  4033     0210  00B6               	movwf	??___flmul
  4034     0211  0847               	movf	___flmul@temp+1,w
  4035     0212  00B7               	movwf	??___flmul+1
  4036     0213  01B8               	clrf	??___flmul+2
  4037     0214  01B9               	clrf	??___flmul+3
  4038     0215  0836               	movf	??___flmul,w
  4039     0216  07C2               	addwf	___flmul@prod,f
  4040     0217  0837               	movf	??___flmul+1,w
  4041     0218  1103               	clrz
  4042     0219  1803               	skipnc
  4043     021A  3E01               	addlw	1
  4044     021B  1903               	skipnz
  4045     021C  2A1E               	goto	u4121
  4046     021D  07C3               	addwf	___flmul@prod+1,f
  4047     021E                     u4121:
  4048     021E  0838               	movf	??___flmul+2,w
  4049     021F  1103               	clrz
  4050     0220  1803               	skipnc
  4051     0221  3E01               	addlw	1
  4052     0222  1903               	skipnz
  4053     0223  2A25               	goto	u4122
  4054     0224  07C4               	addwf	___flmul@prod+2,f
  4055     0225                     u4122:
  4056     0225  0839               	movf	??___flmul+3,w
  4057     0226  1103               	clrz
  4058     0227  1803               	skipnc
  4059     0228  3E01               	addlw	1
  4060     0229  1903               	skipnz
  4061     022A  2A2C               	goto	u4123
  4062     022B  07C5               	addwf	___flmul@prod+3,f
  4063     022C                     u4123:
  4064     022C  0830               	movf	___flmul@b+2,w
  4065     022D  00F4               	movwf	__Umul8_16@multiplicand
  4066     022E  0834               	movf	___flmul@a+2,w
  4067     022F  120A  158A  2346  120A  118A  	fcall	__Umul8_16
  4068     0234  0875               	movf	?__Umul8_16+1,w
  4069     0235  1283               	bcf	3,5	;RP0=0, select bank0
  4070     0236  1303               	bcf	3,6	;RP1=0, select bank0
  4071     0237  00C7               	movwf	___flmul@temp+1
  4072     0238  0874               	movf	?__Umul8_16,w
  4073     0239  00C6               	movwf	___flmul@temp
  4074     023A                     l2953:
  4075     023A  0846               	movf	___flmul@temp,w
  4076     023B  00B6               	movwf	??___flmul
  4077     023C  0847               	movf	___flmul@temp+1,w
  4078     023D  00B7               	movwf	??___flmul+1
  4079     023E  01B8               	clrf	??___flmul+2
  4080     023F  01B9               	clrf	??___flmul+3
  4081     0240  3008               	movlw	8
  4082     0241                     u4135:
  4083     0241  1003               	clrc
  4084     0242  0DB6               	rlf	??___flmul,f
  4085     0243  0DB7               	rlf	??___flmul+1,f
  4086     0244  0DB8               	rlf	??___flmul+2,f
  4087     0245  0DB9               	rlf	??___flmul+3,f
  4088     0246                     u4130:
  4089     0246  3EFF               	addlw	-1
  4090     0247  1D03               	skipz
  4091     0248  2A41               	goto	u4135
  4092     0249  0836               	movf	??___flmul,w
  4093     024A  07C2               	addwf	___flmul@prod,f
  4094     024B  0837               	movf	??___flmul+1,w
  4095     024C  1103               	clrz
  4096     024D  1803               	skipnc
  4097     024E  3E01               	addlw	1
  4098     024F  1903               	skipnz
  4099     0250  2A52               	goto	u4141
  4100     0251  07C3               	addwf	___flmul@prod+1,f
  4101     0252                     u4141:
  4102     0252  0838               	movf	??___flmul+2,w
  4103     0253  1103               	clrz
  4104     0254  1803               	skipnc
  4105     0255  3E01               	addlw	1
  4106     0256  1903               	skipnz
  4107     0257  2A59               	goto	u4142
  4108     0258  07C4               	addwf	___flmul@prod+2,f
  4109     0259                     u4142:
  4110     0259  0839               	movf	??___flmul+3,w
  4111     025A  1103               	clrz
  4112     025B  1803               	skipnc
  4113     025C  3E01               	addlw	1
  4114     025D  1903               	skipnz
  4115     025E  2A60               	goto	u4143
  4116     025F  07C5               	addwf	___flmul@prod+3,f
  4117     0260                     u4143:
  4118     0260                     l2955:
  4119     0260  083D               	movf	___flmul@grs,w
  4120     0261  00B6               	movwf	??___flmul
  4121     0262  083E               	movf	___flmul@grs+1,w
  4122     0263  00B7               	movwf	??___flmul+1
  4123     0264  083F               	movf	___flmul@grs+2,w
  4124     0265  00B8               	movwf	??___flmul+2
  4125     0266  0840               	movf	___flmul@grs+3,w
  4126     0267  00B9               	movwf	??___flmul+3
  4127     0268  3018               	movlw	24
  4128     0269                     u4155:
  4129     0269  1003               	clrc
  4130     026A  0CB9               	rrf	??___flmul+3,f
  4131     026B  0CB8               	rrf	??___flmul+2,f
  4132     026C  0CB7               	rrf	??___flmul+1,f
  4133     026D  0CB6               	rrf	??___flmul,f
  4134     026E                     u4150:
  4135     026E  3EFF               	addlw	-1
  4136     026F  1D03               	skipz
  4137     0270  2A69               	goto	u4155
  4138     0271  0836               	movf	??___flmul,w
  4139     0272  07C2               	addwf	___flmul@prod,f
  4140     0273  0837               	movf	??___flmul+1,w
  4141     0274  1103               	clrz
  4142     0275  1803               	skipnc
  4143     0276  3E01               	addlw	1
  4144     0277  1903               	skipnz
  4145     0278  2A7A               	goto	u4161
  4146     0279  07C3               	addwf	___flmul@prod+1,f
  4147     027A                     u4161:
  4148     027A  0838               	movf	??___flmul+2,w
  4149     027B  1103               	clrz
  4150     027C  1803               	skipnc
  4151     027D  3E01               	addlw	1
  4152     027E  1903               	skipnz
  4153     027F  2A81               	goto	u4162
  4154     0280  07C4               	addwf	___flmul@prod+2,f
  4155     0281                     u4162:
  4156     0281  0839               	movf	??___flmul+3,w
  4157     0282  1103               	clrz
  4158     0283  1803               	skipnc
  4159     0284  3E01               	addlw	1
  4160     0285  1903               	skipnz
  4161     0286  2A88               	goto	u4163
  4162     0287  07C5               	addwf	___flmul@prod+3,f
  4163     0288                     u4163:
  4164     0288                     l2957:
  4165     0288  3008               	movlw	8
  4166     0289  00B6               	movwf	??___flmul
  4167     028A                     u4175:
  4168     028A  1003               	clrc
  4169     028B  0DBD               	rlf	___flmul@grs,f
  4170     028C  0DBE               	rlf	___flmul@grs+1,f
  4171     028D  0DBF               	rlf	___flmul@grs+2,f
  4172     028E  0DC0               	rlf	___flmul@grs+3,f
  4173     028F  0BB6               	decfsz	??___flmul,f
  4174     0290  2A8A               	goto	u4175
  4175     0291                     l2959:
  4176     0291  0841               	movf	___flmul@bexp,w
  4177     0292  073C               	addwf	___flmul@aexp,w
  4178     0293  00B6               	movwf	??___flmul
  4179     0294  01B7               	clrf	??___flmul+1
  4180     0295  0DB7               	rlf	??___flmul+1,f
  4181     0296  0836               	movf	??___flmul,w
  4182     0297  3E82               	addlw	130
  4183     0298  00C6               	movwf	___flmul@temp
  4184     0299  0837               	movf	??___flmul+1,w
  4185     029A  1803               	skipnc
  4186     029B  3E01               	addlw	1
  4187     029C  3EFF               	addlw	255
  4188     029D  00C7               	movwf	___flmul@temp+1
  4189     029E  2ABC               	goto	l2971
  4190     029F                     l2961:
  4191     029F  3001               	movlw	1
  4192     02A0  00B6               	movwf	??___flmul
  4193     02A1                     u4185:
  4194     02A1  1003               	clrc
  4195     02A2  0DC2               	rlf	___flmul@prod,f
  4196     02A3  0DC3               	rlf	___flmul@prod+1,f
  4197     02A4  0DC4               	rlf	___flmul@prod+2,f
  4198     02A5  0DC5               	rlf	___flmul@prod+3,f
  4199     02A6  0BB6               	decfsz	??___flmul,f
  4200     02A7  2AA1               	goto	u4185
  4201     02A8                     l2963:
  4202     02A8  1FC0               	btfss	___flmul@grs+3,7
  4203     02A9  2AAB               	goto	u4191
  4204     02AA  2AAC               	goto	u4190
  4205     02AB                     u4191:
  4206     02AB  2AAD               	goto	l2967
  4207     02AC                     u4190:
  4208     02AC                     l2965:
  4209     02AC  1442               	bsf	___flmul@prod,0
  4210     02AD                     l2967:
  4211     02AD  3001               	movlw	1
  4212     02AE  00B6               	movwf	??___flmul
  4213     02AF                     u4205:
  4214     02AF  1003               	clrc
  4215     02B0  0DBD               	rlf	___flmul@grs,f
  4216     02B1  0DBE               	rlf	___flmul@grs+1,f
  4217     02B2  0DBF               	rlf	___flmul@grs+2,f
  4218     02B3  0DC0               	rlf	___flmul@grs+3,f
  4219     02B4  0BB6               	decfsz	??___flmul,f
  4220     02B5  2AAF               	goto	u4205
  4221     02B6                     l2969:
  4222     02B6  30FF               	movlw	255
  4223     02B7  07C6               	addwf	___flmul@temp,f
  4224     02B8  1803               	skipnc
  4225     02B9  0AC7               	incf	___flmul@temp+1,f
  4226     02BA  30FF               	movlw	255
  4227     02BB  07C7               	addwf	___flmul@temp+1,f
  4228     02BC                     l2971:
  4229     02BC  1FC4               	btfss	___flmul@prod+2,7
  4230     02BD  2ABF               	goto	u4211
  4231     02BE  2AC0               	goto	u4210
  4232     02BF                     u4211:
  4233     02BF  2A9F               	goto	l2961
  4234     02C0                     u4210:
  4235     02C0                     l2973:
  4236     02C0  01BC               	clrf	___flmul@aexp
  4237     02C1                     l2975:
  4238     02C1  1FC0               	btfss	___flmul@grs+3,7
  4239     02C2  2AC4               	goto	u4221
  4240     02C3  2AC5               	goto	u4220
  4241     02C4                     u4221:
  4242     02C4  2AE1               	goto	l2983
  4243     02C5                     u4220:
  4244     02C5                     l2977:
  4245     02C5  30FF               	movlw	255
  4246     02C6  053D               	andwf	___flmul@grs,w
  4247     02C7  00B6               	movwf	??___flmul
  4248     02C8  30FF               	movlw	255
  4249     02C9  053E               	andwf	___flmul@grs+1,w
  4250     02CA  00B7               	movwf	??___flmul+1
  4251     02CB  30FF               	movlw	255
  4252     02CC  053F               	andwf	___flmul@grs+2,w
  4253     02CD  00B8               	movwf	??___flmul+2
  4254     02CE  307F               	movlw	127
  4255     02CF  0540               	andwf	___flmul@grs+3,w
  4256     02D0  00B9               	movwf	??___flmul+3
  4257     02D1  0839               	movf	??___flmul+3,w
  4258     02D2  0438               	iorwf	??___flmul+2,w
  4259     02D3  0437               	iorwf	??___flmul+1,w
  4260     02D4  0436               	iorwf	??___flmul,w
  4261     02D5  1903               	skipnz
  4262     02D6  2AD8               	goto	u4231
  4263     02D7  2AD9               	goto	u4230
  4264     02D8                     u4231:
  4265     02D8  2ADC               	goto	l812
  4266     02D9                     u4230:
  4267     02D9                     l2979:
  4268     02D9  01BC               	clrf	___flmul@aexp
  4269     02DA  0ABC               	incf	___flmul@aexp,f
  4270     02DB  2AE1               	goto	l2983
  4271     02DC                     l812:
  4272     02DC  1C42               	btfss	___flmul@prod,0
  4273     02DD  2ADF               	goto	u4241
  4274     02DE  2AE0               	goto	u4240
  4275     02DF                     u4241:
  4276     02DF  2AE1               	goto	l2983
  4277     02E0                     u4240:
  4278     02E0  2AD9               	goto	l2979
  4279     02E1                     l2983:
  4280     02E1  083C               	movf	___flmul@aexp,w
  4281     02E2  1903               	btfsc	3,2
  4282     02E3  2AE5               	goto	u4251
  4283     02E4  2AE6               	goto	u4250
  4284     02E5                     u4251:
  4285     02E5  2B17               	goto	l2993
  4286     02E6                     u4250:
  4287     02E6                     l2985:
  4288     02E6  3001               	movlw	1
  4289     02E7  07C2               	addwf	___flmul@prod,f
  4290     02E8  3000               	movlw	0
  4291     02E9  1803               	skipnc
  4292     02EA  3001               	movlw	1
  4293     02EB  07C3               	addwf	___flmul@prod+1,f
  4294     02EC  3000               	movlw	0
  4295     02ED  1803               	skipnc
  4296     02EE  3001               	movlw	1
  4297     02EF  07C4               	addwf	___flmul@prod+2,f
  4298     02F0  3000               	movlw	0
  4299     02F1  1803               	skipnc
  4300     02F2  3001               	movlw	1
  4301     02F3  07C5               	addwf	___flmul@prod+3,f
  4302     02F4                     l2987:
  4303     02F4  1C45               	btfss	___flmul@prod+3,0
  4304     02F5  2AF7               	goto	u4261
  4305     02F6  2AF8               	goto	u4260
  4306     02F7                     u4261:
  4307     02F7  2B17               	goto	l2993
  4308     02F8                     u4260:
  4309     02F8                     l2989:
  4310     02F8  0842               	movf	___flmul@prod,w
  4311     02F9  00B6               	movwf	??___flmul
  4312     02FA  0843               	movf	___flmul@prod+1,w
  4313     02FB  00B7               	movwf	??___flmul+1
  4314     02FC  0844               	movf	___flmul@prod+2,w
  4315     02FD  00B8               	movwf	??___flmul+2
  4316     02FE  0845               	movf	___flmul@prod+3,w
  4317     02FF  00B9               	movwf	??___flmul+3
  4318     0300  3001               	movlw	1
  4319     0301  00BA               	movwf	??___flmul+4
  4320     0302                     u4275:
  4321     0302  0D39               	rlf	??___flmul+3,w
  4322     0303  0CB9               	rrf	??___flmul+3,f
  4323     0304  0CB8               	rrf	??___flmul+2,f
  4324     0305  0CB7               	rrf	??___flmul+1,f
  4325     0306  0CB6               	rrf	??___flmul,f
  4326     0307                     u4270:
  4327     0307  0BBA               	decfsz	??___flmul+4,f
  4328     0308  2B02               	goto	u4275
  4329     0309  0839               	movf	??___flmul+3,w
  4330     030A  00C5               	movwf	___flmul@prod+3
  4331     030B  0838               	movf	??___flmul+2,w
  4332     030C  00C4               	movwf	___flmul@prod+2
  4333     030D  0837               	movf	??___flmul+1,w
  4334     030E  00C3               	movwf	___flmul@prod+1
  4335     030F  0836               	movf	??___flmul,w
  4336     0310  00C2               	movwf	___flmul@prod
  4337     0311                     l2991:
  4338     0311  3001               	movlw	1
  4339     0312  07C6               	addwf	___flmul@temp,f
  4340     0313  1803               	skipnc
  4341     0314  0AC7               	incf	___flmul@temp+1,f
  4342     0315  3000               	movlw	0
  4343     0316  07C7               	addwf	___flmul@temp+1,f
  4344     0317                     l2993:
  4345     0317  0847               	movf	___flmul@temp+1,w
  4346     0318  3A80               	xorlw	128
  4347     0319  00FF               	movwf	btemp+1
  4348     031A  3080               	movlw	128
  4349     031B  027F               	subwf	btemp+1,w
  4350     031C  1D03               	skipz
  4351     031D  2B20               	goto	u4285
  4352     031E  30FF               	movlw	255
  4353     031F  0246               	subwf	___flmul@temp,w
  4354     0320                     u4285:
  4355     0320  1C03               	skipc
  4356     0321  2B23               	goto	u4281
  4357     0322  2B24               	goto	u4280
  4358     0323                     u4281:
  4359     0323  2B2F               	goto	l2997
  4360     0324                     u4280:
  4361     0324                     l2995:
  4362     0324  307F               	movlw	127
  4363     0325  1283               	bcf	3,5	;RP0=0, select bank0
  4364     0326  1303               	bcf	3,6	;RP1=0, select bank0
  4365     0327  00C5               	movwf	___flmul@prod+3
  4366     0328  3080               	movlw	128
  4367     0329  00C4               	movwf	___flmul@prod+2
  4368     032A  3000               	movlw	0
  4369     032B  00C3               	movwf	___flmul@prod+1
  4370     032C  3000               	movlw	0
  4371     032D  00C2               	movwf	___flmul@prod
  4372     032E  2B60               	goto	l818
  4373     032F                     l2997:
  4374     032F  1283               	bcf	3,5	;RP0=0, select bank0
  4375     0330  1303               	bcf	3,6	;RP1=0, select bank0
  4376     0331  0847               	movf	___flmul@temp+1,w
  4377     0332  3A80               	xorlw	128
  4378     0333  00FF               	movwf	btemp+1
  4379     0334  3080               	movlw	128
  4380     0335  027F               	subwf	btemp+1,w
  4381     0336  1D03               	skipz
  4382     0337  2B3A               	goto	u4295
  4383     0338  3001               	movlw	1
  4384     0339  0246               	subwf	___flmul@temp,w
  4385     033A                     u4295:
  4386     033A  1803               	skipnc
  4387     033B  2B3D               	goto	u4291
  4388     033C  2B3E               	goto	u4290
  4389     033D                     u4291:
  4390     033D  2B4A               	goto	l3003
  4391     033E                     u4290:
  4392     033E                     l2999:
  4393     033E  3000               	movlw	0
  4394     033F  1283               	bcf	3,5	;RP0=0, select bank0
  4395     0340  1303               	bcf	3,6	;RP1=0, select bank0
  4396     0341  00C5               	movwf	___flmul@prod+3
  4397     0342  3000               	movlw	0
  4398     0343  00C4               	movwf	___flmul@prod+2
  4399     0344  3000               	movlw	0
  4400     0345  00C3               	movwf	___flmul@prod+1
  4401     0346  3000               	movlw	0
  4402     0347  00C2               	movwf	___flmul@prod
  4403     0348                     l3001:
  4404     0348  01BB               	clrf	___flmul@sign
  4405     0349  2B60               	goto	l818
  4406     034A                     l3003:
  4407     034A  1283               	bcf	3,5	;RP0=0, select bank0
  4408     034B  1303               	bcf	3,6	;RP1=0, select bank0
  4409     034C  0846               	movf	___flmul@temp,w
  4410     034D  00C1               	movwf	___flmul@bexp
  4411     034E  30FF               	movlw	255
  4412     034F  05C2               	andwf	___flmul@prod,f
  4413     0350  30FF               	movlw	255
  4414     0351  05C3               	andwf	___flmul@prod+1,f
  4415     0352  307F               	movlw	127
  4416     0353  05C4               	andwf	___flmul@prod+2,f
  4417     0354  3000               	movlw	0
  4418     0355  05C5               	andwf	___flmul@prod+3,f
  4419     0356                     l3005:
  4420     0356  1C41               	btfss	___flmul@bexp,0
  4421     0357  2B59               	goto	u4301
  4422     0358  2B5A               	goto	u4300
  4423     0359                     u4301:
  4424     0359  2B5B               	goto	l3009
  4425     035A                     u4300:
  4426     035A                     l3007:
  4427     035A  17C4               	bsf	___flmul@prod+2,7
  4428     035B                     l3009:
  4429     035B  0841               	movf	___flmul@bexp,w
  4430     035C  00B6               	movwf	??___flmul
  4431     035D  1003               	clrc
  4432     035E  0C36               	rrf	??___flmul,w
  4433     035F  00C5               	movwf	___flmul@prod+3
  4434     0360                     l818:
  4435     0360  083B               	movf	___flmul@sign,w
  4436     0361  00B6               	movwf	??___flmul
  4437     0362  0836               	movf	??___flmul,w
  4438     0363  04C5               	iorwf	___flmul@prod+3,f
  4439     0364                     l3011:
  4440     0364  0845               	movf	___flmul@prod+3,w
  4441     0365  00B1               	movwf	?___flmul+3
  4442     0366  0844               	movf	___flmul@prod+2,w
  4443     0367  00B0               	movwf	?___flmul+2
  4444     0368  0843               	movf	___flmul@prod+1,w
  4445     0369  00AF               	movwf	?___flmul+1
  4446     036A  0842               	movf	___flmul@prod,w
  4447     036B  00AE               	movwf	?___flmul
  4448     036C                     l806:
  4449     036C  0008               	return
  4450     036D                     __end_of___flmul:
  4451                           
  4452                           	psect	text16
  4453     0B46                     __ptext16:	
  4454 ;; *************** function __Umul8_16 *****************
  4455 ;; Defined at:
  4456 ;;		line 4 in file "C:\Program Files\Microchip\xc8\v2.40\pic\sources\c90\common\Umul8_16.c"
  4457 ;; Parameters:    Size  Location     Type
  4458 ;;  multiplier      1    wreg     unsigned char 
  4459 ;;  multiplicand    1    4[COMMON] unsigned char 
  4460 ;; Auto vars:     Size  Location     Type
  4461 ;;  multiplier      1    6[BANK0 ] unsigned char 
  4462 ;;  word_mpld       2    4[BANK0 ] unsigned int 
  4463 ;;  product         2    2[BANK0 ] unsigned int 
  4464 ;; Return value:  Size  Location     Type
  4465 ;;                  2    4[COMMON] unsigned int 
  4466 ;; Registers used:
  4467 ;;		wreg, status,2, status,0
  4468 ;; Tracked objects:
  4469 ;;		On entry : 0/0
  4470 ;;		On exit  : 0/0
  4471 ;;		Unchanged: 0/0
  4472 ;; Data sizes:     COMMON   BANK0   BANK1   BANK3   BANK2
  4473 ;;      Params:         2       0       0       0       0
  4474 ;;      Locals:         0       5       0       0       0
  4475 ;;      Temps:          0       2       0       0       0
  4476 ;;      Totals:         2       7       0       0       0
  4477 ;;Total ram usage:        9 bytes
  4478 ;; Hardware stack levels used: 1
  4479 ;; Hardware stack levels required when called: 2
  4480 ;; This function calls:
  4481 ;;		Nothing
  4482 ;; This function is called by:
  4483 ;;		___flmul
  4484 ;; This function uses a non-reentrant model
  4485 ;;
  4486                           
  4487     0B46                     __Umul8_16:	
  4488                           ;psect for function __Umul8_16
  4489                           
  4490                           
  4491                           ;incstack = 0
  4492                           ; Regs used in __Umul8_16: [wreg+status,2+status,0]
  4493                           ;__Umul8_16@multiplier stored from wreg
  4494     0B46  1283               	bcf	3,5	;RP0=0, select bank0
  4495     0B47  1303               	bcf	3,6	;RP1=0, select bank0
  4496     0B48  00A6               	movwf	__Umul8_16@multiplier
  4497     0B49                     l2811:
  4498     0B49  01A2               	clrf	__Umul8_16@product
  4499     0B4A  01A3               	clrf	__Umul8_16@product+1
  4500     0B4B                     l2813:
  4501     0B4B  0874               	movf	__Umul8_16@multiplicand,w
  4502     0B4C  00A0               	movwf	??__Umul8_16
  4503     0B4D  01A1               	clrf	??__Umul8_16+1
  4504     0B4E  0820               	movf	??__Umul8_16,w
  4505     0B4F  00A4               	movwf	__Umul8_16@word_mpld
  4506     0B50  0821               	movf	??__Umul8_16+1,w
  4507     0B51  00A5               	movwf	__Umul8_16@word_mpld+1
  4508     0B52                     l2815:
  4509     0B52  1C26               	btfss	__Umul8_16@multiplier,0
  4510     0B53  2B55               	goto	u3771
  4511     0B54  2B56               	goto	u3770
  4512     0B55                     u3771:
  4513     0B55  2B5C               	goto	l825
  4514     0B56                     u3770:
  4515     0B56                     l2817:
  4516     0B56  0824               	movf	__Umul8_16@word_mpld,w
  4517     0B57  07A2               	addwf	__Umul8_16@product,f
  4518     0B58  1803               	skipnc
  4519     0B59  0AA3               	incf	__Umul8_16@product+1,f
  4520     0B5A  0825               	movf	__Umul8_16@word_mpld+1,w
  4521     0B5B  07A3               	addwf	__Umul8_16@product+1,f
  4522     0B5C                     l825:
  4523     0B5C  3001               	movlw	1
  4524     0B5D                     u3785:
  4525     0B5D  1003               	clrc
  4526     0B5E  0DA4               	rlf	__Umul8_16@word_mpld,f
  4527     0B5F  0DA5               	rlf	__Umul8_16@word_mpld+1,f
  4528     0B60  3EFF               	addlw	-1
  4529     0B61  1D03               	skipz
  4530     0B62  2B5D               	goto	u3785
  4531     0B63  1003               	clrc
  4532     0B64  0CA6               	rrf	__Umul8_16@multiplier,f
  4533     0B65                     l2819:
  4534     0B65  0826               	movf	__Umul8_16@multiplier,w
  4535     0B66  1D03               	btfss	3,2
  4536     0B67  2B69               	goto	u3791
  4537     0B68  2B6A               	goto	u3790
  4538     0B69                     u3791:
  4539     0B69  2B52               	goto	l2815
  4540     0B6A                     u3790:
  4541     0B6A                     l2821:
  4542     0B6A  0823               	movf	__Umul8_16@product+1,w
  4543     0B6B  00F5               	movwf	?__Umul8_16+1
  4544     0B6C  0822               	movf	__Umul8_16@product,w
  4545     0B6D  00F4               	movwf	?__Umul8_16
  4546     0B6E                     l827:
  4547     0B6E  0008               	return
  4548     0B6F                     __end_of__Umul8_16:
  4549                           
  4550                           	psect	text17
  4551     036D                     __ptext17:	
  4552 ;; *************** function ___fladd *****************
  4553 ;; Defined at:
  4554 ;;		line 10 in file "C:\Program Files\Microchip\xc8\v2.40\pic\sources\c90\common\sprcadd.c"
  4555 ;; Parameters:    Size  Location     Type
  4556 ;;  b               4   40[BANK0 ] unsigned int 
  4557 ;;  a               4   44[BANK0 ] unsigned int 
  4558 ;; Auto vars:     Size  Location     Type
  4559 ;;  grs             1   59[BANK0 ] unsigned char 
  4560 ;;  bexp            1   58[BANK0 ] unsigned char 
  4561 ;;  aexp            1   57[BANK0 ] unsigned char 
  4562 ;;  signs           1   56[BANK0 ] unsigned char 
  4563 ;; Return value:  Size  Location     Type
  4564 ;;                  4   40[BANK0 ] unsigned char 
  4565 ;; Registers used:
  4566 ;;		wreg, status,2, status,0, btemp+1
  4567 ;; Tracked objects:
  4568 ;;		On entry : 0/0
  4569 ;;		On exit  : 0/0
  4570 ;;		Unchanged: 0/0
  4571 ;; Data sizes:     COMMON   BANK0   BANK1   BANK3   BANK2
  4572 ;;      Params:         0       8       0       0       0
  4573 ;;      Locals:         0       4       0       0       0
  4574 ;;      Temps:          0       8       0       0       0
  4575 ;;      Totals:         0      20       0       0       0
  4576 ;;Total ram usage:       20 bytes
  4577 ;; Hardware stack levels used: 1
  4578 ;; Hardware stack levels required when called: 2
  4579 ;; This function calls:
  4580 ;;		Nothing
  4581 ;; This function is called by:
  4582 ;;		_mapeo
  4583 ;; This function uses a non-reentrant model
  4584 ;;
  4585                           
  4586     036D                     ___fladd:	
  4587                           ;psect for function ___fladd
  4588                           
  4589     036D                     l1979:	
  4590                           ;incstack = 0
  4591                           ; Regs used in ___fladd: [wreg+status,2+status,0+btemp+1]
  4592                           
  4593     036D  1283               	bcf	3,5	;RP0=0, select bank0
  4594     036E  1303               	bcf	3,6	;RP1=0, select bank0
  4595     036F  084B               	movf	___fladd@b+3,w
  4596     0370  3980               	andlw	128
  4597     0371  00D8               	movwf	___fladd@signs
  4598     0372                     l1981:
  4599     0372  084B               	movf	___fladd@b+3,w
  4600     0373  00D0               	movwf	??___fladd
  4601     0374  0750               	addwf	??___fladd,w
  4602     0375  00DA               	movwf	___fladd@bexp
  4603     0376                     l1983:
  4604     0376  1FCA               	btfss	___fladd@b+2,7
  4605     0377  2B79               	goto	u2171
  4606     0378  2B7A               	goto	u2170
  4607     0379                     u2171:
  4608     0379  2B7B               	goto	l1987
  4609     037A                     u2170:
  4610     037A                     l1985:
  4611     037A  145A               	bsf	___fladd@bexp,0
  4612     037B                     l1987:
  4613     037B  085A               	movf	___fladd@bexp,w
  4614     037C  1903               	btfsc	3,2
  4615     037D  2B7F               	goto	u2181
  4616     037E  2B80               	goto	u2180
  4617     037F                     u2181:
  4618     037F  2B90               	goto	l1997
  4619     0380                     u2180:
  4620     0380                     l1989:
  4621     0380  0A5A               	incf	___fladd@bexp,w
  4622     0381  1D03               	btfss	3,2
  4623     0382  2B84               	goto	u2191
  4624     0383  2B85               	goto	u2190
  4625     0384                     u2191:
  4626     0384  2B8D               	goto	l1993
  4627     0385                     u2190:
  4628     0385                     l1991:
  4629     0385  3000               	movlw	0
  4630     0386  00CB               	movwf	___fladd@b+3
  4631     0387  3000               	movlw	0
  4632     0388  00CA               	movwf	___fladd@b+2
  4633     0389  3000               	movlw	0
  4634     038A  00C9               	movwf	___fladd@b+1
  4635     038B  3000               	movlw	0
  4636     038C  00C8               	movwf	___fladd@b
  4637     038D                     l1993:
  4638     038D  17CA               	bsf	___fladd@b+2,7
  4639     038E                     l1995:
  4640     038E  01CB               	clrf	___fladd@b+3
  4641     038F  2B98               	goto	l1999
  4642     0390                     l1997:
  4643     0390  3000               	movlw	0
  4644     0391  00CB               	movwf	___fladd@b+3
  4645     0392  3000               	movlw	0
  4646     0393  00CA               	movwf	___fladd@b+2
  4647     0394  3000               	movlw	0
  4648     0395  00C9               	movwf	___fladd@b+1
  4649     0396  3000               	movlw	0
  4650     0397  00C8               	movwf	___fladd@b
  4651     0398                     l1999:
  4652     0398  084F               	movf	___fladd@a+3,w
  4653     0399  3980               	andlw	128
  4654     039A  00D9               	movwf	___fladd@aexp
  4655     039B                     l2001:
  4656     039B  0859               	movf	___fladd@aexp,w
  4657     039C  0658               	xorwf	___fladd@signs,w
  4658     039D  1903               	skipnz
  4659     039E  2BA0               	goto	u2201
  4660     039F  2BA1               	goto	u2200
  4661     03A0                     u2201:
  4662     03A0  2BA2               	goto	l2005
  4663     03A1                     u2200:
  4664     03A1                     l2003:
  4665     03A1  1758               	bsf	___fladd@signs,6
  4666     03A2                     l2005:
  4667     03A2  084F               	movf	___fladd@a+3,w
  4668     03A3  00D0               	movwf	??___fladd
  4669     03A4  0750               	addwf	??___fladd,w
  4670     03A5  00D9               	movwf	___fladd@aexp
  4671     03A6                     l2007:
  4672     03A6  1FCE               	btfss	___fladd@a+2,7
  4673     03A7  2BA9               	goto	u2211
  4674     03A8  2BAA               	goto	u2210
  4675     03A9                     u2211:
  4676     03A9  2BAB               	goto	l2011
  4677     03AA                     u2210:
  4678     03AA                     l2009:
  4679     03AA  1459               	bsf	___fladd@aexp,0
  4680     03AB                     l2011:
  4681     03AB  0859               	movf	___fladd@aexp,w
  4682     03AC  1903               	btfsc	3,2
  4683     03AD  2BAF               	goto	u2221
  4684     03AE  2BB0               	goto	u2220
  4685     03AF                     u2221:
  4686     03AF  2BC0               	goto	l2021
  4687     03B0                     u2220:
  4688     03B0                     l2013:
  4689     03B0  0A59               	incf	___fladd@aexp,w
  4690     03B1  1D03               	btfss	3,2
  4691     03B2  2BB4               	goto	u2231
  4692     03B3  2BB5               	goto	u2230
  4693     03B4                     u2231:
  4694     03B4  2BBD               	goto	l2017
  4695     03B5                     u2230:
  4696     03B5                     l2015:
  4697     03B5  3000               	movlw	0
  4698     03B6  00CF               	movwf	___fladd@a+3
  4699     03B7  3000               	movlw	0
  4700     03B8  00CE               	movwf	___fladd@a+2
  4701     03B9  3000               	movlw	0
  4702     03BA  00CD               	movwf	___fladd@a+1
  4703     03BB  3000               	movlw	0
  4704     03BC  00CC               	movwf	___fladd@a
  4705     03BD                     l2017:
  4706     03BD  17CE               	bsf	___fladd@a+2,7
  4707     03BE                     l2019:
  4708     03BE  01CF               	clrf	___fladd@a+3
  4709     03BF  2BC8               	goto	l710
  4710     03C0                     l2021:
  4711     03C0  3000               	movlw	0
  4712     03C1  00CF               	movwf	___fladd@a+3
  4713     03C2  3000               	movlw	0
  4714     03C3  00CE               	movwf	___fladd@a+2
  4715     03C4  3000               	movlw	0
  4716     03C5  00CD               	movwf	___fladd@a+1
  4717     03C6  3000               	movlw	0
  4718     03C7  00CC               	movwf	___fladd@a
  4719     03C8                     l710:
  4720     03C8  085A               	movf	___fladd@bexp,w
  4721     03C9  0259               	subwf	___fladd@aexp,w
  4722     03CA  1803               	skipnc
  4723     03CB  2BCD               	goto	u2241
  4724     03CC  2BCE               	goto	u2240
  4725     03CD                     u2241:
  4726     03CD  2BF4               	goto	l2057
  4727     03CE                     u2240:
  4728     03CE                     l2023:
  4729     03CE  1F58               	btfss	___fladd@signs,6
  4730     03CF  2BD1               	goto	u2251
  4731     03D0  2BD2               	goto	u2250
  4732     03D1                     u2251:
  4733     03D1  2BD6               	goto	l2027
  4734     03D2                     u2250:
  4735     03D2                     l2025:
  4736     03D2  3080               	movlw	128
  4737     03D3  00D0               	movwf	??___fladd
  4738     03D4  0850               	movf	??___fladd,w
  4739     03D5  06D8               	xorwf	___fladd@signs,f
  4740     03D6                     l2027:
  4741     03D6  085A               	movf	___fladd@bexp,w
  4742     03D7  00DB               	movwf	___fladd@grs
  4743     03D8                     l2029:
  4744     03D8  0859               	movf	___fladd@aexp,w
  4745     03D9  00DA               	movwf	___fladd@bexp
  4746     03DA                     l2031:
  4747     03DA  085B               	movf	___fladd@grs,w
  4748     03DB  00D9               	movwf	___fladd@aexp
  4749     03DC                     l2033:
  4750     03DC  0848               	movf	___fladd@b,w
  4751     03DD  00DB               	movwf	___fladd@grs
  4752     03DE                     l2035:
  4753     03DE  084C               	movf	___fladd@a,w
  4754     03DF  00C8               	movwf	___fladd@b
  4755     03E0                     l2037:
  4756     03E0  085B               	movf	___fladd@grs,w
  4757     03E1  00CC               	movwf	___fladd@a
  4758     03E2                     l2039:
  4759     03E2  0849               	movf	___fladd@b+1,w
  4760     03E3  00DB               	movwf	___fladd@grs
  4761     03E4                     l2041:
  4762     03E4  084D               	movf	___fladd@a+1,w
  4763     03E5  00C9               	movwf	___fladd@b+1
  4764     03E6                     l2043:
  4765     03E6  085B               	movf	___fladd@grs,w
  4766     03E7  00CD               	movwf	___fladd@a+1
  4767     03E8                     l2045:
  4768     03E8  084A               	movf	___fladd@b+2,w
  4769     03E9  00DB               	movwf	___fladd@grs
  4770     03EA                     l2047:
  4771     03EA  084E               	movf	___fladd@a+2,w
  4772     03EB  00CA               	movwf	___fladd@b+2
  4773     03EC                     l2049:
  4774     03EC  085B               	movf	___fladd@grs,w
  4775     03ED  00CE               	movwf	___fladd@a+2
  4776     03EE                     l2051:
  4777     03EE  084B               	movf	___fladd@b+3,w
  4778     03EF  00DB               	movwf	___fladd@grs
  4779     03F0                     l2053:
  4780     03F0  084F               	movf	___fladd@a+3,w
  4781     03F1  00CB               	movwf	___fladd@b+3
  4782     03F2                     l2055:
  4783     03F2  085B               	movf	___fladd@grs,w
  4784     03F3  00CF               	movwf	___fladd@a+3
  4785     03F4                     l2057:
  4786     03F4  01DB               	clrf	___fladd@grs
  4787     03F5                     l2059:
  4788     03F5  0859               	movf	___fladd@aexp,w
  4789     03F6  00D0               	movwf	??___fladd
  4790     03F7  01D1               	clrf	??___fladd+1
  4791     03F8  0851               	movf	??___fladd+1,w
  4792     03F9  00D3               	movwf	??___fladd+3
  4793     03FA  085A               	movf	___fladd@bexp,w
  4794     03FB  0250               	subwf	??___fladd,w
  4795     03FC  00D2               	movwf	??___fladd+2
  4796     03FD  1C03               	skipc
  4797     03FE  03D3               	decf	??___fladd+3,f
  4798     03FF  0853               	movf	??___fladd+3,w
  4799     0400  3A80               	xorlw	128
  4800     0401  00FF               	movwf	btemp+1
  4801     0402  3080               	movlw	128
  4802     0403  027F               	subwf	btemp+1,w
  4803     0404  1D03               	skipz
  4804     0405  2C08               	goto	u2265
  4805     0406  301A               	movlw	26
  4806     0407  0252               	subwf	??___fladd+2,w
  4807     0408                     u2265:
  4808     0408  1C03               	skipc
  4809     0409  2C0B               	goto	u2261
  4810     040A  2C0C               	goto	u2260
  4811     040B                     u2261:
  4812     040B  2C43               	goto	l2075
  4813     040C                     u2260:
  4814     040C                     l2061:
  4815     040C  1283               	bcf	3,5	;RP0=0, select bank0
  4816     040D  1303               	bcf	3,6	;RP1=0, select bank0
  4817     040E  084B               	movf	___fladd@b+3,w
  4818     040F  044A               	iorwf	___fladd@b+2,w
  4819     0410  0449               	iorwf	___fladd@b+1,w
  4820     0411  0448               	iorwf	___fladd@b,w
  4821     0412  1D03               	skipz
  4822     0413  2C15               	goto	u2271
  4823     0414  2C17               	goto	u2270
  4824     0415                     u2271:
  4825     0415  3001               	movlw	1
  4826     0416  2C18               	goto	u2280
  4827     0417                     u2270:
  4828     0417  3000               	movlw	0
  4829     0418                     u2280:
  4830     0418  00DB               	movwf	___fladd@grs
  4831     0419  3000               	movlw	0
  4832     041A  00CB               	movwf	___fladd@b+3
  4833     041B  3000               	movlw	0
  4834     041C  00CA               	movwf	___fladd@b+2
  4835     041D  3000               	movlw	0
  4836     041E  00C9               	movwf	___fladd@b+1
  4837     041F  3000               	movlw	0
  4838     0420  00C8               	movwf	___fladd@b
  4839     0421  0859               	movf	___fladd@aexp,w
  4840     0422  00DA               	movwf	___fladd@bexp
  4841     0423  2C4B               	goto	l714
  4842     0424                     l716:
  4843     0424  1C5B               	btfss	___fladd@grs,0
  4844     0425  2C27               	goto	u2291
  4845     0426  2C28               	goto	u2290
  4846     0427                     u2291:
  4847     0427  2C2F               	goto	l2065
  4848     0428                     u2290:
  4849     0428                     l2063:
  4850     0428  085B               	movf	___fladd@grs,w
  4851     0429  00D0               	movwf	??___fladd
  4852     042A  1003               	clrc
  4853     042B  0C50               	rrf	??___fladd,w
  4854     042C  3801               	iorlw	1
  4855     042D  00DB               	movwf	___fladd@grs
  4856     042E  2C31               	goto	l2067
  4857     042F                     l2065:
  4858     042F  1003               	clrc
  4859     0430  0CDB               	rrf	___fladd@grs,f
  4860     0431                     l2067:
  4861     0431  1C48               	btfss	___fladd@b,0
  4862     0432  2C34               	goto	u2301
  4863     0433  2C35               	goto	u2300
  4864     0434                     u2301:
  4865     0434  2C36               	goto	l2071
  4866     0435                     u2300:
  4867     0435                     l2069:
  4868     0435  17DB               	bsf	___fladd@grs,7
  4869     0436                     l2071:
  4870     0436  3001               	movlw	1
  4871     0437  00D0               	movwf	??___fladd
  4872     0438                     u2315:
  4873     0438  0D4B               	rlf	___fladd@b+3,w
  4874     0439  0CCB               	rrf	___fladd@b+3,f
  4875     043A  0CCA               	rrf	___fladd@b+2,f
  4876     043B  0CC9               	rrf	___fladd@b+1,f
  4877     043C  0CC8               	rrf	___fladd@b,f
  4878     043D  0BD0               	decfsz	??___fladd& (0+127),f
  4879     043E  2C38               	goto	u2315
  4880     043F                     l2073:
  4881     043F  3001               	movlw	1
  4882     0440  00D0               	movwf	??___fladd
  4883     0441  0850               	movf	??___fladd,w
  4884     0442  07DA               	addwf	___fladd@bexp,f
  4885     0443                     l2075:
  4886     0443  1283               	bcf	3,5	;RP0=0, select bank0
  4887     0444  1303               	bcf	3,6	;RP1=0, select bank0
  4888     0445  0859               	movf	___fladd@aexp,w
  4889     0446  025A               	subwf	___fladd@bexp,w
  4890     0447  1C03               	skipc
  4891     0448  2C4A               	goto	u2321
  4892     0449  2C4B               	goto	u2320
  4893     044A                     u2321:
  4894     044A  2C24               	goto	l716
  4895     044B                     u2320:
  4896     044B                     l714:
  4897     044B  1B58               	btfsc	___fladd@signs,6
  4898     044C  2C4E               	goto	u2331
  4899     044D  2C4F               	goto	u2330
  4900     044E                     u2331:
  4901     044E  2C98               	goto	l2101
  4902     044F                     u2330:
  4903     044F                     l2077:
  4904     044F  085A               	movf	___fladd@bexp,w
  4905     0450  1D03               	btfss	3,2
  4906     0451  2C53               	goto	u2341
  4907     0452  2C54               	goto	u2340
  4908     0453                     u2341:
  4909     0453  2C5D               	goto	l2083
  4910     0454                     u2340:
  4911     0454                     l2079:
  4912     0454  3000               	movlw	0
  4913     0455  00CB               	movwf	?___fladd+3
  4914     0456  3000               	movlw	0
  4915     0457  00CA               	movwf	?___fladd+2
  4916     0458  3000               	movlw	0
  4917     0459  00C9               	movwf	?___fladd+1
  4918     045A  3000               	movlw	0
  4919     045B  00C8               	movwf	?___fladd
  4920     045C  2DC4               	goto	l723
  4921     045D                     l2083:
  4922     045D  084C               	movf	___fladd@a,w
  4923     045E  07C8               	addwf	___fladd@b,f
  4924     045F  084D               	movf	___fladd@a+1,w
  4925     0460  1103               	clrz
  4926     0461  1803               	skipnc
  4927     0462  3E01               	addlw	1
  4928     0463  1903               	skipnz
  4929     0464  2C66               	goto	u2351
  4930     0465  07C9               	addwf	___fladd@b+1,f
  4931     0466                     u2351:
  4932     0466  084E               	movf	___fladd@a+2,w
  4933     0467  1103               	clrz
  4934     0468  1803               	skipnc
  4935     0469  3E01               	addlw	1
  4936     046A  1903               	skipnz
  4937     046B  2C6D               	goto	u2352
  4938     046C  07CA               	addwf	___fladd@b+2,f
  4939     046D                     u2352:
  4940     046D  084F               	movf	___fladd@a+3,w
  4941     046E  1103               	clrz
  4942     046F  1803               	skipnc
  4943     0470  3E01               	addlw	1
  4944     0471  1903               	skipnz
  4945     0472  2C74               	goto	u2353
  4946     0473  07CB               	addwf	___fladd@b+3,f
  4947     0474                     u2353:
  4948     0474                     l2085:
  4949     0474  1C4B               	btfss	___fladd@b+3,0
  4950     0475  2C77               	goto	u2361
  4951     0476  2C78               	goto	u2360
  4952     0477                     u2361:
  4953     0477  2D4C               	goto	l2135
  4954     0478                     u2360:
  4955     0478                     l2087:
  4956     0478  1C5B               	btfss	___fladd@grs,0
  4957     0479  2C7B               	goto	u2371
  4958     047A  2C7C               	goto	u2370
  4959     047B                     u2371:
  4960     047B  2C83               	goto	l2091
  4961     047C                     u2370:
  4962     047C                     l2089:
  4963     047C  085B               	movf	___fladd@grs,w
  4964     047D  00D0               	movwf	??___fladd
  4965     047E  1003               	clrc
  4966     047F  0C50               	rrf	??___fladd,w
  4967     0480  3801               	iorlw	1
  4968     0481  00DB               	movwf	___fladd@grs
  4969     0482  2C85               	goto	l2093
  4970     0483                     l2091:
  4971     0483  1003               	clrc
  4972     0484  0CDB               	rrf	___fladd@grs,f
  4973     0485                     l2093:
  4974     0485  1C48               	btfss	___fladd@b,0
  4975     0486  2C88               	goto	u2381
  4976     0487  2C89               	goto	u2380
  4977     0488                     u2381:
  4978     0488  2C8A               	goto	l2097
  4979     0489                     u2380:
  4980     0489                     l2095:
  4981     0489  17DB               	bsf	___fladd@grs,7
  4982     048A                     l2097:
  4983     048A  3001               	movlw	1
  4984     048B  00D0               	movwf	??___fladd
  4985     048C                     u2395:
  4986     048C  0D4B               	rlf	___fladd@b+3,w
  4987     048D  0CCB               	rrf	___fladd@b+3,f
  4988     048E  0CCA               	rrf	___fladd@b+2,f
  4989     048F  0CC9               	rrf	___fladd@b+1,f
  4990     0490  0CC8               	rrf	___fladd@b,f
  4991     0491  0BD0               	decfsz	??___fladd& (0+127),f
  4992     0492  2C8C               	goto	u2395
  4993     0493                     l2099:
  4994     0493  3001               	movlw	1
  4995     0494  00D0               	movwf	??___fladd
  4996     0495  0850               	movf	??___fladd,w
  4997     0496  07DA               	addwf	___fladd@bexp,f
  4998     0497  2D4C               	goto	l2135
  4999     0498                     l2101:
  5000     0498  084B               	movf	___fladd@b+3,w
  5001     0499  3A80               	xorlw	128
  5002     049A  00FF               	movwf	btemp+1
  5003     049B  084F               	movf	___fladd@a+3,w
  5004     049C  3A80               	xorlw	128
  5005     049D  027F               	subwf	btemp+1,w
  5006     049E  1D03               	skipz
  5007     049F  2CAA               	goto	u2403
  5008     04A0  084E               	movf	___fladd@a+2,w
  5009     04A1  024A               	subwf	___fladd@b+2,w
  5010     04A2  1D03               	skipz
  5011     04A3  2CAA               	goto	u2403
  5012     04A4  084D               	movf	___fladd@a+1,w
  5013     04A5  0249               	subwf	___fladd@b+1,w
  5014     04A6  1D03               	skipz
  5015     04A7  2CAA               	goto	u2403
  5016     04A8  084C               	movf	___fladd@a,w
  5017     04A9  0248               	subwf	___fladd@b,w
  5018     04AA                     u2403:
  5019     04AA  1803               	skipnc
  5020     04AB  2CAD               	goto	u2401
  5021     04AC  2CAE               	goto	u2400
  5022     04AD                     u2401:
  5023     04AD  2D06               	goto	l2111
  5024     04AE                     u2400:
  5025     04AE                     l2103:
  5026     04AE  30FF               	movlw	255
  5027     04AF  00D0               	movwf	??___fladd
  5028     04B0  30FF               	movlw	255
  5029     04B1  00D1               	movwf	??___fladd+1
  5030     04B2  30FF               	movlw	255
  5031     04B3  00D2               	movwf	??___fladd+2
  5032     04B4  30FF               	movlw	255
  5033     04B5  00D3               	movwf	??___fladd+3
  5034     04B6  084C               	movf	___fladd@a,w
  5035     04B7  00D4               	movwf	??___fladd+4
  5036     04B8  084D               	movf	___fladd@a+1,w
  5037     04B9  00D5               	movwf	??___fladd+5
  5038     04BA  084E               	movf	___fladd@a+2,w
  5039     04BB  00D6               	movwf	??___fladd+6
  5040     04BC  084F               	movf	___fladd@a+3,w
  5041     04BD  00D7               	movwf	??___fladd+7
  5042     04BE  0848               	movf	___fladd@b,w
  5043     04BF  02D4               	subwf	??___fladd+4,f
  5044     04C0  0849               	movf	___fladd@b+1,w
  5045     04C1  1C03               	skipc
  5046     04C2  0F49               	incfsz	___fladd@b+1,w
  5047     04C3  2CC5               	goto	u2411
  5048     04C4  2CC6               	goto	u2412
  5049     04C5                     u2411:
  5050     04C5  02D5               	subwf	??___fladd+5,f
  5051     04C6                     u2412:
  5052     04C6  084A               	movf	___fladd@b+2,w
  5053     04C7  1C03               	skipc
  5054     04C8  0F4A               	incfsz	___fladd@b+2,w
  5055     04C9  2CCB               	goto	u2413
  5056     04CA  2CCC               	goto	u2414
  5057     04CB                     u2413:
  5058     04CB  02D6               	subwf	??___fladd+6,f
  5059     04CC                     u2414:
  5060     04CC  084B               	movf	___fladd@b+3,w
  5061     04CD  1C03               	skipc
  5062     04CE  0F4B               	incfsz	___fladd@b+3,w
  5063     04CF  2CD1               	goto	u2415
  5064     04D0  2CD2               	goto	u2416
  5065     04D1                     u2415:
  5066     04D1  02D7               	subwf	??___fladd+7,f
  5067     04D2                     u2416:
  5068     04D2  0854               	movf	??___fladd+4,w
  5069     04D3  07D0               	addwf	??___fladd,f
  5070     04D4  0855               	movf	??___fladd+5,w
  5071     04D5  1803               	skipnc
  5072     04D6  0F55               	incfsz	??___fladd+5,w
  5073     04D7  2CD9               	goto	u2420
  5074     04D8  2CDA               	goto	u2421
  5075     04D9                     u2420:
  5076     04D9  07D1               	addwf	??___fladd+1,f
  5077     04DA                     u2421:
  5078     04DA  0856               	movf	??___fladd+6,w
  5079     04DB  1803               	skipnc
  5080     04DC  0F56               	incfsz	??___fladd+6,w
  5081     04DD  2CDF               	goto	u2422
  5082     04DE  2CE0               	goto	u2423
  5083     04DF                     u2422:
  5084     04DF  07D2               	addwf	??___fladd+2,f
  5085     04E0                     u2423:
  5086     04E0  0857               	movf	??___fladd+7,w
  5087     04E1  1803               	skipnc
  5088     04E2  0A57               	incf	??___fladd+7,w
  5089     04E3  07D3               	addwf	??___fladd+3,f
  5090     04E4  0853               	movf	??___fladd+3,w
  5091     04E5  00CB               	movwf	___fladd@b+3
  5092     04E6  0852               	movf	??___fladd+2,w
  5093     04E7  00CA               	movwf	___fladd@b+2
  5094     04E8  0851               	movf	??___fladd+1,w
  5095     04E9  00C9               	movwf	___fladd@b+1
  5096     04EA  0850               	movf	??___fladd,w
  5097     04EB  00C8               	movwf	___fladd@b
  5098     04EC                     l2105:
  5099     04EC  3080               	movlw	128
  5100     04ED  00D0               	movwf	??___fladd
  5101     04EE  0850               	movf	??___fladd,w
  5102     04EF  06D8               	xorwf	___fladd@signs,f
  5103     04F0  09DB               	comf	___fladd@grs,f
  5104     04F1  0ADB               	incf	___fladd@grs,f
  5105     04F2                     l2107:
  5106     04F2  085B               	movf	___fladd@grs,w
  5107     04F3  1D03               	btfss	3,2
  5108     04F4  2CF6               	goto	u2431
  5109     04F5  2CF7               	goto	u2430
  5110     04F6                     u2431:
  5111     04F6  2D14               	goto	l731
  5112     04F7                     u2430:
  5113     04F7                     l2109:
  5114     04F7  3001               	movlw	1
  5115     04F8  07C8               	addwf	___fladd@b,f
  5116     04F9  3000               	movlw	0
  5117     04FA  1803               	skipnc
  5118     04FB  3001               	movlw	1
  5119     04FC  07C9               	addwf	___fladd@b+1,f
  5120     04FD  3000               	movlw	0
  5121     04FE  1803               	skipnc
  5122     04FF  3001               	movlw	1
  5123     0500  07CA               	addwf	___fladd@b+2,f
  5124     0501  3000               	movlw	0
  5125     0502  1803               	skipnc
  5126     0503  3001               	movlw	1
  5127     0504  07CB               	addwf	___fladd@b+3,f
  5128     0505  2D14               	goto	l731
  5129     0506                     l2111:
  5130     0506  084C               	movf	___fladd@a,w
  5131     0507  02C8               	subwf	___fladd@b,f
  5132     0508  084D               	movf	___fladd@a+1,w
  5133     0509  1C03               	skipc
  5134     050A  0F4D               	incfsz	___fladd@a+1,w
  5135     050B  02C9               	subwf	___fladd@b+1,f
  5136     050C  084E               	movf	___fladd@a+2,w
  5137     050D  1C03               	skipc
  5138     050E  0F4E               	incfsz	___fladd@a+2,w
  5139     050F  02CA               	subwf	___fladd@b+2,f
  5140     0510  084F               	movf	___fladd@a+3,w
  5141     0511  1C03               	skipc
  5142     0512  0F4F               	incfsz	___fladd@a+3,w
  5143     0513  02CB               	subwf	___fladd@b+3,f
  5144     0514                     l731:
  5145     0514  084B               	movf	___fladd@b+3,w
  5146     0515  044A               	iorwf	___fladd@b+2,w
  5147     0516  0449               	iorwf	___fladd@b+1,w
  5148     0517  0448               	iorwf	___fladd@b,w
  5149     0518  1D03               	skipz
  5150     0519  2D1B               	goto	u2441
  5151     051A  2D1C               	goto	u2440
  5152     051B                     u2441:
  5153     051B  2D48               	goto	l2133
  5154     051C                     u2440:
  5155     051C                     l2113:
  5156     051C  085B               	movf	___fladd@grs,w
  5157     051D  1D03               	btfss	3,2
  5158     051E  2D20               	goto	u2451
  5159     051F  2D21               	goto	u2450
  5160     0520                     u2451:
  5161     0520  2D48               	goto	l2133
  5162     0521                     u2450:
  5163     0521                     l2115:
  5164     0521  3000               	movlw	0
  5165     0522  00CB               	movwf	?___fladd+3
  5166     0523  3000               	movlw	0
  5167     0524  00CA               	movwf	?___fladd+2
  5168     0525  3000               	movlw	0
  5169     0526  00C9               	movwf	?___fladd+1
  5170     0527  3000               	movlw	0
  5171     0528  00C8               	movwf	?___fladd
  5172     0529  2DC4               	goto	l723
  5173     052A                     l2119:
  5174     052A  3001               	movlw	1
  5175     052B  00D0               	movwf	??___fladd
  5176     052C                     u2465:
  5177     052C  1003               	clrc
  5178     052D  0DC8               	rlf	___fladd@b,f
  5179     052E  0DC9               	rlf	___fladd@b+1,f
  5180     052F  0DCA               	rlf	___fladd@b+2,f
  5181     0530  0DCB               	rlf	___fladd@b+3,f
  5182     0531  0BD0               	decfsz	??___fladd,f
  5183     0532  2D2C               	goto	u2465
  5184     0533                     l2121:
  5185     0533  1FDB               	btfss	___fladd@grs,7
  5186     0534  2D36               	goto	u2471
  5187     0535  2D37               	goto	u2470
  5188     0536                     u2471:
  5189     0536  2D38               	goto	l735
  5190     0537                     u2470:
  5191     0537                     l2123:
  5192     0537  1448               	bsf	___fladd@b,0
  5193     0538                     l735:
  5194     0538  1C5B               	btfss	___fladd@grs,0
  5195     0539  2D3B               	goto	u2481
  5196     053A  2D3C               	goto	u2480
  5197     053B                     u2481:
  5198     053B  2D3F               	goto	l2127
  5199     053C                     u2480:
  5200     053C                     l2125:
  5201     053C  1403               	setc
  5202     053D  0DDB               	rlf	___fladd@grs,f
  5203     053E  2D41               	goto	l2129
  5204     053F                     l2127:
  5205     053F  1003               	clrc
  5206     0540  0DDB               	rlf	___fladd@grs,f
  5207     0541                     l2129:
  5208     0541  085A               	movf	___fladd@bexp,w
  5209     0542  1903               	btfsc	3,2
  5210     0543  2D45               	goto	u2491
  5211     0544  2D46               	goto	u2490
  5212     0545                     u2491:
  5213     0545  2D48               	goto	l2133
  5214     0546                     u2490:
  5215     0546                     l2131:
  5216     0546  3001               	movlw	1
  5217     0547  02DA               	subwf	___fladd@bexp,f
  5218     0548                     l2133:
  5219     0548  1FCA               	btfss	___fladd@b+2,7
  5220     0549  2D4B               	goto	u2501
  5221     054A  2D4C               	goto	u2500
  5222     054B                     u2501:
  5223     054B  2D2A               	goto	l2119
  5224     054C                     u2500:
  5225     054C                     l2135:
  5226     054C  01D9               	clrf	___fladd@aexp
  5227     054D                     l2137:
  5228     054D  1FDB               	btfss	___fladd@grs,7
  5229     054E  2D50               	goto	u2511
  5230     054F  2D51               	goto	u2510
  5231     0550                     u2511:
  5232     0550  2D5F               	goto	l2145
  5233     0551                     u2510:
  5234     0551                     l2139:
  5235     0551  085B               	movf	___fladd@grs,w
  5236     0552  397F               	andlw	127
  5237     0553  1903               	btfsc	3,2
  5238     0554  2D56               	goto	u2521
  5239     0555  2D57               	goto	u2520
  5240     0556                     u2521:
  5241     0556  2D5A               	goto	l741
  5242     0557                     u2520:
  5243     0557                     l2141:
  5244     0557  01D9               	clrf	___fladd@aexp
  5245     0558  0AD9               	incf	___fladd@aexp,f
  5246     0559  2D5F               	goto	l2145
  5247     055A                     l741:
  5248     055A  1C48               	btfss	___fladd@b,0
  5249     055B  2D5D               	goto	u2531
  5250     055C  2D5E               	goto	u2530
  5251     055D                     u2531:
  5252     055D  2D5F               	goto	l2145
  5253     055E                     u2530:
  5254     055E  2D57               	goto	l2141
  5255     055F                     l2145:
  5256     055F  0859               	movf	___fladd@aexp,w
  5257     0560  1903               	btfsc	3,2
  5258     0561  2D63               	goto	u2541
  5259     0562  2D64               	goto	u2540
  5260     0563                     u2541:
  5261     0563  2D98               	goto	l744
  5262     0564                     u2540:
  5263     0564                     l2147:
  5264     0564  3001               	movlw	1
  5265     0565  07C8               	addwf	___fladd@b,f
  5266     0566  3000               	movlw	0
  5267     0567  1803               	skipnc
  5268     0568  3001               	movlw	1
  5269     0569  07C9               	addwf	___fladd@b+1,f
  5270     056A  3000               	movlw	0
  5271     056B  1803               	skipnc
  5272     056C  3001               	movlw	1
  5273     056D  07CA               	addwf	___fladd@b+2,f
  5274     056E  3000               	movlw	0
  5275     056F  1803               	skipnc
  5276     0570  3001               	movlw	1
  5277     0571  07CB               	addwf	___fladd@b+3,f
  5278     0572                     l2149:
  5279     0572  1C4B               	btfss	___fladd@b+3,0
  5280     0573  2D75               	goto	u2551
  5281     0574  2D76               	goto	u2550
  5282     0575                     u2551:
  5283     0575  2D98               	goto	l744
  5284     0576                     u2550:
  5285     0576                     l2151:
  5286     0576  0848               	movf	___fladd@b,w
  5287     0577  00D0               	movwf	??___fladd
  5288     0578  0849               	movf	___fladd@b+1,w
  5289     0579  00D1               	movwf	??___fladd+1
  5290     057A  084A               	movf	___fladd@b+2,w
  5291     057B  00D2               	movwf	??___fladd+2
  5292     057C  084B               	movf	___fladd@b+3,w
  5293     057D  00D3               	movwf	??___fladd+3
  5294     057E  3001               	movlw	1
  5295     057F  00D4               	movwf	??___fladd+4
  5296     0580                     u2565:
  5297     0580  0D53               	rlf	??___fladd+3,w
  5298     0581  0CD3               	rrf	??___fladd+3,f
  5299     0582  0CD2               	rrf	??___fladd+2,f
  5300     0583  0CD1               	rrf	??___fladd+1,f
  5301     0584  0CD0               	rrf	??___fladd,f
  5302     0585                     u2560:
  5303     0585  0BD4               	decfsz	??___fladd+4,f
  5304     0586  2D80               	goto	u2565
  5305     0587  0853               	movf	??___fladd+3,w
  5306     0588  00CB               	movwf	___fladd@b+3
  5307     0589  0852               	movf	??___fladd+2,w
  5308     058A  00CA               	movwf	___fladd@b+2
  5309     058B  0851               	movf	??___fladd+1,w
  5310     058C  00C9               	movwf	___fladd@b+1
  5311     058D  0850               	movf	??___fladd,w
  5312     058E  00C8               	movwf	___fladd@b
  5313     058F  0A5A               	incf	___fladd@bexp,w
  5314     0590  1903               	btfsc	3,2
  5315     0591  2D93               	goto	u2571
  5316     0592  2D94               	goto	u2570
  5317     0593                     u2571:
  5318     0593  2D98               	goto	l744
  5319     0594                     u2570:
  5320     0594                     l2153:
  5321     0594  3001               	movlw	1
  5322     0595  00D0               	movwf	??___fladd
  5323     0596  0850               	movf	??___fladd,w
  5324     0597  07DA               	addwf	___fladd@bexp,f
  5325     0598                     l744:
  5326     0598  0A5A               	incf	___fladd@bexp,w
  5327     0599  1903               	btfsc	3,2
  5328     059A  2D9C               	goto	u2581
  5329     059B  2D9D               	goto	u2580
  5330     059C                     u2581:
  5331     059C  2DA2               	goto	l2157
  5332     059D                     u2580:
  5333     059D                     l2155:
  5334     059D  085A               	movf	___fladd@bexp,w
  5335     059E  1D03               	btfss	3,2
  5336     059F  2DA1               	goto	u2591
  5337     05A0  2DA2               	goto	u2590
  5338     05A1                     u2591:
  5339     05A1  2DB0               	goto	l2163
  5340     05A2                     u2590:
  5341     05A2                     l2157:
  5342     05A2  3000               	movlw	0
  5343     05A3  00CB               	movwf	___fladd@b+3
  5344     05A4  3000               	movlw	0
  5345     05A5  00CA               	movwf	___fladd@b+2
  5346     05A6  3000               	movlw	0
  5347     05A7  00C9               	movwf	___fladd@b+1
  5348     05A8  3000               	movlw	0
  5349     05A9  00C8               	movwf	___fladd@b
  5350     05AA                     l2159:
  5351     05AA  085A               	movf	___fladd@bexp,w
  5352     05AB  1D03               	btfss	3,2
  5353     05AC  2DAE               	goto	u2601
  5354     05AD  2DAF               	goto	u2600
  5355     05AE                     u2601:
  5356     05AE  2DB0               	goto	l2163
  5357     05AF                     u2600:
  5358     05AF                     l2161:
  5359     05AF  01D8               	clrf	___fladd@signs
  5360     05B0                     l2163:
  5361     05B0  1C5A               	btfss	___fladd@bexp,0
  5362     05B1  2DB3               	goto	u2611
  5363     05B2  2DB4               	goto	u2610
  5364     05B3                     u2611:
  5365     05B3  2DB6               	goto	l2167
  5366     05B4                     u2610:
  5367     05B4                     l2165:
  5368     05B4  17CA               	bsf	___fladd@b+2,7
  5369     05B5  2DBA               	goto	l752
  5370     05B6                     l2167:
  5371     05B6  307F               	movlw	127
  5372     05B7  00D0               	movwf	??___fladd
  5373     05B8  0850               	movf	??___fladd,w
  5374     05B9  05CA               	andwf	___fladd@b+2,f
  5375     05BA                     l752:
  5376     05BA  085A               	movf	___fladd@bexp,w
  5377     05BB  00D0               	movwf	??___fladd
  5378     05BC  1003               	clrc
  5379     05BD  0C50               	rrf	??___fladd,w
  5380     05BE  00CB               	movwf	___fladd@b+3
  5381     05BF                     l2169:
  5382     05BF  1FD8               	btfss	___fladd@signs,7
  5383     05C0  2DC2               	goto	u2621
  5384     05C1  2DC3               	goto	u2620
  5385     05C2                     u2621:
  5386     05C2  2DC4               	goto	l753
  5387     05C3                     u2620:
  5388     05C3                     l2171:
  5389     05C3  17CB               	bsf	___fladd@b+3,7
  5390     05C4                     l753:
  5391     05C4                     l723:
  5392     05C4  0008               	return
  5393     05C5                     __end_of___fladd:
  5394                           
  5395                           	psect	text18
  5396     0BC8                     __ptext18:	
  5397 ;; *************** function _map *****************
  5398 ;; Defined at:
  5399 ;;		line 300 in file "main.c"
  5400 ;; Parameters:    Size  Location     Type
  5401 ;;  value           1    wreg     unsigned char 
  5402 ;;  inputmin        2   13[BANK0 ] int 
  5403 ;;  inputmax        2   15[BANK0 ] int 
  5404 ;;  outmin          2   17[BANK0 ] int 
  5405 ;;  outmax          2   19[BANK0 ] int 
  5406 ;; Auto vars:     Size  Location     Type
  5407 ;;  value           1   22[BANK0 ] unsigned char 
  5408 ;; Return value:  Size  Location     Type
  5409 ;;                  2   13[BANK0 ] unsigned int 
  5410 ;; Registers used:
  5411 ;;		wreg, status,2, status,0, pclath, cstack
  5412 ;; Tracked objects:
  5413 ;;		On entry : 0/0
  5414 ;;		On exit  : 0/0
  5415 ;;		Unchanged: 0/0
  5416 ;; Data sizes:     COMMON   BANK0   BANK1   BANK3   BANK2
  5417 ;;      Params:         0       8       0       0       0
  5418 ;;      Locals:         0       1       0       0       0
  5419 ;;      Temps:          0       1       0       0       0
  5420 ;;      Totals:         0      10       0       0       0
  5421 ;;Total ram usage:       10 bytes
  5422 ;; Hardware stack levels used: 1
  5423 ;; Hardware stack levels required when called: 3
  5424 ;; This function calls:
  5425 ;;		___awdiv
  5426 ;;		___wmul
  5427 ;; This function is called by:
  5428 ;;		_controlmotores
  5429 ;; This function uses a non-reentrant model
  5430 ;;
  5431                           
  5432     0BC8                     _map:	
  5433                           ;psect for function _map
  5434                           
  5435                           
  5436                           ;incstack = 0
  5437                           ; Regs used in _map: [wreg+status,2+status,0+pclath+cstack]
  5438                           ;map@value stored from wreg
  5439     0BC8  1283               	bcf	3,5	;RP0=0, select bank0
  5440     0BC9  1303               	bcf	3,6	;RP1=0, select bank0
  5441     0BCA  00B6               	movwf	map@value
  5442     0BCB                     l3059:
  5443                           
  5444                           ;main.c: 301:     return ((value - inputmin)*(outmax-outmin)) / (inputmax-inputmin)+outm
      +                          in;
  5445     0BCB  082D               	movf	map@inputmin,w
  5446     0BCC  022F               	subwf	map@inputmax,w
  5447     0BCD  00A4               	movwf	___awdiv@divisor
  5448     0BCE  082E               	movf	map@inputmin+1,w
  5449     0BCF  1C03               	skipc
  5450     0BD0  0A2E               	incf	map@inputmin+1,w
  5451     0BD1  0230               	subwf	map@inputmax+1,w
  5452     0BD2  00A5               	movwf	___awdiv@divisor+1
  5453     0BD3  0836               	movf	map@value,w
  5454     0BD4  00B5               	movwf	??_map
  5455     0BD5  082D               	movf	map@inputmin,w
  5456     0BD6  0235               	subwf	??_map,w
  5457     0BD7  00A0               	movwf	___wmul@multiplier
  5458     0BD8  092E               	comf	map@inputmin+1,w
  5459     0BD9  1803               	skipnc
  5460     0BDA  3E01               	addlw	1
  5461     0BDB  00A1               	movwf	___wmul@multiplier+1
  5462     0BDC  0831               	movf	map@outmin,w
  5463     0BDD  0233               	subwf	map@outmax,w
  5464     0BDE  00A2               	movwf	___wmul@multiplicand
  5465     0BDF  0832               	movf	map@outmin+1,w
  5466     0BE0  1C03               	skipc
  5467     0BE1  0A32               	incf	map@outmin+1,w
  5468     0BE2  0234               	subwf	map@outmax+1,w
  5469     0BE3  00A3               	movwf	___wmul@multiplicand+1
  5470     0BE4  120A  158A  22D1  120A  158A  	fcall	___wmul
  5471     0BE9  1283               	bcf	3,5	;RP0=0, select bank0
  5472     0BEA  1303               	bcf	3,6	;RP1=0, select bank0
  5473     0BEB  0821               	movf	?___wmul+1,w
  5474     0BEC  00A7               	movwf	___awdiv@dividend+1
  5475     0BED  0820               	movf	?___wmul,w
  5476     0BEE  00A6               	movwf	___awdiv@dividend
  5477     0BEF  120A  158A  2452  120A  158A  	fcall	___awdiv
  5478     0BF4  1283               	bcf	3,5	;RP0=0, select bank0
  5479     0BF5  1303               	bcf	3,6	;RP1=0, select bank0
  5480     0BF6  0831               	movf	map@outmin,w
  5481     0BF7  0724               	addwf	?___awdiv,w
  5482     0BF8  00AD               	movwf	?_map
  5483     0BF9  0832               	movf	map@outmin+1,w
  5484     0BFA  1803               	skipnc
  5485     0BFB  0A32               	incf	map@outmin+1,w
  5486     0BFC  0725               	addwf	?___awdiv+1,w
  5487     0BFD  00AE               	movwf	?_map+1
  5488     0BFE                     l241:
  5489     0BFE  0008               	return
  5490     0BFF                     __end_of_map:
  5491                           
  5492                           	psect	text19
  5493     0AD1                     __ptext19:	
  5494 ;; *************** function ___wmul *****************
  5495 ;; Defined at:
  5496 ;;		line 15 in file "C:\Program Files\Microchip\xc8\v2.40\pic\sources\c90\common\Umul16.c"
  5497 ;; Parameters:    Size  Location     Type
  5498 ;;  multiplier      2    0[BANK0 ] unsigned int 
  5499 ;;  multiplicand    2    2[BANK0 ] unsigned int 
  5500 ;; Auto vars:     Size  Location     Type
  5501 ;;  product         2    4[COMMON] unsigned int 
  5502 ;; Return value:  Size  Location     Type
  5503 ;;                  2    0[BANK0 ] unsigned int 
  5504 ;; Registers used:
  5505 ;;		wreg, status,2, status,0
  5506 ;; Tracked objects:
  5507 ;;		On entry : 0/0
  5508 ;;		On exit  : 0/0
  5509 ;;		Unchanged: 0/0
  5510 ;; Data sizes:     COMMON   BANK0   BANK1   BANK3   BANK2
  5511 ;;      Params:         0       4       0       0       0
  5512 ;;      Locals:         2       0       0       0       0
  5513 ;;      Temps:          0       0       0       0       0
  5514 ;;      Totals:         2       4       0       0       0
  5515 ;;Total ram usage:        6 bytes
  5516 ;; Hardware stack levels used: 1
  5517 ;; Hardware stack levels required when called: 2
  5518 ;; This function calls:
  5519 ;;		Nothing
  5520 ;; This function is called by:
  5521 ;;		_map
  5522 ;; This function uses a non-reentrant model
  5523 ;;
  5524                           
  5525     0AD1                     ___wmul:	
  5526                           ;psect for function ___wmul
  5527                           
  5528     0AD1                     l2825:	
  5529                           ;incstack = 0
  5530                           ; Regs used in ___wmul: [wreg+status,2+status,0]
  5531                           
  5532     0AD1  01F4               	clrf	___wmul@product
  5533     0AD2  01F5               	clrf	___wmul@product+1
  5534     0AD3                     l2827:
  5535     0AD3  1283               	bcf	3,5	;RP0=0, select bank0
  5536     0AD4  1303               	bcf	3,6	;RP1=0, select bank0
  5537     0AD5  1C20               	btfss	___wmul@multiplier,0
  5538     0AD6  2AD8               	goto	u3801
  5539     0AD7  2AD9               	goto	u3800
  5540     0AD8                     u3801:
  5541     0AD8  2ADF               	goto	l417
  5542     0AD9                     u3800:
  5543     0AD9                     l2829:
  5544     0AD9  0822               	movf	___wmul@multiplicand,w
  5545     0ADA  07F4               	addwf	___wmul@product,f
  5546     0ADB  1803               	skipnc
  5547     0ADC  0AF5               	incf	___wmul@product+1,f
  5548     0ADD  0823               	movf	___wmul@multiplicand+1,w
  5549     0ADE  07F5               	addwf	___wmul@product+1,f
  5550     0ADF                     l417:
  5551     0ADF  3001               	movlw	1
  5552     0AE0                     u3815:
  5553     0AE0  1003               	clrc
  5554     0AE1  0DA2               	rlf	___wmul@multiplicand,f
  5555     0AE2  0DA3               	rlf	___wmul@multiplicand+1,f
  5556     0AE3  3EFF               	addlw	-1
  5557     0AE4  1D03               	skipz
  5558     0AE5  2AE0               	goto	u3815
  5559     0AE6                     l2831:
  5560     0AE6  3001               	movlw	1
  5561     0AE7                     u3825:
  5562     0AE7  1003               	clrc
  5563     0AE8  0CA1               	rrf	___wmul@multiplier+1,f
  5564     0AE9  0CA0               	rrf	___wmul@multiplier,f
  5565     0AEA  3EFF               	addlw	-1
  5566     0AEB  1D03               	skipz
  5567     0AEC  2AE7               	goto	u3825
  5568     0AED                     l2833:
  5569     0AED  0820               	movf	___wmul@multiplier,w
  5570     0AEE  0421               	iorwf	___wmul@multiplier+1,w
  5571     0AEF  1D03               	btfss	3,2
  5572     0AF0  2AF2               	goto	u3831
  5573     0AF1  2AF3               	goto	u3830
  5574     0AF2                     u3831:
  5575     0AF2  2AD3               	goto	l2827
  5576     0AF3                     u3830:
  5577     0AF3                     l2835:
  5578     0AF3  0875               	movf	___wmul@product+1,w
  5579     0AF4  00A1               	movwf	?___wmul+1
  5580     0AF5  0874               	movf	___wmul@product,w
  5581     0AF6  00A0               	movwf	?___wmul
  5582     0AF7                     l419:
  5583     0AF7  0008               	return
  5584     0AF8                     __end_of___wmul:
  5585                           
  5586                           	psect	text20
  5587     0C52                     __ptext20:	
  5588 ;; *************** function ___awdiv *****************
  5589 ;; Defined at:
  5590 ;;		line 5 in file "C:\Program Files\Microchip\xc8\v2.40\pic\sources\c90\common\awdiv.c"
  5591 ;; Parameters:    Size  Location     Type
  5592 ;;  divisor         2    4[BANK0 ] int 
  5593 ;;  dividend        2    6[BANK0 ] int 
  5594 ;; Auto vars:     Size  Location     Type
  5595 ;;  quotient        2   11[BANK0 ] int 
  5596 ;;  sign            1   10[BANK0 ] unsigned char 
  5597 ;;  counter         1    9[BANK0 ] unsigned char 
  5598 ;; Return value:  Size  Location     Type
  5599 ;;                  2    4[BANK0 ] int 
  5600 ;; Registers used:
  5601 ;;		wreg, status,2, status,0
  5602 ;; Tracked objects:
  5603 ;;		On entry : 0/0
  5604 ;;		On exit  : 0/0
  5605 ;;		Unchanged: 0/0
  5606 ;; Data sizes:     COMMON   BANK0   BANK1   BANK3   BANK2
  5607 ;;      Params:         0       4       0       0       0
  5608 ;;      Locals:         0       4       0       0       0
  5609 ;;      Temps:          0       1       0       0       0
  5610 ;;      Totals:         0       9       0       0       0
  5611 ;;Total ram usage:        9 bytes
  5612 ;; Hardware stack levels used: 1
  5613 ;; Hardware stack levels required when called: 2
  5614 ;; This function calls:
  5615 ;;		Nothing
  5616 ;; This function is called by:
  5617 ;;		_map
  5618 ;; This function uses a non-reentrant model
  5619 ;;
  5620                           
  5621     0C52                     ___awdiv:	
  5622                           ;psect for function ___awdiv
  5623                           
  5624     0C52                     l1899:	
  5625                           ;incstack = 0
  5626                           ; Regs used in ___awdiv: [wreg+status,2+status,0]
  5627                           
  5628     0C52  1283               	bcf	3,5	;RP0=0, select bank0
  5629     0C53  1303               	bcf	3,6	;RP1=0, select bank0
  5630     0C54  01AA               	clrf	___awdiv@sign
  5631     0C55                     l1901:
  5632     0C55  1FA5               	btfss	___awdiv@divisor+1,7
  5633     0C56  2C58               	goto	u1971
  5634     0C57  2C59               	goto	u1970
  5635     0C58                     u1971:
  5636     0C58  2C60               	goto	l1907
  5637     0C59                     u1970:
  5638     0C59                     l1903:
  5639     0C59  09A4               	comf	___awdiv@divisor,f
  5640     0C5A  09A5               	comf	___awdiv@divisor+1,f
  5641     0C5B  0AA4               	incf	___awdiv@divisor,f
  5642     0C5C  1903               	skipnz
  5643     0C5D  0AA5               	incf	___awdiv@divisor+1,f
  5644     0C5E                     l1905:
  5645     0C5E  01AA               	clrf	___awdiv@sign
  5646     0C5F  0AAA               	incf	___awdiv@sign,f
  5647     0C60                     l1907:
  5648     0C60  1FA7               	btfss	___awdiv@dividend+1,7
  5649     0C61  2C63               	goto	u1981
  5650     0C62  2C64               	goto	u1980
  5651     0C63                     u1981:
  5652     0C63  2C6D               	goto	l1913
  5653     0C64                     u1980:
  5654     0C64                     l1909:
  5655     0C64  09A6               	comf	___awdiv@dividend,f
  5656     0C65  09A7               	comf	___awdiv@dividend+1,f
  5657     0C66  0AA6               	incf	___awdiv@dividend,f
  5658     0C67  1903               	skipnz
  5659     0C68  0AA7               	incf	___awdiv@dividend+1,f
  5660     0C69                     l1911:
  5661     0C69  3001               	movlw	1
  5662     0C6A  00A8               	movwf	??___awdiv
  5663     0C6B  0828               	movf	??___awdiv,w
  5664     0C6C  06AA               	xorwf	___awdiv@sign,f
  5665     0C6D                     l1913:
  5666     0C6D  01AB               	clrf	___awdiv@quotient
  5667     0C6E  01AC               	clrf	___awdiv@quotient+1
  5668     0C6F                     l1915:
  5669     0C6F  0824               	movf	___awdiv@divisor,w
  5670     0C70  0425               	iorwf	___awdiv@divisor+1,w
  5671     0C71  1903               	btfsc	3,2
  5672     0C72  2C74               	goto	u1991
  5673     0C73  2C75               	goto	u1990
  5674     0C74                     u1991:
  5675     0C74  2CAC               	goto	l1935
  5676     0C75                     u1990:
  5677     0C75                     l1917:
  5678     0C75  01A9               	clrf	___awdiv@counter
  5679     0C76  0AA9               	incf	___awdiv@counter,f
  5680     0C77  2C83               	goto	l1923
  5681     0C78                     l1919:
  5682     0C78  3001               	movlw	1
  5683     0C79                     u2005:
  5684     0C79  1003               	clrc
  5685     0C7A  0DA4               	rlf	___awdiv@divisor,f
  5686     0C7B  0DA5               	rlf	___awdiv@divisor+1,f
  5687     0C7C  3EFF               	addlw	-1
  5688     0C7D  1D03               	skipz
  5689     0C7E  2C79               	goto	u2005
  5690     0C7F                     l1921:
  5691     0C7F  3001               	movlw	1
  5692     0C80  00A8               	movwf	??___awdiv
  5693     0C81  0828               	movf	??___awdiv,w
  5694     0C82  07A9               	addwf	___awdiv@counter,f
  5695     0C83                     l1923:
  5696     0C83  1FA5               	btfss	___awdiv@divisor+1,7
  5697     0C84  2C86               	goto	u2011
  5698     0C85  2C87               	goto	u2010
  5699     0C86                     u2011:
  5700     0C86  2C78               	goto	l1919
  5701     0C87                     u2010:
  5702     0C87                     l1925:
  5703     0C87  3001               	movlw	1
  5704     0C88                     u2025:
  5705     0C88  1003               	clrc
  5706     0C89  0DAB               	rlf	___awdiv@quotient,f
  5707     0C8A  0DAC               	rlf	___awdiv@quotient+1,f
  5708     0C8B  3EFF               	addlw	-1
  5709     0C8C  1D03               	skipz
  5710     0C8D  2C88               	goto	u2025
  5711     0C8E  0825               	movf	___awdiv@divisor+1,w
  5712     0C8F  0227               	subwf	___awdiv@dividend+1,w
  5713     0C90  1D03               	skipz
  5714     0C91  2C94               	goto	u2035
  5715     0C92  0824               	movf	___awdiv@divisor,w
  5716     0C93  0226               	subwf	___awdiv@dividend,w
  5717     0C94                     u2035:
  5718     0C94  1C03               	skipc
  5719     0C95  2C97               	goto	u2031
  5720     0C96  2C98               	goto	u2030
  5721     0C97                     u2031:
  5722     0C97  2C9F               	goto	l1931
  5723     0C98                     u2030:
  5724     0C98                     l1927:
  5725     0C98  0824               	movf	___awdiv@divisor,w
  5726     0C99  02A6               	subwf	___awdiv@dividend,f
  5727     0C9A  0825               	movf	___awdiv@divisor+1,w
  5728     0C9B  1C03               	skipc
  5729     0C9C  03A7               	decf	___awdiv@dividend+1,f
  5730     0C9D  02A7               	subwf	___awdiv@dividend+1,f
  5731     0C9E                     l1929:
  5732     0C9E  142B               	bsf	___awdiv@quotient,0
  5733     0C9F                     l1931:
  5734     0C9F  3001               	movlw	1
  5735     0CA0                     u2045:
  5736     0CA0  1003               	clrc
  5737     0CA1  0CA5               	rrf	___awdiv@divisor+1,f
  5738     0CA2  0CA4               	rrf	___awdiv@divisor,f
  5739     0CA3  3EFF               	addlw	-1
  5740     0CA4  1D03               	skipz
  5741     0CA5  2CA0               	goto	u2045
  5742     0CA6                     l1933:
  5743     0CA6  3001               	movlw	1
  5744     0CA7  02A9               	subwf	___awdiv@counter,f
  5745     0CA8  1D03               	btfss	3,2
  5746     0CA9  2CAB               	goto	u2051
  5747     0CAA  2CAC               	goto	u2050
  5748     0CAB                     u2051:
  5749     0CAB  2C87               	goto	l1925
  5750     0CAC                     u2050:
  5751     0CAC                     l1935:
  5752     0CAC  082A               	movf	___awdiv@sign,w
  5753     0CAD  1903               	btfsc	3,2
  5754     0CAE  2CB0               	goto	u2061
  5755     0CAF  2CB1               	goto	u2060
  5756     0CB0                     u2061:
  5757     0CB0  2CB6               	goto	l1939
  5758     0CB1                     u2060:
  5759     0CB1                     l1937:
  5760     0CB1  09AB               	comf	___awdiv@quotient,f
  5761     0CB2  09AC               	comf	___awdiv@quotient+1,f
  5762     0CB3  0AAB               	incf	___awdiv@quotient,f
  5763     0CB4  1903               	skipnz
  5764     0CB5  0AAC               	incf	___awdiv@quotient+1,f
  5765     0CB6                     l1939:
  5766     0CB6  082C               	movf	___awdiv@quotient+1,w
  5767     0CB7  00A5               	movwf	?___awdiv+1
  5768     0CB8  082B               	movf	___awdiv@quotient,w
  5769     0CB9  00A4               	movwf	?___awdiv
  5770     0CBA                     l570:
  5771     0CBA  0008               	return
  5772     0CBB                     __end_of___awdiv:
  5773                           
  5774                           	psect	text21
  5775     0E43                     __ptext21:	
  5776 ;; *************** function _adamodo *****************
  5777 ;; Defined at:
  5778 ;;		line 448 in file "main.c"
  5779 ;; Parameters:    Size  Location     Type
  5780 ;;		None
  5781 ;; Auto vars:     Size  Location     Type
  5782 ;;		None
  5783 ;; Return value:  Size  Location     Type
  5784 ;;                  1    wreg      void 
  5785 ;; Registers used:
  5786 ;;		wreg, status,2, status,0
  5787 ;; Tracked objects:
  5788 ;;		On entry : 0/0
  5789 ;;		On exit  : 0/0
  5790 ;;		Unchanged: 0/0
  5791 ;; Data sizes:     COMMON   BANK0   BANK1   BANK3   BANK2
  5792 ;;      Params:         0       0       0       0       0
  5793 ;;      Locals:         0       0       0       0       0
  5794 ;;      Temps:          0       0       0       0       0
  5795 ;;      Totals:         0       0       0       0       0
  5796 ;;Total ram usage:        0 bytes
  5797 ;; Hardware stack levels used: 1
  5798 ;; Hardware stack levels required when called: 2
  5799 ;; This function calls:
  5800 ;;		Nothing
  5801 ;; This function is called by:
  5802 ;;		_main
  5803 ;; This function uses a non-reentrant model
  5804 ;;
  5805                           
  5806     0E43                     _adamodo:	
  5807                           ;psect for function _adamodo
  5808                           
  5809     0E43                     l2561:	
  5810                           ;incstack = 0
  5811                           ; Regs used in _adamodo: [wreg+status,2+status,0]
  5812                           
  5813                           
  5814                           ;main.c: 449:             if(PIR1bits.RCIF == 1){
  5815     0E43  1283               	bcf	3,5	;RP0=0, select bank0
  5816     0E44  1303               	bcf	3,6	;RP1=0, select bank0
  5817     0E45  1E8C               	btfss	12,5	;volatile
  5818     0E46  2E48               	goto	u3321
  5819     0E47  2E49               	goto	u3320
  5820     0E48                     u3321:
  5821     0E48  2F14               	goto	l323
  5822     0E49                     u3320:
  5823     0E49                     l2563:
  5824                           
  5825                           ;main.c: 450:                 if(RCREG == 0b00110001){
  5826     0E49  3031               	movlw	49
  5827     0E4A  061A               	xorwf	26,w	;volatile
  5828     0E4B  1D03               	btfss	3,2
  5829     0E4C  2E4E               	goto	u3331
  5830     0E4D  2E4F               	goto	u3330
  5831     0E4E                     u3331:
  5832     0E4E  2E66               	goto	l2575
  5833     0E4F                     u3330:
  5834     0E4F                     l2565:
  5835                           
  5836                           ;main.c: 451:                     if (modo < 2){
  5837     0E4F  3000               	movlw	0
  5838     0E50  0279               	subwf	_modo+1,w
  5839     0E51  3002               	movlw	2
  5840     0E52  1903               	skipnz
  5841     0E53  0278               	subwf	_modo,w
  5842     0E54  1803               	skipnc
  5843     0E55  2E57               	goto	u3341
  5844     0E56  2E58               	goto	u3340
  5845     0E57                     u3341:
  5846     0E57  2E64               	goto	l2573
  5847     0E58                     u3340:
  5848     0E58                     l2567:
  5849                           
  5850                           ;main.c: 452:                         position = 0;
  5851     0E58  01F6               	clrf	_position
  5852     0E59  01F7               	clrf	_position+1
  5853     0E5A                     l2569:
  5854                           
  5855                           ;main.c: 453:                         modo = modo + 1;
  5856     0E5A  0878               	movf	_modo,w
  5857     0E5B  3E01               	addlw	1
  5858     0E5C  00F8               	movwf	_modo
  5859     0E5D  0879               	movf	_modo+1,w
  5860     0E5E  1803               	skipnc
  5861     0E5F  3E01               	addlw	1
  5862     0E60  3E00               	addlw	0
  5863     0E61  00F9               	movwf	_modo+1
  5864     0E62                     l2571:
  5865                           
  5866                           ;main.c: 454:                         PIR1bits.RCIF = 0;}
  5867     0E62  128C               	bcf	12,5	;volatile
  5868     0E63  2E66               	goto	l2575
  5869     0E64                     l2573:
  5870                           
  5871                           ;main.c: 456:                         modo = 0;}
  5872     0E64  01F8               	clrf	_modo
  5873     0E65  01F9               	clrf	_modo+1
  5874     0E66                     l2575:
  5875                           
  5876                           ;main.c: 458:                 if(RCREG == 0b00110010){
  5877     0E66  3032               	movlw	50
  5878     0E67  061A               	xorwf	26,w	;volatile
  5879     0E68  1D03               	btfss	3,2
  5880     0E69  2E6B               	goto	u3351
  5881     0E6A  2E6C               	goto	u3350
  5882     0E6B                     u3351:
  5883     0E6B  2E81               	goto	l2585
  5884     0E6C                     u3350:
  5885     0E6C                     l2577:
  5886                           
  5887                           ;main.c: 459:                     if (position < 3){
  5888     0E6C  3000               	movlw	0
  5889     0E6D  0277               	subwf	_position+1,w
  5890     0E6E  3003               	movlw	3
  5891     0E6F  1903               	skipnz
  5892     0E70  0276               	subwf	_position,w
  5893     0E71  1803               	skipnc
  5894     0E72  2E74               	goto	u3361
  5895     0E73  2E75               	goto	u3360
  5896     0E74                     u3361:
  5897     0E74  2E7F               	goto	l2583
  5898     0E75                     u3360:
  5899     0E75                     l2579:
  5900                           
  5901                           ;main.c: 460:                         position = position +1;
  5902     0E75  0876               	movf	_position,w
  5903     0E76  3E01               	addlw	1
  5904     0E77  00F6               	movwf	_position
  5905     0E78  0877               	movf	_position+1,w
  5906     0E79  1803               	skipnc
  5907     0E7A  3E01               	addlw	1
  5908     0E7B  3E00               	addlw	0
  5909     0E7C  00F7               	movwf	_position+1
  5910     0E7D                     l2581:
  5911                           
  5912                           ;main.c: 461:                         PIR1bits.RCIF = 0;}
  5913     0E7D  128C               	bcf	12,5	;volatile
  5914     0E7E  2E81               	goto	l2585
  5915     0E7F                     l2583:
  5916                           
  5917                           ;main.c: 463:                         position = 0;}
  5918     0E7F  01F6               	clrf	_position
  5919     0E80  01F7               	clrf	_position+1
  5920     0E81                     l2585:
  5921                           
  5922                           ;main.c: 465:                     if(RCREG == 0b00110011){
  5923     0E81  3033               	movlw	51
  5924     0E82  061A               	xorwf	26,w	;volatile
  5925     0E83  1D03               	btfss	3,2
  5926     0E84  2E86               	goto	u3371
  5927     0E85  2E87               	goto	u3370
  5928     0E86                     u3371:
  5929     0E86  2E90               	goto	l2591
  5930     0E87                     u3370:
  5931     0E87                     l2587:
  5932                           
  5933                           ;main.c: 466:                         writeread = 1;
  5934     0E87  3001               	movlw	1
  5935     0E88  1683               	bsf	3,5	;RP0=1, select bank1
  5936     0E89  1303               	bcf	3,6	;RP1=0, select bank1
  5937     0E8A  00B3               	movwf	_writeread^(0+128)
  5938     0E8B  3000               	movlw	0
  5939     0E8C  00B4               	movwf	(_writeread^(0+128)+1)
  5940     0E8D                     l2589:
  5941                           
  5942                           ;main.c: 467:                         PIR1bits.RCIF = 0;
  5943     0E8D  1283               	bcf	3,5	;RP0=0, select bank0
  5944     0E8E  1303               	bcf	3,6	;RP1=0, select bank0
  5945     0E8F  128C               	bcf	12,5	;volatile
  5946     0E90                     l2591:
  5947                           
  5948                           ;main.c: 469:                 if(RCREG == '4'){
  5949     0E90  3034               	movlw	52
  5950     0E91  061A               	xorwf	26,w	;volatile
  5951     0E92  1D03               	btfss	3,2
  5952     0E93  2E95               	goto	u3381
  5953     0E94  2E96               	goto	u3380
  5954     0E95                     u3381:
  5955     0E95  2EA8               	goto	l309
  5956     0E96                     u3380:
  5957     0E96                     l2593:
  5958                           
  5959                           ;main.c: 470:                     if (pot1 < 17){
  5960     0E96  3000               	movlw	0
  5961     0E97  026C               	subwf	_pot1+1,w
  5962     0E98  3011               	movlw	17
  5963     0E99  1903               	skipnz
  5964     0E9A  026B               	subwf	_pot1,w
  5965     0E9B  1803               	skipnc
  5966     0E9C  2E9E               	goto	u3391
  5967     0E9D  2E9F               	goto	u3390
  5968     0E9E                     u3391:
  5969     0E9E  2EA8               	goto	l309
  5970     0E9F                     u3390:
  5971     0E9F                     l2595:
  5972                           
  5973                           ;main.c: 471:                         pot1 = pot1 + 1;
  5974     0E9F  086B               	movf	_pot1,w
  5975     0EA0  3E01               	addlw	1
  5976     0EA1  00EB               	movwf	_pot1
  5977     0EA2  086C               	movf	_pot1+1,w
  5978     0EA3  1803               	skipnc
  5979     0EA4  3E01               	addlw	1
  5980     0EA5  3E00               	addlw	0
  5981     0EA6  00EC               	movwf	_pot1+1
  5982     0EA7                     l2597:
  5983                           
  5984                           ;main.c: 473:                         PIR1bits.RCIF = 0;}
  5985     0EA7  128C               	bcf	12,5	;volatile
  5986     0EA8                     l309:	
  5987                           ;main.c: 474:                     }
  5988                           
  5989                           
  5990                           ;main.c: 475:                 if(RCREG == '5'){
  5991     0EA8  3035               	movlw	53
  5992     0EA9  061A               	xorwf	26,w	;volatile
  5993     0EAA  1D03               	btfss	3,2
  5994     0EAB  2EAD               	goto	u3401
  5995     0EAC  2EAE               	goto	u3400
  5996     0EAD                     u3401:
  5997     0EAD  2EC0               	goto	l311
  5998     0EAE                     u3400:
  5999     0EAE                     l2599:
  6000                           
  6001                           ;main.c: 476:                     if (pot1 > 1){
  6002     0EAE  3000               	movlw	0
  6003     0EAF  026C               	subwf	_pot1+1,w
  6004     0EB0  3002               	movlw	2
  6005     0EB1  1903               	skipnz
  6006     0EB2  026B               	subwf	_pot1,w
  6007     0EB3  1C03               	skipc
  6008     0EB4  2EB6               	goto	u3411
  6009     0EB5  2EB7               	goto	u3410
  6010     0EB6                     u3411:
  6011     0EB6  2EC0               	goto	l311
  6012     0EB7                     u3410:
  6013     0EB7                     l2601:
  6014                           
  6015                           ;main.c: 477:                         pot1 = pot1 - 1;
  6016     0EB7  086B               	movf	_pot1,w
  6017     0EB8  3EFF               	addlw	255
  6018     0EB9  00EB               	movwf	_pot1
  6019     0EBA  086C               	movf	_pot1+1,w
  6020     0EBB  1803               	skipnc
  6021     0EBC  3E01               	addlw	1
  6022     0EBD  3EFF               	addlw	255
  6023     0EBE  00EC               	movwf	_pot1+1
  6024     0EBF                     l2603:
  6025                           
  6026                           ;main.c: 479:                         PIR1bits.RCIF = 0;}
  6027     0EBF  128C               	bcf	12,5	;volatile
  6028     0EC0                     l311:	
  6029                           ;main.c: 480:                     }
  6030                           
  6031                           
  6032                           ;main.c: 481:                 if(RCREG == '6'){
  6033     0EC0  3036               	movlw	54
  6034     0EC1  061A               	xorwf	26,w	;volatile
  6035     0EC2  1D03               	btfss	3,2
  6036     0EC3  2EC5               	goto	u3421
  6037     0EC4  2EC6               	goto	u3420
  6038     0EC5                     u3421:
  6039     0EC5  2ED8               	goto	l313
  6040     0EC6                     u3420:
  6041     0EC6                     l2605:
  6042                           
  6043                           ;main.c: 482:                     if (pot < 17){
  6044     0EC6  3000               	movlw	0
  6045     0EC7  026E               	subwf	_pot+1,w
  6046     0EC8  3011               	movlw	17
  6047     0EC9  1903               	skipnz
  6048     0ECA  026D               	subwf	_pot,w
  6049     0ECB  1803               	skipnc
  6050     0ECC  2ECE               	goto	u3431
  6051     0ECD  2ECF               	goto	u3430
  6052     0ECE                     u3431:
  6053     0ECE  2ED8               	goto	l313
  6054     0ECF                     u3430:
  6055     0ECF                     l2607:
  6056                           
  6057                           ;main.c: 483:                         pot = pot + 1;
  6058     0ECF  086D               	movf	_pot,w
  6059     0ED0  3E01               	addlw	1
  6060     0ED1  00ED               	movwf	_pot
  6061     0ED2  086E               	movf	_pot+1,w
  6062     0ED3  1803               	skipnc
  6063     0ED4  3E01               	addlw	1
  6064     0ED5  3E00               	addlw	0
  6065     0ED6  00EE               	movwf	_pot+1
  6066     0ED7                     l2609:
  6067                           
  6068                           ;main.c: 485:                         PIR1bits.RCIF = 0;}
  6069     0ED7  128C               	bcf	12,5	;volatile
  6070     0ED8                     l313:	
  6071                           ;main.c: 486:                     }
  6072                           
  6073                           
  6074                           ;main.c: 487:                 if(RCREG == '7'){
  6075     0ED8  3037               	movlw	55
  6076     0ED9  061A               	xorwf	26,w	;volatile
  6077     0EDA  1D03               	btfss	3,2
  6078     0EDB  2EDD               	goto	u3441
  6079     0EDC  2EDE               	goto	u3440
  6080     0EDD                     u3441:
  6081     0EDD  2EF0               	goto	l315
  6082     0EDE                     u3440:
  6083     0EDE                     l2611:
  6084                           
  6085                           ;main.c: 488:                     if (pot > 1){
  6086     0EDE  3000               	movlw	0
  6087     0EDF  026E               	subwf	_pot+1,w
  6088     0EE0  3002               	movlw	2
  6089     0EE1  1903               	skipnz
  6090     0EE2  026D               	subwf	_pot,w
  6091     0EE3  1C03               	skipc
  6092     0EE4  2EE6               	goto	u3451
  6093     0EE5  2EE7               	goto	u3450
  6094     0EE6                     u3451:
  6095     0EE6  2EF0               	goto	l315
  6096     0EE7                     u3450:
  6097     0EE7                     l2613:
  6098                           
  6099                           ;main.c: 489:                         pot = pot - 1;
  6100     0EE7  086D               	movf	_pot,w
  6101     0EE8  3EFF               	addlw	255
  6102     0EE9  00ED               	movwf	_pot
  6103     0EEA  086E               	movf	_pot+1,w
  6104     0EEB  1803               	skipnc
  6105     0EEC  3E01               	addlw	1
  6106     0EED  3EFF               	addlw	255
  6107     0EEE  00EE               	movwf	_pot+1
  6108     0EEF                     l2615:
  6109                           
  6110                           ;main.c: 491:                         PIR1bits.RCIF = 0;}
  6111     0EEF  128C               	bcf	12,5	;volatile
  6112     0EF0                     l315:	
  6113                           ;main.c: 492:                     }
  6114                           
  6115                           
  6116                           ;main.c: 494:                     if (CCPR1L < 256){
  6117     0EF0  3038               	movlw	56
  6118     0EF1  061A               	xorwf	26,w	;volatile
  6119     0EF2  1D03               	btfss	3,2
  6120     0EF3  2EF5               	goto	u3461
  6121     0EF4  2EF6               	goto	u3460
  6122     0EF5                     u3461:
  6123     0EF5  2EFA               	goto	l317
  6124     0EF6                     u3460:
  6125     0EF6                     l2617:
  6126                           
  6127                           ;main.c: 495:                         CCPR1L = CCPR1L + 1;
  6128     0EF6  0815               	movf	21,w	;volatile
  6129     0EF7  3E01               	addlw	1
  6130     0EF8  0095               	movwf	21	;volatile
  6131     0EF9                     l2619:
  6132                           
  6133                           ;main.c: 497:                         PIR1bits.RCIF = 0;}
  6134     0EF9  128C               	bcf	12,5	;volatile
  6135     0EFA                     l317:	
  6136                           ;main.c: 498:                     }
  6137                           
  6138                           
  6139                           ;main.c: 499:                 if(RCREG == '9'){
  6140     0EFA  3039               	movlw	57
  6141     0EFB  061A               	xorwf	26,w	;volatile
  6142     0EFC  1D03               	btfss	3,2
  6143     0EFD  2EFF               	goto	u3471
  6144     0EFE  2F00               	goto	u3470
  6145     0EFF                     u3471:
  6146     0EFF  2F0A               	goto	l319
  6147     0F00                     u3470:
  6148     0F00                     l2621:
  6149                           
  6150                           ;main.c: 500:                     if (CCPR1L > 1){
  6151     0F00  3002               	movlw	2
  6152     0F01  0215               	subwf	21,w	;volatile
  6153     0F02  1C03               	skipc
  6154     0F03  2F05               	goto	u3481
  6155     0F04  2F06               	goto	u3480
  6156     0F05                     u3481:
  6157     0F05  2F0A               	goto	l319
  6158     0F06                     u3480:
  6159     0F06                     l2623:
  6160                           
  6161                           ;main.c: 501:                         CCPR1L = CCPR1L - 1;
  6162     0F06  0815               	movf	21,w	;volatile
  6163     0F07  3EFF               	addlw	255
  6164     0F08  0095               	movwf	21	;volatile
  6165     0F09                     l2625:
  6166                           
  6167                           ;main.c: 503:                         PIR1bits.RCIF = 0;}
  6168     0F09  128C               	bcf	12,5	;volatile
  6169     0F0A                     l319:	
  6170                           ;main.c: 504:                     }
  6171                           
  6172                           
  6173                           ;main.c: 506:                     if (CCPR2L < 256){
  6174     0F0A  3030               	movlw	48
  6175     0F0B  061A               	xorwf	26,w	;volatile
  6176     0F0C  1D03               	btfss	3,2
  6177     0F0D  2F0F               	goto	u3491
  6178     0F0E  2F10               	goto	u3490
  6179     0F0F                     u3491:
  6180     0F0F  2F14               	goto	l323
  6181     0F10                     u3490:
  6182     0F10                     l2627:
  6183                           
  6184                           ;main.c: 507:                         CCPR2L = CCPR2L + 1;
  6185     0F10  081B               	movf	27,w	;volatile
  6186     0F11  3E01               	addlw	1
  6187     0F12  009B               	movwf	27	;volatile
  6188     0F13                     l2629:
  6189                           
  6190                           ;main.c: 508:                         PIR1bits.RCIF = 0;}
  6191     0F13  128C               	bcf	12,5	;volatile
  6192     0F14                     l323:
  6193     0F14  0008               	return
  6194     0F15                     __end_of_adamodo:
  6195                           
  6196                           	psect	text22
  6197     0D33                     __ptext22:	
  6198 ;; *************** function _isr *****************
  6199 ;; Defined at:
  6200 ;;		line 80 in file "main.c"
  6201 ;; Parameters:    Size  Location     Type
  6202 ;;		None
  6203 ;; Auto vars:     Size  Location     Type
  6204 ;;		None
  6205 ;; Return value:  Size  Location     Type
  6206 ;;                  1    wreg      void 
  6207 ;; Registers used:
  6208 ;;		wreg, status,2, status,0, pclath, cstack
  6209 ;; Tracked objects:
  6210 ;;		On entry : 0/0
  6211 ;;		On exit  : 0/0
  6212 ;;		Unchanged: 0/0
  6213 ;; Data sizes:     COMMON   BANK0   BANK1   BANK3   BANK2
  6214 ;;      Params:         0       0       0       0       0
  6215 ;;      Locals:         0       0       0       0       0
  6216 ;;      Temps:          2       0       0       0       0
  6217 ;;      Totals:         2       0       0       0       0
  6218 ;;Total ram usage:        2 bytes
  6219 ;; Hardware stack levels used: 1
  6220 ;; Hardware stack levels required when called: 1
  6221 ;; This function calls:
  6222 ;;		_delay
  6223 ;; This function is called by:
  6224 ;;		Interrupt level 1
  6225 ;; This function uses a non-reentrant model
  6226 ;;
  6227                           
  6228     0D33                     _isr:	
  6229                           ;psect for function _isr
  6230                           
  6231     0D33                     i1l2665:
  6232                           
  6233                           ;main.c: 81:     if (INTCONbits.T0IF == 1){
  6234     0D33  1D0B               	btfss	11,2	;volatile
  6235     0D34  2D36               	goto	u353_21
  6236     0D35  2D37               	goto	u353_20
  6237     0D36                     u353_21:
  6238     0D36  2D57               	goto	i1l2685
  6239     0D37                     u353_20:
  6240     0D37                     i1l2667:
  6241                           
  6242                           ;main.c: 82:         INTCONbits.T0IF = 0;
  6243     0D37  110B               	bcf	11,2	;volatile
  6244     0D38                     i1l2669:
  6245                           
  6246                           ;main.c: 83:         TMR0 = 99;
  6247     0D38  3063               	movlw	99
  6248     0D39  1283               	bcf	3,5	;RP0=0, select bank0
  6249     0D3A  1303               	bcf	3,6	;RP1=0, select bank0
  6250     0D3B  0081               	movwf	1	;volatile
  6251     0D3C                     i1l2671:
  6252                           
  6253                           ;main.c: 84:         PORTCbits.RC3 = 1;
  6254     0D3C  1587               	bsf	7,3	;volatile
  6255     0D3D                     i1l2673:
  6256                           
  6257                           ;main.c: 85:         delay(pot);
  6258     0D3D  086E               	movf	_pot+1,w
  6259     0D3E  00F1               	movwf	delay@micro+1
  6260     0D3F  086D               	movf	_pot,w
  6261     0D40  00F0               	movwf	delay@micro
  6262     0D41  120A  118A  27EE  120A  158A  	fcall	_delay
  6263     0D46                     i1l2675:
  6264                           
  6265                           ;main.c: 86:         PORTCbits.RC3 = 0;
  6266     0D46  1283               	bcf	3,5	;RP0=0, select bank0
  6267     0D47  1303               	bcf	3,6	;RP1=0, select bank0
  6268     0D48  1187               	bcf	7,3	;volatile
  6269     0D49                     i1l2677:
  6270                           
  6271                           ;main.c: 87:         PORTCbits.RC0 = 1;
  6272     0D49  1407               	bsf	7,0	;volatile
  6273     0D4A                     i1l2679:
  6274                           
  6275                           ;main.c: 88:         delay(pot1);
  6276     0D4A  086C               	movf	_pot1+1,w
  6277     0D4B  00F1               	movwf	delay@micro+1
  6278     0D4C  086B               	movf	_pot1,w
  6279     0D4D  00F0               	movwf	delay@micro
  6280     0D4E  120A  118A  27EE  120A  158A  	fcall	_delay
  6281     0D53                     i1l2681:
  6282                           
  6283                           ;main.c: 89:         PORTCbits.RC0 = 0;
  6284     0D53  1283               	bcf	3,5	;RP0=0, select bank0
  6285     0D54  1303               	bcf	3,6	;RP1=0, select bank0
  6286     0D55  1007               	bcf	7,0	;volatile
  6287     0D56                     i1l2683:
  6288                           
  6289                           ;main.c: 90:         INTCONbits.T0IF = 0;
  6290     0D56  110B               	bcf	11,2	;volatile
  6291     0D57                     i1l2685:
  6292                           
  6293                           ;main.c: 93:     if (INTCONbits.RBIF){
  6294     0D57  1C0B               	btfss	11,0	;volatile
  6295     0D58  2D5A               	goto	u354_21
  6296     0D59  2D5B               	goto	u354_20
  6297     0D5A                     u354_21:
  6298     0D5A  2DA7               	goto	i1l181
  6299     0D5B                     u354_20:
  6300     0D5B                     i1l2687:
  6301                           
  6302                           ;main.c: 94:         if (PORTBbits.RB0 == 0){
  6303     0D5B  1283               	bcf	3,5	;RP0=0, select bank0
  6304     0D5C  1303               	bcf	3,6	;RP1=0, select bank0
  6305     0D5D  1806               	btfsc	6,0	;volatile
  6306     0D5E  2D60               	goto	u355_21
  6307     0D5F  2D61               	goto	u355_20
  6308     0D60                     u355_21:
  6309     0D60  2D7B               	goto	i1l2699
  6310     0D61                     u355_20:
  6311     0D61                     i1l166:
  6312     0D61  1C06               	btfss	6,0	;volatile
  6313     0D62  2D64               	goto	u356_21
  6314     0D63  2D65               	goto	u356_20
  6315     0D64                     u356_21:
  6316     0D64  2D61               	goto	i1l166
  6317     0D65                     u356_20:
  6318     0D65                     i1l2691:
  6319                           
  6320                           ;main.c: 96:             if (modo < 2){
  6321     0D65  3000               	movlw	0
  6322     0D66  0279               	subwf	_modo+1,w
  6323     0D67  3002               	movlw	2
  6324     0D68  1903               	skipnz
  6325     0D69  0278               	subwf	_modo,w
  6326     0D6A  1803               	skipnc
  6327     0D6B  2D6D               	goto	u357_21
  6328     0D6C  2D6E               	goto	u357_20
  6329     0D6D                     u357_21:
  6330     0D6D  2D79               	goto	i1l2697
  6331     0D6E                     u357_20:
  6332     0D6E                     i1l2693:
  6333                           
  6334                           ;main.c: 97:                 position = 0;
  6335     0D6E  01F6               	clrf	_position
  6336     0D6F  01F7               	clrf	_position+1
  6337     0D70                     i1l2695:
  6338                           
  6339                           ;main.c: 98:                 modo = modo + 1;}
  6340     0D70  0878               	movf	_modo,w
  6341     0D71  3E01               	addlw	1
  6342     0D72  00F8               	movwf	_modo
  6343     0D73  0879               	movf	_modo+1,w
  6344     0D74  1803               	skipnc
  6345     0D75  3E01               	addlw	1
  6346     0D76  3E00               	addlw	0
  6347     0D77  00F9               	movwf	_modo+1
  6348     0D78  2D7B               	goto	i1l2699
  6349     0D79                     i1l2697:
  6350                           
  6351                           ;main.c: 100:                 modo = 0;}
  6352     0D79  01F8               	clrf	_modo
  6353     0D7A  01F9               	clrf	_modo+1
  6354     0D7B                     i1l2699:
  6355                           
  6356                           ;main.c: 102:         if(PORTBbits.RB1 == 0){
  6357     0D7B  1886               	btfsc	6,1	;volatile
  6358     0D7C  2D7E               	goto	u358_21
  6359     0D7D  2D7F               	goto	u358_20
  6360     0D7E                     u358_21:
  6361     0D7E  2D97               	goto	i1l2709
  6362     0D7F                     u358_20:
  6363     0D7F                     i1l172:
  6364     0D7F  1C86               	btfss	6,1	;volatile
  6365     0D80  2D82               	goto	u359_21
  6366     0D81  2D83               	goto	u359_20
  6367     0D82                     u359_21:
  6368     0D82  2D7F               	goto	i1l172
  6369     0D83                     u359_20:
  6370     0D83                     i1l2703:
  6371                           
  6372                           ;main.c: 104:             if (position < 3){
  6373     0D83  3000               	movlw	0
  6374     0D84  0277               	subwf	_position+1,w
  6375     0D85  3003               	movlw	3
  6376     0D86  1903               	skipnz
  6377     0D87  0276               	subwf	_position,w
  6378     0D88  1803               	skipnc
  6379     0D89  2D8B               	goto	u360_21
  6380     0D8A  2D8C               	goto	u360_20
  6381     0D8B                     u360_21:
  6382     0D8B  2D95               	goto	i1l2707
  6383     0D8C                     u360_20:
  6384     0D8C                     i1l2705:
  6385                           
  6386                           ;main.c: 105:                 position = position +1;}
  6387     0D8C  0876               	movf	_position,w
  6388     0D8D  3E01               	addlw	1
  6389     0D8E  00F6               	movwf	_position
  6390     0D8F  0877               	movf	_position+1,w
  6391     0D90  1803               	skipnc
  6392     0D91  3E01               	addlw	1
  6393     0D92  3E00               	addlw	0
  6394     0D93  00F7               	movwf	_position+1
  6395     0D94  2D97               	goto	i1l2709
  6396     0D95                     i1l2707:
  6397                           
  6398                           ;main.c: 107:                 position = 0;}
  6399     0D95  01F6               	clrf	_position
  6400     0D96  01F7               	clrf	_position+1
  6401     0D97                     i1l2709:
  6402                           
  6403                           ;main.c: 109:         if(PORTBbits.RB2 == 0){
  6404     0D97  1906               	btfsc	6,2	;volatile
  6405     0D98  2D9A               	goto	u361_21
  6406     0D99  2D9B               	goto	u361_20
  6407     0D9A                     u361_21:
  6408     0D9A  2DA6               	goto	i1l2715
  6409     0D9B                     u361_20:
  6410     0D9B                     i1l178:
  6411     0D9B  1D06               	btfss	6,2	;volatile
  6412     0D9C  2D9E               	goto	u362_21
  6413     0D9D  2D9F               	goto	u362_20
  6414     0D9E                     u362_21:
  6415     0D9E  2D9B               	goto	i1l178
  6416     0D9F                     u362_20:
  6417     0D9F                     i1l180:
  6418                           
  6419                           ;main.c: 111:                 PORTCbits.RC5 = 1;
  6420     0D9F  1687               	bsf	7,5	;volatile
  6421     0DA0                     i1l2713:
  6422                           
  6423                           ;main.c: 112:                 writeread = 1;}
  6424     0DA0  3001               	movlw	1
  6425     0DA1  1683               	bsf	3,5	;RP0=1, select bank1
  6426     0DA2  1303               	bcf	3,6	;RP1=0, select bank1
  6427     0DA3  00B3               	movwf	_writeread^(0+128)
  6428     0DA4  3000               	movlw	0
  6429     0DA5  00B4               	movwf	(_writeread^(0+128)+1)
  6430     0DA6                     i1l2715:
  6431                           
  6432                           ;main.c: 113:         INTCONbits.RBIF = 0;
  6433     0DA6  100B               	bcf	11,0	;volatile
  6434     0DA7                     i1l181:
  6435     0DA7  0873               	movf	??_isr+1,w
  6436     0DA8  008A               	movwf	10
  6437     0DA9  0E72               	swapf	??_isr,w
  6438     0DAA  0083               	movwf	3
  6439     0DAB  0EFE               	swapf	btemp,f
  6440     0DAC  0E7E               	swapf	btemp,w
  6441     0DAD  0009               	retfie
  6442     0DAE                     __end_of_isr:
  6443                           
  6444                           	psect	intentry
  6445     0004                     __pintentry:	
  6446                           ;incstack = 0
  6447                           ; Regs used in _isr: [wreg+status,2+status,0+pclath+cstack]
  6448                           
  6449     0004                     interrupt_function:
  6450     007E                     saved_w	set	btemp
  6451     0004  00FE               	movwf	btemp
  6452     0005  0E03               	swapf	3,w
  6453     0006  00F2               	movwf	??_isr
  6454     0007  080A               	movf	10,w
  6455     0008  00F3               	movwf	??_isr+1
  6456     0009  120A  158A  2D33   	ljmp	_isr
  6457                           
  6458                           	psect	text23
  6459     07EE                     __ptext23:	
  6460 ;; *************** function _delay *****************
  6461 ;; Defined at:
  6462 ;;		line 292 in file "main.c"
  6463 ;; Parameters:    Size  Location     Type
  6464 ;;  micro           2    0[COMMON] unsigned int 
  6465 ;; Auto vars:     Size  Location     Type
  6466 ;;		None
  6467 ;; Return value:  Size  Location     Type
  6468 ;;                  1    wreg      void 
  6469 ;; Registers used:
  6470 ;;		wreg, status,2, status,0
  6471 ;; Tracked objects:
  6472 ;;		On entry : 0/0
  6473 ;;		On exit  : 0/0
  6474 ;;		Unchanged: 0/0
  6475 ;; Data sizes:     COMMON   BANK0   BANK1   BANK3   BANK2
  6476 ;;      Params:         2       0       0       0       0
  6477 ;;      Locals:         0       0       0       0       0
  6478 ;;      Temps:          0       0       0       0       0
  6479 ;;      Totals:         2       0       0       0       0
  6480 ;;Total ram usage:        2 bytes
  6481 ;; Hardware stack levels used: 1
  6482 ;; This function calls:
  6483 ;;		Nothing
  6484 ;; This function is called by:
  6485 ;;		_isr
  6486 ;; This function uses a non-reentrant model
  6487 ;;
  6488                           
  6489     07EE                     _delay:	
  6490                           ;psect for function _delay
  6491                           
  6492     07EE                     i1l2369:	
  6493                           ;incstack = 0
  6494                           ; Regs used in _delay: [wreg+status,2+status,0]
  6495                           
  6496                           
  6497                           ;main.c: 293:     while (micro > 0){
  6498     07EE  2FF8               	goto	i1l2373
  6499     07EF                     i1l236:
  6500                           
  6501                           ;main.c: 294:         _delay((unsigned long)((40)*(500000/4000000.0)));
  6502     07EF  2FF0               	nop2	;2 cycle nop
  6503     07F0  2FF1               	nop2	;2 cycle nop
  6504     07F1  0000               	nop
  6505     07F2                     i1l2371:
  6506                           
  6507                           ;main.c: 295:         micro--;
  6508     07F2  3001               	movlw	1
  6509     07F3  02F0               	subwf	delay@micro,f
  6510     07F4  3000               	movlw	0
  6511     07F5  1C03               	skipc
  6512     07F6  03F1               	decf	delay@micro+1,f
  6513     07F7  02F1               	subwf	delay@micro+1,f
  6514     07F8                     i1l2373:
  6515                           
  6516                           ;main.c: 293:     while (micro > 0){
  6517     07F8  0870               	movf	delay@micro,w
  6518     07F9  0471               	iorwf	delay@micro+1,w
  6519     07FA  1D03               	btfss	3,2
  6520     07FB  2FFD               	goto	u315_21
  6521     07FC  2FFE               	goto	u315_20
  6522     07FD                     u315_21:
  6523     07FD  2FEF               	goto	i1l236
  6524     07FE                     u315_20:
  6525     07FE                     i1l238:
  6526     07FE  0008               	return
  6527     07FF                     __end_of_delay:
  6528     007E                     btemp	set	126	;btemp
  6529     007E                     wtemp0	set	126
  6530                           
  6531                           	psect	idloc
  6532                           
  6533                           ;Config register IDLOC0 @ 0x2000
  6534                           ;	unspecified, using default values
  6535     2000                     	org	8192
  6536     2000  3FFF               	dw	16383
  6537                           
  6538                           ;Config register IDLOC1 @ 0x2001
  6539                           ;	unspecified, using default values
  6540     2001                     	org	8193
  6541     2001  3FFF               	dw	16383
  6542                           
  6543                           ;Config register IDLOC2 @ 0x2002
  6544                           ;	unspecified, using default values
  6545     2002                     	org	8194
  6546     2002  3FFF               	dw	16383
  6547                           
  6548                           ;Config register IDLOC3 @ 0x2003
  6549                           ;	unspecified, using default values
  6550     2003                     	org	8195
  6551     2003  3FFF               	dw	16383
  6552                           
  6553                           	psect	config
  6554                           
  6555                           ;Config register CONFIG1 @ 0x2007
  6556                           ;	Oscillator Selection bits
  6557                           ;	FOSC = INTRC_NOCLKOUT, INTOSCIO oscillator: I/O function on RA6/OSC2/CLKOUT pin, I/O f
      +                          unction on RA7/OSC1/CLKIN
  6558                           ;	Watchdog Timer Enable bit
  6559                           ;	WDTE = OFF, WDT disabled and can be enabled by SWDTEN bit of the WDTCON register
  6560                           ;	Power-up Timer Enable bit
  6561                           ;	PWRTE = OFF, PWRT disabled
  6562                           ;	RE3/MCLR pin function select bit
  6563                           ;	MCLRE = OFF, RE3/MCLR pin function is digital input, MCLR internally tied to VDD
  6564                           ;	Code Protection bit
  6565                           ;	CP = OFF, Program memory code protection is disabled
  6566                           ;	Data Code Protection bit
  6567                           ;	CPD = OFF, Data memory code protection is disabled
  6568                           ;	Brown Out Reset Selection bits
  6569                           ;	BOREN = OFF, BOR disabled
  6570                           ;	Internal External Switchover bit
  6571                           ;	IESO = OFF, Internal/External Switchover mode is disabled
  6572                           ;	Fail-Safe Clock Monitor Enabled bit
  6573                           ;	FCMEN = OFF, Fail-Safe Clock Monitor is disabled
  6574                           ;	Low Voltage Programming Enable bit
  6575                           ;	LVP = OFF, RB3 pin has digital I/O, HV on MCLR must be used for programming
  6576                           ;	In-Circuit Debugger Mode bit
  6577                           ;	DEBUG = 0x1, unprogramme  6578     2007                     	org	8199
  6579     2007  20D4               	dw	8404
  6580                           
  6581                           ;Config register CONFIG2 @ 0x2008
  6582                           ;	Brown-out Reset Selection bit
  6583                           ;	BOR4V = BOR40V, Brown-out Reset set to 4.0V
  6584                           ;	Flash Program Memory Self Write Enable bits
  6585                           ;	WRT = OFF, Write protection off
  6586     2008                     	org	8200
  6587     2008  3FFF               	dw	16383

Data Sizes:
    Strings     0
    Constant    0
    Data        0
    BSS         46
    Persistent  0
    Stack       0

Auto Spaces:
    Space          Size  Autos    Used
    COMMON           14      6      10
    BANK0            80     73      79
    BANK1            80      7      43
    BANK3            96      0       0
    BANK2            96      0       0

Pointer List with Targets:

    None.

Critical Paths under _main in COMMON

    ___flmul->__Umul8_16
    _map->___wmul
    ___awdiv->___wmul

Critical Paths under _isr in COMMON

    _isr->_delay

Critical Paths under _main in BANK0

    _main->_controlmotores
    _mapeo->___fltol
    ___fltol->___fladd
    ___flmul->___xxtofl
    ___fladd->___flmul
    _map->___awdiv
    ___awdiv->___wmul

Critical Paths under _isr in BANK0

    None.

Critical Paths under _main in BANK1

    _controlmotores->_mapeo

Critical Paths under _isr in BANK1

    None.

Critical Paths under _main in BANK3

    None.

Critical Paths under _isr in BANK3

    None.

Critical Paths under _main in BANK2

    None.

Critical Paths under _isr in BANK2

    None.

Call Graph Tables:

 ---------------------------------------------------------------------------------
 (Depth) Function   	        Calls       Base Space   Used Autos Params    Refs
 ---------------------------------------------------------------------------------
 (0) _main                                                 2     2      0    8857
                                              5 BANK1      2     2      0
                            _adamodo
                     _controlmotores
                           _initUART
                         _readEEPROM
                              _setup
                           _setupADC
                        _setupINTOSC
                           _setupPWM
                          _setupPWM2
                          _setupTMR0
                           _verifpos
                        _writeEEPROM
 ---------------------------------------------------------------------------------
 (1) _writeEEPROM                                          3     2      1     456
                                              4 COMMON     1     0      1
                                              0 BANK0      2     2      0
 ---------------------------------------------------------------------------------
 (1) _verifpos                                             0     0      0       0
 ---------------------------------------------------------------------------------
 (1) _setupTMR0                                            0     0      0       0
 ---------------------------------------------------------------------------------
 (1) _setupPWM2                                            0     0      0       0
 ---------------------------------------------------------------------------------
 (1) _setupPWM                                             1     1      0       0
                                              4 COMMON     1     1      0
 ---------------------------------------------------------------------------------
 (1) _setupINTOSC                                          1     1      0      66
                                              4 COMMON     1     1      0
 ---------------------------------------------------------------------------------
 (1) _setupADC                                             1     1      0       0
                                              4 COMMON     1     1      0
 ---------------------------------------------------------------------------------
 (1) _setup                                                0     0      0       0
 ---------------------------------------------------------------------------------
 (1) _readEEPROM                                           1     1      0      22
                                              4 COMMON     1     1      0
 ---------------------------------------------------------------------------------
 (1) _initUART                                             0     0      0       0
 ---------------------------------------------------------------------------------
 (1) _controlmotores                                       3     3      0    8313
                                             70 BANK0      3     3      0
                                _map
                              _mapeo
 ---------------------------------------------------------------------------------
 (2) _mapeo                                                5     5      0    6608
                                              0 BANK1      5     5      0
                            ___fladd
                            ___flmul
                            ___fltol
                           ___xxtofl
 ---------------------------------------------------------------------------------
 (3) ___xxtofl                                            14    10      4     566
                                              0 BANK0     14    10      4
 ---------------------------------------------------------------------------------
 (3) ___fltol                                             10     6      4     427
                                             60 BANK0     10     6      4
                            ___fladd (ARG)
                            ___flmul (ARG)
                           ___xxtofl (ARG)
 ---------------------------------------------------------------------------------
 (3) ___flmul                                             26    18      8    3353
                                             14 BANK0     26    18      8
                          __Umul8_16
                           ___xxtofl (ARG)
 ---------------------------------------------------------------------------------
 (4) __Umul8_16                                            9     7      2     980
                                              4 COMMON     2     0      2
                                              0 BANK0      7     7      0
 ---------------------------------------------------------------------------------
 (3) ___fladd                                             20    12      8    2262
                                             40 BANK0     20    12      8
                            ___flmul (ARG)
                           ___xxtofl (ARG)
 ---------------------------------------------------------------------------------
 (2) _map                                                 10     2      8    1705
                                             13 BANK0     10     2      8
                            ___awdiv
                             ___wmul
 ---------------------------------------------------------------------------------
 (3) ___wmul                                               6     2      4     316
                                              4 COMMON     2     2      0
                                              0 BANK0      4     0      4
 ---------------------------------------------------------------------------------
 (3) ___awdiv                                              9     5      4     452
                                              4 BANK0      9     5      4
                             ___wmul (ARG)
 ---------------------------------------------------------------------------------
 (1) _adamodo                                              0     0      0       0
 ---------------------------------------------------------------------------------
 Estimated maximum stack depth 4
 ---------------------------------------------------------------------------------
 (Depth) Function   	        Calls       Base Space   Used Autos Params    Refs
 ---------------------------------------------------------------------------------
 (5) _isr                                                  2     2      0     175
                                              2 COMMON     2     2      0
                              _delay
 ---------------------------------------------------------------------------------
 (6) _delay                                                2     0      2     175
                                              0 COMMON     2     0      2
 ---------------------------------------------------------------------------------
 Estimated maximum stack depth 6
 ---------------------------------------------------------------------------------

 Call Graph Graphs:

 _main (ROOT)
   _adamodo
   _controlmotores
     _map
       ___awdiv
         ___wmul (ARG)
       ___wmul
     _mapeo
       ___fladd
         ___flmul (ARG)
           __Umul8_16
           ___xxtofl (ARG)
         ___xxtofl (ARG)
       ___flmul
       ___fltol
         ___fladd (ARG)
         ___flmul (ARG)
         ___xxtofl (ARG)
       ___xxtofl
   _initUART
   _readEEPROM
   _setup
   _setupADC
   _setupINTOSC
   _setupPWM
   _setupPWM2
   _setupTMR0
   _verifpos
   _writeEEPROM

 _isr (ROOT)
   _delay

 Address spaces:
Name               Size   Autos  Total    Cost      Usage
BITCOMMON            E      0       0       0        0.0%
EEDATA             100      0       0       0        0.0%
NULL                 0      0       0       0        0.0%
CODE                 0      0       0       0        0.0%
COMMON               E      6       A       1       71.4%
BITSFR0              0      0       0       1        0.0%
SFR0                 0      0       0       1        0.0%
BITSFR1              0      0       0       2        0.0%
SFR1                 0      0       0       2        0.0%
STACK                0      0       0       2        0.0%
ABS                  0      0      84       3        0.0%
BITBANK0            50      0       0       4        0.0%
BITSFR3              0      0       0       4        0.0%
SFR3                 0      0       0       4        0.0%
BANK0               50     49      4F       5       98.8%
BITSFR2              0      0       0       5        0.0%
SFR2                 0      0       0       5        0.0%
BITBANK1            50      0       0       6        0.0%
BANK1               50      7      2B       7       53.8%
BITBANK3            60      0       0       8        0.0%
BANK3               60      0       0       9        0.0%
BITBANK2            60      0       0      10        0.0%
BANK2               60      0       0      11        0.0%
DATA                 0      0      84      12        0.0%


Microchip Technology PIC Macro Assembler V2.40 build 20220703182018 
Symbol Table                                                                                   Fri Nov 18 09:28:20 2022

                      _i 00B1              map@inputmax 002F              map@inputmin 002D  
                     _RD 0C60                       _WR 0C61             ___awdiv@sign 002A  
                     fsr 0004      ___wmul@multiplicand 0022      __Umul8_16@word_mpld 0024  
                    l202 06C5                      l220 0B3E                      l214 0AAE  
                    l222 0B42                      l206 072A                      l311 0EC0  
                    l223 0B45                      l232 0A66                      l313 0ED8  
                    l241 0BFE                      l217 0BC7                      l250 0F56  
                    l226 0AC9                      l315 0EF0                      l323 0F14  
                    l331 0B1E                      l244 0E42                      l252 0F5A  
                    l228 0ACD                      l317 0EFA                      l309 0EA8  
                    l253 0FA2                      l229 0AD0                      l262 0A7E  
                    l319 0F0A                      l255 0FA6                      l247 0F24  
                    l271 0B9A                      l256 0FD8                      l328 0B03  
                    l192 0641                      l417 0ADF                      l249 0F28  
                    l265 0A93                      l329 0B0F                      l610 0D1D  
                    l258 0FDC                      l419 0AF7                      l603 0D32  
                    l259 0FFF                      l268 0B72                      l613 0D32  
                    l277 0C2D                      l710 03C8                      l286 0C51  
                    l289 0A7C                      l570 0CBA                      l714 044B  
                    l731 0514                      l723 05C4                      l716 0424  
                    l812 02DC                      l741 055A                      l806 036C  
                    l735 0538                      l752 05BA                      l744 0598  
                    l753 05C4                      l825 0B5C                      l818 0360  
                    l850 0758                      l827 0B6E                      l852 07ED  
                    l863 07B7                      l864 07C3                      l856 079B  
                    _GIE 005F                      _PR2 0092                      _map 0BC8  
                    _loc 0069                      _isr 0D33                      _pot 006D  
                    indf 0000             ___flmul@aexp 003C             ___flmul@bexp 0041  
           ___flmul@sign 003B             ___flmul@temp 0046             ___flmul@prod 0042  
           ___fltol@exp1 0065                     l2001 039B                     l2011 03AB  
                   l2003 03A1                     l2101 0498                     l2013 03B0  
                   l2021 03C0                     l2005 03A2                     l2103 04AE  
                   l2111 0506                     l2031 03DA                     l2023 03CE  
                   l2015 03B5                     l2007 03A6                     l2121 0533  
                   l2113 051C                     l2105 04EC                     l2041 03E4  
                   l2033 03DC                     l2025 03D2                     l2017 03BD  
                   l2009 03AA                     l3001 0348                     l2131 0546  
                   l2123 0537                     l2115 0521                     l2107 04F2  
                   l2051 03EE                     l2043 03E6                     l2035 03DE  
                   l2027 03D6                     l2019 03BE                     l3011 0364  
                   l3003 034A                     l2141 0557                     l2125 053C  
                   l2133 0548                     l2109 04F7                     l2061 040C  
                   l2053 03F0                     l2045 03E8                     l2037 03E0  
                   l2029 03D8                     l3005 0356                     l3021 0750  
                   l3101 0F93                     l2151 0576                     l2127 053F  
                   l2119 052A                     l2135 054C                     l2071 0436  
                   l2063 0428                     l2055 03F2                     l2047 03EA  
                   l2039 03E2                     l3007 035A                     l3031 0779  
                   l3023 0760                     l3015 0737                     l3111 0FC9  
                   l3103 0F99                     l2161 05AF                     l2153 0594  
                   l2145 055F                     l2137 054D                     l2129 0541  
                   l2073 043F                     l2065 042F                     l2049 03EC  
                   l2057 03F4                     l3009 035B                     l3041 07AD  
                   l3033 0780                     l3017 073C                     l3113 0FCF  
                   l3105 0F9F                     l2401 0B1B                     l3121 0B72  
                   l3201 069C                     l2171 05C3                     l2163 05B0  
                   l2155 059D                     l2147 0564                     l2139 0551  
                   l2091 0483                     l2083 045D                     l2067 0431  
                   l2075 0443                     l2059 03F5                     l3051 07E0  
                   l3043 07B1                     l3035 0784                     l3027 0769  
                   l3019 0740                     l3115 0FD5                     l3107 0FA7  
                   l2411 0A72                     l2403 0A67                     l3131 0B8A  
                   l3123 0B78                     l3211 06BE                     l3203 06A2  
                   l2165 05B4                     l2157 05A2                     l2149 0572  
                   l2093 0485                     l2085 0474                     l2077 044F  
                   l2069 0435                     l3053 07E4                     l3045 07BB  
                   l3037 0792                     l3029 076C                     l3117 0FDD  
                   l3109 0FC2                     l2413 0A75                     l2405 0A6B  
                   l2421 0B9E                     l3141 0B93                     l3133 0B8B  
                   l3125 0B80                     l3221 0703                     l3205 06A9  
                   l3213 06C5                     l2167 05B6                     l2159 05AA  
                   l2095 0489                     l2087 0478                     l2079 0454  
                   l3055 07E5                     l3047 07C5                     l3039 07A2  
                   l3063 0DAE                     l3119 0FF8                     l3071 0F15  
                   l2415 0A78                     l2407 0A6C                     l2431 0BAD  
                   l2423 0BA1                     l3135 0B8F                     l3127 0B83  
                   l3231 0724                     l3223 0707                     l3215 06CF  
                   l3207 06B0                     l3151 05F0                     l3143 05C5  
                   l2601 0EB7                     l2169 05BF                     l2097 048A  
                   l2089 047C                     l3049 07DB                     l3065 0DD1  
                   l3081 0F3A                     l3073 0F1B                     l2417 0A7B  
                   l2409 0A6F                     l2441 0BBA                     l2433 0BB0  
                   l2425 0BA4                     l3137 0B91                     l3129 0B84  
                   l3233 0726                     l3217 06D9                     l3209 06B7  
                   l3225 070B                     l3161 060D                     l3153 05F6  
                   l3145 05E9                     l2611 0EDE                     l2603 0EBF  
                   l3059 0BCB                     l2099 0493                     l3067 0E2C  
                   l3091 0F5B                     l3083 0F40                     l3075 0F21  
                   l2443 0BBD                     l2435 0BB3                     l2427 0BA7  
                   l2419 0B9B                     l2451 0B1F                     l3139 0B92  
                   l3227 0712                     l3219 06EE                     l3235 072A  
                   l3171 062C                     l3163 0613                     l3155 05FB  
                   l3147 05EB                     l2621 0F00                     l2613 0EE7  
                   l2605 0EC6                     l1901 0C55                     l3069 0E32  
                   l3093 0F60                     l3085 0F47                     l3077 0F29  
                   l2381 0AA2                     l2445 0BBE                     l2437 0BB6  
                   l2429 0BAA                     l2461 0B3D                     l2453 0B22  
                   l2541 0C15                     l2533 0BFF                     l3229 071C  
                   l3181 0655                     l3173 0633                     l3165 0618  
                   l3157 0600                     l3149 05ED                     l2623 0F06  
                   l2615 0EEF                     l2607 0ECF                     l1911 0C69  
                   l1903 0C59                     l3095 0F6D                     l3087 0F4D  
                   l3079 0F2E                     l2391 0AAD                     l2383 0AA5  
                   l2375 0A94                     l2447 0BBF                     l2439 0BB9  
                   l2455 0B28                     l2471 0AC1                     l2463 0AAF  
                   l2551 0C33                     l2543 0C1C                     l2535 0C05  
                   l3183 0660                     l3175 063A                     l3167 061E  
                   l3159 0605                     l3191 0679                     l2625 0F09  
                   l2617 0EF6                     l2609 0ED7                     l2561 0E43  
                   l1921 0C7F                     l1913 0C6D                     l1905 0C5E  
                   l3097 0F86                     l3089 0F53                     l2385 0AA6  
                   l2377 0A9F                     l2449 0BC2                     l2393 0AF9  
                   l2457 0B34                     l2473 0AC2                     l2465 0AB2  
                   l2481 0A62                     l2553 0C39                     l2545 0C21  
                   l2537 0C0A                     l3193 067F                     l3185 066B  
                   l3169 0625                     l3177 0641                     l2627 0F10  
                   l2619 0EF9                     l2571 0E62                     l2563 0E49  
                   l1931 0C9F                     l1923 0C83                     l1915 0C6F  
                   l1907 0C60                     l2811 0B49                     l3099 0F8C  
                   l2387 0AA7                     l2379 0AA1                     l2395 0AFF  
                   l2459 0B3A                     l2475 0AC8                     l2467 0AB4  
                   l2555 0C3F                     l2547 0C28                     l2539 0C10  
                   l3195 0689                     l3187 066F                     l3179 064A  
                   l2629 0F13                     l2581 0E7D                     l2573 0E64  
                   l2565 0E4F                     l1933 0CA6                     l1925 0C87  
                   l1917 0C75                     l1909 0C64                     l2821 0B6A  
                   l2813 0B4B                     l2901 0060                     l2661 0A8F  
                   l2653 0A7E                     l2389 0AAB                     l2397 0B09  
                   l2469 0AB8                     l2477 0A57                     l2557 0C45  
                   l2549 0C2D                     l3197 0691                     l3189 0672  
                   l2591 0E90                     l2583 0E7F                     l2567 0E58  
                   l2575 0E66                     l1927 0C98                     l1919 0C78  
                   l1935 0CAC                     l2831 0AE6                     l2815 0B52  
                   l2911 007C                     l2903 0065                     l2655 0A84  
                   l2399 0B15                     l2479 0A5E                     l2559 0C4C  
                   l3199 0697                     l2593 0E96                     l2577 0E6C  
                   l2585 0E81                     l2569 0E5A                     l1937 0CB1  
                   l1929 0C9E                     l2833 0AED                     l2825 0AD1  
                   l2817 0B56                     l2921 009D                     l2913 0081  
                   l2905 006A                     l2841 0CC6                     l2657 0A88  
                   l2595 0E9F                     l2587 0E87                     l2579 0E75  
                   l1939 0CB6                     l2835 0AF3                     l2827 0AD3  
                   l2819 0B65                     l2931 0127                     l2923 00AA  
                   l2915 0086                     l2907 0072                     l2851 0CEB  
                   l2659 0A8C                     l2597 0EA7                     l2589 0E8D  
                   l2829 0AD9                     l1981 0372                     l2941 0185  
                   l2933 0143                     l2925 00C5                     l2909 0074  
                   l2861 0CF9                     l2853 0CED                     l2845 0CCF  
                   ?_map 002D                     l2599 0EAE                     l1991 0385  
                   l1983 0376                     l2951 020F                     l2943 01A2  
                   l2935 014C                     l2927 00E1                     l2919 008F  
                   l2871 0D22                     l2855 0CF1                     l2863 0D0B  
                   l2847 0CE2                     l2839 0CBB                     l1993 038D  
                   l1985 037A                     l2961 029F                     l2953 023A  
                   l2945 01B9                     l2937 015A                     l2929 010B  
                   l2881 0035                     l2873 0D27                     l2849 0CE3  
                   l1899 0C52                     l1995 038E                     l1987 037B  
                   l1979 036D                     l2963 02A8                     l2971 02BC  
                   l2955 0260                     l2947 01D6                     l2939 0177  
                   l2891 004A                     l2883 0036                     l2875 0028  
                   l1989 0380                     l1997 0390                     l2973 02C0  
                   l2965 02AC                     l2957 0288                     l2949 0201  
                   l2893 0052                     l2885 003B                     l2877 002D  
                   l2869 0D12                     l1999 0398                     l2991 0311  
                   l2983 02E1                     l2975 02C1                     l2967 02AD  
                   l2959 0291                     l2895 0057                     l2887 0040  
                   l2879 0031                     l2985 02E6                     l2993 0317  
                   l2977 02C5                     l2969 02B6                     l2897 005B  
                   l2889 0048                     l2995 0324                     l2987 02F4  
                   l2979 02D9                     l2899 005F                     l2997 032F  
                   l2989 02F8                     l2999 033E                     _ADIF 0066  
                   ?_isr 0070                     u2010 0C87                     u2011 0C86  
                   u2005 0C79                     u2030 0C98                     u2031 0C97  
                   u2200 03A1                     u2025 0C88                     u2201 03A0  
                   u2050 0CAC                     u2210 03AA                     u2051 0CAB  
                   u2035 0C94                     u2211 03A9                     u2060 0CB1  
                   u2300 0435                     u2220 03B0                     _IOCB 0096  
                   u2061 0CB0                     u2045 0CA0                     u2301 0434  
                   u2221 03AF                     u2230 03B5                     u2231 03B4  
                   u2400 04AE                     u2320 044B                     u2240 03CE  
                   u4000 0081                     u3200 0ACD                     u2401 04AD  
                   u2321 044A                     u2241 03CD                     u4001 0080  
                   u3201 0ACC                     u2330 044F                     u2250 03D2  
                   u2170 037A                     u4010 0086                     u2411 04C5  
                   u2403 04AA                     u2331 044E                     u2315 0438  
                   u2251 03D1                     u2171 0379                     u4011 0085  
                   u2500 054C                     u2420 04D9                     u2412 04C6  
                   u2340 0454                     u2260 040C                     u2180 0380  
                   u3300 0C3F                     u2501 054B                     u2421 04DA  
                   u2413 04CB                     u2341 0453                     u2261 040B  
                   u2181 037F                     u4101 01C8                     u4021 00D3  
                   u3301 0C3E                     u2510 0551                     u2430 04F7  
                   u2422 04DF                     u2414 04CC                     u2270 0417  
                   u2190 0385                     u4102 01CF                     u4022 00DA  
                   u3310 0C4C                     u2511 0550                     u2431 04F6  
                   u2423 04E0                     u2415 04D1                     u2351 0466  
                   u2271 0415                     u2191 0384                     u4111 01F3  
                   u4103 01D6                     u4031 00EF                     u4023 00E1  
                   u3311 0C4B                     u3400 0EAE                     u3320 0E49  
                   u2600 05AF                     u2520 0557                     u2440 051C  
                   u2416 04D2                     u2360 0478                     u2352 046D  
                   u2280 0418                     u4112 01FA                     u4032 00F6  
                   u3160 0AFF                     u3401 0EAD                     u3321 0E48  
                   u2601 05AE                     u2521 0556                     u2441 051B  
                   u2361 0477                     u2353 0474                     u2265 0408  
                   u4121 021E                     u4113 0201                     u4041 0119  
                   u4033 00FD                     u3161 0AFE                     u3410 0EB7  
                   u3330 0E4F                     u2610 05B4                     u2530 055E  
                   u2450 0521                     u2370 047C                     u2290 0428  
                   u4210 02C0                     u4130 0246                     u4122 0225  
                   u4042 0120                     u3170 0B09                     u3250 0C05  
                   u3411 0EB6                     u3331 0E4E                     u2611 05B3  
                   u2531 055D                     u2451 0520                     u2371 047B  
                   u2291 0427                     u4211 02BF                     u4123 022C  
                   u4051 0135                     u4043 0127                     u3171 0B08  
                   u3251 0C04                     u3420 0EC6                     u3340 0E58  
                   u2620 05C3                     u2540 0564                     u2380 0489  
                   u4300 035A                     u4220 02C5                     u4052 013C  
                   u3180 0B15                     u3260 0C10                     u3421 0EC5  
                   u3341 0E57                     u2621 05C2                     u2541 0563  
                   u2381 0488                     u4301 0359                     u4221 02C4  
                   u4205 02AF                     u4141 0252                     u4053 0143  
                   u3181 0B14                     u3261 0C0F                     u3430 0ECF  
                   u3350 0E6C                     u2550 0576                     u2470 0537  
                   u4230 02D9                     u4150 026E                     u4142 0259  
                   u4310 073C                     u3510 0A84                     u3190 0B42  
                   u3270 0C1C                     u3431 0ECE                     u3351 0E6B  
                   u2551 0575                     u2471 0536                     u4231 02D8  
                   u4143 0260                     u4135 0241                     u4071 0169  
                   u4311 073B                     u3511 0A83                     u3191 0B41  
                   u3271 0C1B                     u3440 0EDE                     u3360 0E75  
                   u2560 0585                     u2480 053C                     u4240 02E0  
                   u4072 0170                     u4400 07B7                     u4320 0740  
                   u3520 0A88                     u3280 0C28                     u3441 0EDD  
                   u3361 0E74                     u2481 053B                     u2465 052C  
                   u4241 02DF                     u4161 027A                     u4081 0194  
                   u4073 0177                     u4065 0145                     u4401 07B6  
                   u4321 073F                     u3521 0A87                     u3281 0C27  
                   u3450 0EE7                     u3370 0E87                     u2570 0594  
                   u2490 0546                     u4250 02E6                     u4162 0281  
                   u4082 019B                     u4410 07BB                     u4330 0760  
                   u3290 0C33                     u3451 0EE6                     u3371 0E86  
                   u2571 0593                     u2491 0545                     u2395 048C  
                   u4251 02E5                     u4163 0288                     u4155 0269  
                   u4083 01A2                     u4411 07BA                     u4331 075F  
                   u3291 0C32                     u3460 0EF6                     u3380 0E96  
                   u2580 059D                     u4260 02F8                     u4420 07D0  
                   u4500 0B78                     u3461 0EF5                     u3381 0E95  
                   u2581 059C                     u2565 0580                     u4261 02F7  
                   u4501 0B77                     u3470 0F00                     u3390 0E9F  
                   u2590 05A2                     u4270 0307                     u4190 02AC  
                   u4430 07E0                     u4350 077F                     u4510 05F6  
                   u3471 0EFF                     u3391 0E9E                     u2591 05A1  
                   u4191 02AB                     u4175 028A                     u4095 01A4  
                   u4431 07DF                     u4351 077E                     u4511 05F5  
                   u3480 0F06                     u3800 0AD9                     u4280 0324  
                   u4440 07E4                     u4600 06A2                     u4520 060D  
                   u3481 0F05                     u3801 0AD8                     u4281 0323  
                   u4185 02A1                     u4441 07E3                     u4425 07CB  
                   u4345 0771                     u4601 06A1                     u4521 060C  
                   u3490 0F10                     u1970 0C59                     u4290 033E  
                   u4370 07A1                     u4610 06B0                     u4530 0613  
                   u3491 0F0F                     u1971 0C58                     u4291 033D  
                   u4275 0302                     u4371 07A0                     u4611 06AF  
                   u4531 0612                     u1980 0C64                     u3900 0D11  
                   u4460 0F28                     u4620 06BE                     u4540 061E  
                   u1981 0C63                     u4285 0320                     u3901 0D10  
                   u4365 0793                     u4461 0F27                     u4621 06BD  
                   u4541 061D                     u1990 0C75                     u3830 0AF3  
                   u4390 07B1                     u4470 0F5A                     u4630 0712  
                   u4550 062C                     u1991 0C74                     u3831 0AF2  
                   u3815 0AE0                     u4295 033A                     u4391 07B0  
                   u4455 0DB3                     u4471 0F59                     u4631 0711  
                   u4551 062B                     u3920 0D22                     u3840 0CC6  
                   u4480 0FA6                     u4640 0724                     u4560 063A  
                   u3825 0AE7                     u3921 0D21                     u3841 0CC5  
                   u4385 07A6                     u4481 0FA5                     u4641 0723  
                   u4561 0639                     u3770 0B56                     u3930 0D27  
                   u3850 0CDD                     u4490 0FDC                     u4570 067F  
                   u3771 0B55                     u3931 0D26                     u3915 0D14  
                   u4491 0FDB                     u4707 0F51                     u4571 067E  
                   u3940 0035                     u3860 0CF1                     u4580 0691  
                   u3941 0034                     u3861 0CF0                     u4717 0F90  
                   u4581 0690                     u3790 0B6A                     u3950 003B  
                   u3870 0CF8                     u4590 0697                     u3791 0B69  
                   u3951 003A                     u3871 0CF7                     u3855 0CD8  
                   u4727 0F9D                     u4591 0696                     u3960 0040  
                   u3785 0B5D                     u3961 003F                     u4737 0FC6  
                   u4657 0676                     u3970 005F                     u3890 0D0A  
                   u3971 005E                     u3891 0D09                     u4747 0FD3  
                   u4667 072E                     u3980 0065                     u3981 0064  
                   u3885 0CFA                     u4757 0FFC                     u4677 0BC4  
                   u3990 006A                     u3991 0069                     u4687 0F1F  
                   u4697 0F44                     _TMR0 0001                     _WPUB 0095  
                   _data 00BD                     _cont 00BF                     _main 05C5  
                   _pot1 006B                     _modo 0078                     btemp 007E  
                   start 000C              _writeEEPROM 0B6F                    ??_map 0035  
                  ??_isr 0072            ___fltol@sign1 0064       writeEEPROM@address 0020  
        __end_of___fladd 05C5                    ?_main 0070          __end_of___awdiv 0CBB  
                  _EEADR 010D                    _EEDAT 010C          __end_of___flmul 036D  
        __end_of___fltol 0D33          ___awdiv@divisor 0024                    i1l236 07EF  
                  i1l180 0D9F                    i1l172 0D7F                    i1l181 0DA7  
                  i1l238 07FE                    i1l166 0D61                    i1l178 0D9B  
        __end_of_adamodo 0F15          ___awdiv@counter 0029                    _RCREG 001A  
                  _SPBRG 0099                    _PORTA 0005                    _PORTC 0007  
                  _PORTD 0008                    _TRISC 0087                    _TRISD 0088  
                  _TXREG 0019                    _delay 07EE                    _mapeo 0DAE  
                  _valDC 00BB                    _micro 00B5                    _setup 0A94  
                  pclath 000A                    status 0003                    wtemp0 007E  
        __initialization 000F             __end_of_main 0734                   ??_main 00C9  
                 ?_delay 0070                   ?_mapeo 0070                   _ADRESH 001E  
                 _ADRESL 009E                   _CCPR1L 0015                   _CCPR2L 001B  
                 _EECON2 018D         ___awdiv@dividend 0026                   ?_setup 0070  
                 _ANSELH 0189                   i1l2371 07F2                   i1l2373 07F8  
                 i1l2703 0D83                   i1l2369 07EE                   i1l2713 0DA0  
                 i1l2705 0D8C                   i1l2715 0DA6                   i1l2707 0D95  
                 i1l2709 0D97                   i1l2671 0D3C                   i1l2681 0D53  
                 i1l2673 0D3D                   i1l2665 0D33                   i1l2691 0D65  
                 i1l2683 0D56                   i1l2675 0D46                   i1l2667 0D37  
                 i1l2693 0D6E                   i1l2677 0D49                   i1l2669 0D38  
                 i1l2685 0D57                   i1l2695 0D70                   i1l2687 0D5B  
                 i1l2679 0D4A                   i1l2697 0D79                   i1l2699 0D7B  
                 u315_20 07FE                   u315_21 07FD                   u360_20 0D8C  
                 u360_21 0D8B                   u361_20 0D9B                   u353_20 0D37  
                 u361_21 0D9A                   u353_21 0D36                   u362_20 0D9F  
                 u354_20 0D5B                   u362_21 0D9E                   u354_21 0D5A  
                 u355_20 0D61                   u355_21 0D60                   u356_20 0D65  
                 u356_21 0D64                   u357_20 0D6E                   u357_21 0D6D  
                 u358_20 0D7F                   u358_21 0D7E                   u359_20 0D83  
                 u359_21 0D82                   _TMR2IF 0061                   _TMR2ON 0092  
       __end_of___xxtofl 07EE                ??___fladd 0050                   ___wmul 0AD1  
              ??___awdiv 0028                ??___flmul 0036                ??___fltol 0060  
       __end_of_initUART 0A7D                   _buffer 00A0                ??_adamodo 0074  
                 _valDCH 00B7                   _valDCL 00B9         ___awdiv@quotient 002B  
           ?_setupINTOSC 0070         __end_of_setupADC 0BC8         __end_of_setupPWM 0B46  
                 saved_w 007E         __end_of_verifpos 0C52           _controlmotores 0F15  
           ___xxtofl@arg 002A             ___xxtofl@exp 0029             ___xxtofl@val 0020  
__end_of__initialization 0024               ___fltol@f1 005C          writeEEPROM@data 0074  
         __pcstackCOMMON 0070            __end_of_delay 07FF            __end_of_mapeo 0E43  
          __end_of_setup 0AAF           _OPTION_REGbits 0081   __end_of_controlmotores 1000  
                ??_delay 0072                  ??_mapeo 00C4                  ??_setup 0074  
             __pbssBANK0 0069               __pbssBANK1 00A0        __end_of__Umul8_16 0B6F  
             __pmaintext 05C5             ?_writeEEPROM 0074                  ?___wmul 0020  
             __pintentry 0004                  _CCP1CON 0017                  _ADC_RES 00C2  
              ?___xxtofl 0020          ?_controlmotores 0070     writeEEPROM@gieStatus 0021  
             _cont_sleep 00BE                ?_initUART 0070               _readEEPROM 0A7D  
              ?_setupADC 0070                ?_setupPWM 0070                  ___fladd 036D  
                ___awdiv 0C52                  ___flmul 0028                  ___fltol 0CBB  
              ?_verifpos 0070                  _adamodo 0E43                  _address 00C0  
              _ANSELbits 0188                  __ptext1 0B6F                  __ptext2 0BFF  
                __ptext3 0A57                  __ptext4 0AAF                  __ptext5 0B1F  
                __ptext6 0AF8                  __ptext7 0B9B                  __ptext8 0A94  
                __ptext9 0A7D                _T2CONbits 0012               ??___xxtofl 0024  
             delay@micro 0070                  clrloop0 0A50     end_of_initialization 0024  
             ??_initUART 0074        __end_of_setupPWM2 0AD1        __end_of_setupTMR0 0A67  
             ??_setupADC 0074                _RCSTAbits 0018               ??_setupPWM 0074  
             ??_verifpos 0074                _PORTBbits 0006                _PORTCbits 0007  
              _PORTDbits 0008              ___fladd@grs 005B            ___xxtofl@sign 0028  
              _TRISAbits 0085                _TRISCbits 0087        readEEPROM@address 0074  
            ___flmul@grs 003D              _CCP1CONbits 0017              ?_readEEPROM 0070  
            _CCP2CONbits 001D                _TXSTAbits 0098           __end_of___wmul 0AF8  
            _BAUDCTLbits 0187      start_initialization 000F              __end_of_map 0BFF  
            __end_of_isr 0DAE                 ??___wmul 0074                __Umul8_16 0B46  
       ??_controlmotores 0066                ___fladd@a 004C                ___fladd@b 0048  
              ___flmul@a 0032                ___flmul@b 002E              __pbssCOMMON 0076  
              ___latbits 0002            __pcstackBANK0 0020            __pcstackBANK1 00C4  
        setupINTOSC@IRCF 0074                 ?___fladd 0048                 ?___awdiv 0024  
               ?___flmul 002E                 ?___fltol 005C               ?__Umul8_16 0074  
               ?_adamodo 0070        interrupt_function 0004           ___wmul@product 0074  
              clear_ram0 0A4F                 _PIE1bits 008C                 _PIR1bits 000C  
              _setupTMR0 0A57                _setupPWM2 0AAF                _valorpot1 00C1  
             _ADCON0bits 001F               _ADCON1bits 009F            ??_setupINTOSC 0074  
      ___wmul@multiplier 0020                map@outmax 0033                map@outmin 0031  
              _writeread 00B3             ??_readEEPROM 0074               _EECON1bits 018C  
             ?_setupTMR0 0070               ?_setupPWM2 0070              ??__Umul8_16 0020  
               ___xxtofl 0734       __end_of_readEEPROM 0A94                 __ptext10 0A67  
               __ptext11 0F15                 __ptext20 0C52                 __ptext12 0DAE  
               __ptext21 0E43                 __ptext13 0734                 __ptext22 0D33  
               __ptext14 0CBB                 __ptext23 07EE                 __ptext15 0028  
               __ptext16 0B46                 __ptext17 036D                 __ptext18 0BC8  
               __ptext19 0AD1      __end_of_setupINTOSC 0B1F                 _initUART 0A67  
          ??_writeEEPROM 0075                 _setupADC 0B9B                 _setupPWM 0B1F  
               _position 0076                 _verifpos 0BFF                 map@value 0036  
             _INTCONbits 000B                 intlevel1 0000               _OSCCONbits 008F  
            ??_setupTMR0 0074              ??_setupPWM2 0074      __end_of_writeEEPROM 0B9B  
 __Umul8_16@multiplicand 0074              _setupINTOSC 0AF8            ___fladd@signs 0058  
           ___fladd@aexp 0059             ___fladd@bexp 005A     __Umul8_16@multiplier 0026  
      __Umul8_16@product 0022  
