

Microchip MPLAB XC8 Assembler V2.40 build 20220703182018 
                                                                                               Thu Nov 17 10:34:40 2022

Microchip MPLAB XC8 C Compiler v2.40 (Free license) build 20220703182018 Og1 
     1                           	processor	16F887
     2                           	pagewidth 120
     3                           	opt	flic
     4                           	psect	cinit,global,class=CODE,merge=1,delta=2
     5                           	psect	bssCOMMON,global,class=COMMON,space=1,delta=1,noexec
     6                           	psect	bssBANK0,global,class=BANK0,space=1,delta=1,noexec
     7                           	psect	bssBANK1,global,class=BANK1,space=1,delta=1,noexec
     8                           	psect	clrtext,global,class=CODE,delta=2
     9                           	psect	cstackBANK1,global,class=BANK1,space=1,delta=1,noexec
    10                           	psect	cstackCOMMON,global,class=COMMON,space=1,delta=1,noexec
    11                           	psect	cstackBANK0,global,class=BANK0,space=1,delta=1,noexec
    12                           	psect	maintext,global,class=CODE,split=1,delta=2
    13                           	psect	text1,local,class=CODE,merge=1,delta=2
    14                           	psect	text2,local,class=CODE,merge=1,delta=2
    15                           	psect	text3,local,class=CODE,merge=1,delta=2
    16                           	psect	text4,local,class=CODE,merge=1,delta=2
    17                           	psect	text5,local,class=CODE,merge=1,delta=2
    18                           	psect	text6,local,class=CODE,merge=1,delta=2
    19                           	psect	text7,local,class=CODE,merge=1,delta=2
    20                           	psect	text8,local,class=CODE,merge=1,delta=2
    21                           	psect	text9,local,class=CODE,merge=1,delta=2
    22                           	psect	text10,local,class=CODE,merge=1,delta=2
    23                           	psect	text11,local,class=CODE,merge=1,delta=2
    24                           	psect	text12,local,class=CODE,merge=1,delta=2,group=1
    25                           	psect	text13,local,class=CODE,merge=1,delta=2,group=1
    26                           	psect	text14,local,class=CODE,merge=1,delta=2,group=1
    27                           	psect	text15,local,class=CODE,merge=1,delta=2,group=1
    28                           	psect	text16,local,class=CODE,merge=1,delta=2,group=1
    29                           	psect	text17,local,class=CODE,merge=1,delta=2
    30                           	psect	text18,local,class=CODE,merge=1,delta=2,group=1
    31                           	psect	text19,local,class=CODE,merge=1,delta=2,group=1
    32                           	psect	text20,local,class=CODE,merge=1,delta=2
    33                           	psect	intentry,global,class=CODE,delta=2
    34                           	psect	text21,local,class=CODE,merge=1,delta=2
    35                           	psect	idloc,global,abs,ovrld,class=IDLOC,space=5,delta=2,noexec
    36                           	psect	config,global,abs,ovrld,class=CONFIG,space=4,delta=2,noexec
    37                           	dabs	1,0x7E,2
    38     0000                     
    39                           ; Version 2.40
    40                           ; Generated 17/11/2021 GMT
    41                           ; 
    42                           ; Copyright © 2021, Microchip Technology Inc. and its subsidiaries ("Microchip")
    43                           ; All rights reserved.
    44                           ; 
    45                           ; This software is developed by Microchip Technology Inc. and its subsidiaries ("Microch
      +                          ip").
    46                           ; 
    47                           ; Redistribution and use in source and binary forms, with or without modification, are
    48                           ; permitted provided that the following conditions are met:
    49                           ; 
    50                           ;     1. Redistributions of source code must retain the above copyright notice, this lis
      +                          t of
    51                           ;        conditions and the following disclaimer.
    52                           ; 
    53                           ;     2. Redistributions in binary form must reproduce the above copyright notice, this 
      +                          list
    54                           ;        of conditions and the following disclaimer in the documentation and/or other
    55                           ;        materials provided with the distribution. Publication is not required when
    56                           ;        this file is used in an embedded application.
    57                           ; 
    58                           ;     3. Microchip's name may not be used to endorse or promote products derived from th
      +                          is
    59                           ;        software without specific prior written permission.
    60                           ; 
    61                           ; THIS SOFTWARE IS PROVIDED BY MICROCHIP "AS IS" AND ANY EXPRESS OR IMPLIED WARRANTIES,
    62                           ; INCLUDING, BUT NOT LIMITED TO, THE IMPLIED WARRANTIES OF MERCHANTABILITY AND FITNESS F
      +                          OR
    63                           ; PURPOSE ARE DISCLAIMED.  IN NO EVENT SHALL MICROCHIP BE LIABLE FOR ANY DIRECT, INDIREC
      +                          T,
    64                           ; INCIDENTAL, SPECIAL, EXEMPLARY, OR CONSEQUENTIAL DAMAGES (INCLUDING BUT NOT LIMITED TO
    65                           ; PROCUREMENT OF SUBSTITUTE GOODS OR SERVICES; LOSS OF USE, DATA OR PROFITS; OR BUSINESS
    66                           ; INTERRUPTION) HOWSOEVER CAUSED AND ON ANY THEORY OF LIABILITY, WHETHER IN CONTRACT, ST
      +                          RICT
    67                           ; LIABILITY, OR TORT (INCLUDING NEGLIGENCE OR OTHERWISE) ARISING IN ANY WAY OUT OF THE U
      +                          SE OF
    68                           ; THIS SOFTWARE, EVEN IF ADVISED OF THE POSSIBILITY OF SUCH DAMAGE.
    69                           ; 
    70                           ; 
    71                           ; Code-generator required, PIC16F887 Definitions
    72                           ; 
    73                           ; SFR Addresses
    74     0000                     	;# 
    75     0001                     	;# 
    76     0002                     	;# 
    77     0003                     	;# 
    78     0004                     	;# 
    79     0005                     	;# 
    80     0006                     	;# 
    81     0007                     	;# 
    82     0008                     	;# 
    83     0009                     	;# 
    84     000A                     	;# 
    85     000B                     	;# 
    86     000C                     	;# 
    87     000D                     	;# 
    88     000E                     	;# 
    89     000E                     	;# 
    90     000F                     	;# 
    91     0010                     	;# 
    92     0011                     	;# 
    93     0012                     	;# 
    94     0013                     	;# 
    95     0014                     	;# 
    96     0015                     	;# 
    97     0015                     	;# 
    98     0016                     	;# 
    99     0017                     	;# 
   100     0018                     	;# 
   101     0019                     	;# 
   102     001A                     	;# 
   103     001B                     	;# 
   104     001B                     	;# 
   105     001C                     	;# 
   106     001D                     	;# 
   107     001E                     	;# 
   108     001F                     	;# 
   109     0081                     	;# 
   110     0085                     	;# 
   111     0086                     	;# 
   112     0087                     	;# 
   113     0088                     	;# 
   114     0089                     	;# 
   115     008C                     	;# 
   116     008D                     	;# 
   117     008E                     	;# 
   118     008F                     	;# 
   119     0090                     	;# 
   120     0091                     	;# 
   121     0092                     	;# 
   122     0093                     	;# 
   123     0093                     	;# 
   124     0093                     	;# 
   125     0094                     	;# 
   126     0095                     	;# 
   127     0096                     	;# 
   128     0097                     	;# 
   129     0098                     	;# 
   130     0099                     	;# 
   131     009A                     	;# 
   132     009B                     	;# 
   133     009C                     	;# 
   134     009D                     	;# 
   135     009E                     	;# 
   136     009F                     	;# 
   137     0105                     	;# 
   138     0107                     	;# 
   139     0108                     	;# 
   140     0109                     	;# 
   141     010C                     	;# 
   142     010C                     	;# 
   143     010D                     	;# 
   144     010E                     	;# 
   145     010F                     	;# 
   146     0185                     	;# 
   147     0187                     	;# 
   148     0188                     	;# 
   149     0189                     	;# 
   150     018C                     	;# 
   151     018D                     	;# 
   152     0000                     	;# 
   153     0001                     	;# 
   154     0002                     	;# 
   155     0003                     	;# 
   156     0004                     	;# 
   157     0005                     	;# 
   158     0006                     	;# 
   159     0007                     	;# 
   160     0008                     	;# 
   161     0009                     	;# 
   162     000A                     	;# 
   163     000B                     	;# 
   164     000C                     	;# 
   165     000D                     	;# 
   166     000E                     	;# 
   167     000E                     	;# 
   168     000F                     	;# 
   169     0010                     	;# 
   170     0011                     	;# 
   171     0012                     	;# 
   172     0013                     	;# 
   173     0014                     	;# 
   174     0015                     	;# 
   175     0015                     	;# 
   176     0016                     	;# 
   177     0017                     	;# 
   178     0018                     	;# 
   179     0019                     	;# 
   180     001A                     	;# 
   181     001B                     	;# 
   182     001B                     	;# 
   183     001C                     	;# 
   184     001D                     	;# 
   185     001E                     	;# 
   186     001F                     	;# 
   187     0081                     	;# 
   188     0085                     	;# 
   189     0086                     	;# 
   190     0087                     	;# 
   191     0088                     	;# 
   192     0089                     	;# 
   193     008C                     	;# 
   194     008D                     	;# 
   195     008E                     	;# 
   196     008F                     	;# 
   197     0090                     	;# 
   198     0091                     	;# 
   199     0092                     	;# 
   200     0093                     	;# 
   201     0093                     	;# 
   202     0093                     	;# 
   203     0094                     	;# 
   204     0095                     	;# 
   205     0096                     	;# 
   206     0097                     	;# 
   207     0098                     	;# 
   208     0099                     	;# 
   209     009A                     	;# 
   210     009B                     	;# 
   211     009C                     	;# 
   212     009D                     	;# 
   213     009E                     	;# 
   214     009F                     	;# 
   215     0105                     	;# 
   216     0107                     	;# 
   217     0108                     	;# 
   218     0109                     	;# 
   219     010C                     	;# 
   220     010C                     	;# 
   221     010D                     	;# 
   222     010E                     	;# 
   223     010F                     	;# 
   224     0185                     	;# 
   225     0187                     	;# 
   226     0188                     	;# 
   227     0189                     	;# 
   228     018C                     	;# 
   229     018D                     	;# 
   230     0000                     	;# 
   231     0001                     	;# 
   232     0002                     	;# 
   233     0003                     	;# 
   234     0004                     	;# 
   235     0005                     	;# 
   236     0006                     	;# 
   237     0007                     	;# 
   238     0008                     	;# 
   239     0009                     	;# 
   240     000A                     	;# 
   241     000B                     	;# 
   242     000C                     	;# 
   243     000D                     	;# 
   244     000E                     	;# 
   245     000E                     	;# 
   246     000F                     	;# 
   247     0010                     	;# 
   248     0011                     	;# 
   249     0012                     	;# 
   250     0013                     	;# 
   251     0014                     	;# 
   252     0015                     	;# 
   253     0015                     	;# 
   254     0016                     	;# 
   255     0017                     	;# 
   256     0018                     	;# 
   257     0019                     	;# 
   258     001A                     	;# 
   259     001B                     	;# 
   260     001B                     	;# 
   261     001C                     	;# 
   262     001D                     	;# 
   263     001E                     	;# 
   264     001F                     	;# 
   265     0081                     	;# 
   266     0085                     	;# 
   267     0086                     	;# 
   268     0087                     	;# 
   269     0088                     	;# 
   270     0089                     	;# 
   271     008C                     	;# 
   272     008D                     	;# 
   273     008E                     	;# 
   274     008F                     	;# 
   275     0090                     	;# 
   276     0091                     	;# 
   277     0092                     	;# 
   278     0093                     	;# 
   279     0093                     	;# 
   280     0093                     	;# 
   281     0094                     	;# 
   282     0095                     	;# 
   283     0096                     	;# 
   284     0097                     	;# 
   285     0098                     	;# 
   286     0099                     	;# 
   287     009A                     	;# 
   288     009B                     	;# 
   289     009C                     	;# 
   290     009D                     	;# 
   291     009E                     	;# 
   292     009F                     	;# 
   293     0105                     	;# 
   294     0107                     	;# 
   295     0108                     	;# 
   296     0109                     	;# 
   297     010C                     	;# 
   298     010C                     	;# 
   299     010D                     	;# 
   300     010E                     	;# 
   301     010F                     	;# 
   302     0185                     	;# 
   303     0187                     	;# 
   304     0188                     	;# 
   305     0189                     	;# 
   306     018C                     	;# 
   307     018D                     	;# 
   308     0008                     _PORTDbits	set	8
   309     001E                     _ADRESH	set	30
   310     001D                     _CCP2CONbits	set	29
   311     0012                     _T2CONbits	set	18
   312     0017                     _CCP1CONbits	set	23
   313     0017                     _CCP1CON	set	23
   314     001F                     _ADCON0bits	set	31
   315     000C                     _PIR1bits	set	12
   316     0008                     _PORTD	set	8
   317     0007                     _PORTC	set	7
   318     0005                     _PORTA	set	5
   319     001B                     _CCPR2L	set	27
   320     0015                     _CCPR1L	set	21
   321     0006                     _PORTBbits	set	6
   322     0007                     _PORTCbits	set	7
   323     0001                     _TMR0	set	1
   324     000B                     _INTCONbits	set	11
   325     005F                     _GIE	set	95
   326     0066                     _ADIF	set	102
   327     0092                     _TMR2ON	set	146
   328     0061                     _TMR2IF	set	97
   329     008F                     _OSCCONbits	set	143
   330     009E                     _ADRESL	set	158
   331     0092                     _PR2	set	146
   332     0087                     _TRISCbits	set	135
   333     009F                     _ADCON1bits	set	159
   334     0085                     _TRISAbits	set	133
   335     0081                     _OPTION_REGbits	set	129
   336     0095                     _WPUB	set	149
   337     0096                     _IOCB	set	150
   338     008C                     _PIE1bits	set	140
   339     0087                     _TRISC	set	135
   340     0088                     _TRISD	set	136
   341     010C                     _EEDAT	set	268
   342     010D                     _EEADR	set	269
   343     018D                     _EECON2	set	397
   344     018C                     _EECON1bits	set	396
   345     0188                     _ANSELbits	set	392
   346     0189                     _ANSELH	set	393
   347     0C60                     _RD	set	3168
   348     0C61                     _WR	set	3169
   349                           
   350                           	psect	cinit
   351     000F                     start_initialization:	
   352                           ; #config settings
   353                           
   354     000F                     __initialization:
   355                           
   356                           ; Clear objects allocated to COMMON
   357     000F  01F6               	clrf	__pbssCOMMON& (0+127)
   358     0010  01F7               	clrf	(__pbssCOMMON+1)& (0+127)
   359     0011  01F8               	clrf	(__pbssCOMMON+2)& (0+127)
   360     0012  01F9               	clrf	(__pbssCOMMON+3)& (0+127)
   361                           
   362                           ; Clear objects allocated to BANK0
   363     0013  1283               	bcf	3,5	;RP0=0, select bank0
   364     0014  1303               	bcf	3,6	;RP1=0, select bank0
   365     0015  01E9               	clrf	__pbssBANK0& (0+127)
   366     0016  01EA               	clrf	(__pbssBANK0+1)& (0+127)
   367     0017  01EB               	clrf	(__pbssBANK0+2)& (0+127)
   368     0018  01EC               	clrf	(__pbssBANK0+3)& (0+127)
   369     0019  01ED               	clrf	(__pbssBANK0+4)& (0+127)
   370     001A  01EE               	clrf	(__pbssBANK0+5)& (0+127)
   371                           
   372                           ; Clear objects allocated to BANK1
   373     001B  1383               	bcf	3,7	;select IRP bank0
   374     001C  30A0               	movlw	low __pbssBANK1
   375     001D  0084               	movwf	4
   376     001E  30B0               	movlw	low (__pbssBANK1+16)
   377     001F  120A  158A  2394  120A  118A  	fcall	clear_ram0
   378     0024                     end_of_initialization:	
   379                           ;End of C runtime variable initialization code
   380                           
   381     0024                     __end_of__initialization:
   382     0024  0183               	clrf	3
   383     0025  120A  118A  2DC5   	ljmp	_main	;jump to C main() function
   384                           
   385                           	psect	bssCOMMON
   386     0076                     __pbssCOMMON:
   387     0076                     _loc:
   388     0076                     	ds	2
   389     0078                     _position:
   390     0078                     	ds	2
   391                           
   392                           	psect	bssBANK0
   393     0069                     __pbssBANK0:
   394     0069                     _valDCH:
   395     0069                     	ds	2
   396     006B                     _valDCL:
   397     006B                     	ds	2
   398     006D                     _modo:
   399     006D                     	ds	2
   400                           
   401                           	psect	bssBANK1
   402     00A0                     __pbssBANK1:
   403     00A0                     _writeread:
   404     00A0                     	ds	2
   405     00A2                     _micro:
   406     00A2                     	ds	2
   407     00A4                     _pot1:
   408     00A4                     	ds	2
   409     00A6                     _pot:
   410     00A6                     	ds	2
   411     00A8                     _valDC:
   412     00A8                     	ds	2
   413     00AA                     _data:
   414     00AA                     	ds	1
   415     00AB                     _cont_sleep:
   416     00AB                     	ds	1
   417     00AC                     _cont:
   418     00AC                     	ds	1
   419     00AD                     _address:
   420     00AD                     	ds	1
   421     00AE                     _ADC_RES:
   422     00AE                     	ds	2
   423                           
   424                           	psect	clrtext
   425     0B94                     clear_ram0:	
   426                           ;	Called with FSR containing the base address, and
   427                           ;	W with the last address+1
   428                           
   429     0B94  0064               	clrwdt	;clear the watchdog before getting into this loop
   430     0B95                     clrloop0:
   431     0B95  0180               	clrf	0	;clear RAM location pointed to by FSR
   432     0B96  0A84               	incf	4,f	;increment pointer
   433     0B97  0604               	xorwf	4,w	;XOR with final address
   434     0B98  1903               	btfsc	3,2	;have we reached the end yet?
   435     0B99  3400               	retlw	0	;all done for this memory range, return
   436     0B9A  0604               	xorwf	4,w	;XOR again to restore value
   437     0B9B  2B95               	goto	clrloop0	;do the next byte
   438                           
   439                           	psect	cstackBANK1
   440     00B0                     __pcstackBANK1:
   441     00B0                     ??_mapeo:
   442                           
   443                           ; 1 bytes @ 0x0
   444     00B0                     	ds	5
   445     00B5                     ??_main:
   446                           
   447                           ; 1 bytes @ 0x5
   448     00B5                     	ds	2
   449                           
   450                           	psect	cstackCOMMON
   451     0070                     __pcstackCOMMON:
   452     0070                     ?_delay:
   453     0070                     ?_setup:	
   454                           ; 1 bytes @ 0x0
   455                           
   456     0070                     ?_setupINTOSC:	
   457                           ; 1 bytes @ 0x0
   458                           
   459     0070                     ?_setupADC:	
   460                           ; 1 bytes @ 0x0
   461                           
   462     0070                     ?_setupPWM:	
   463                           ; 1 bytes @ 0x0
   464                           
   465     0070                     ?_setupPWM2:	
   466                           ; 1 bytes @ 0x0
   467                           
   468     0070                     ?_setupTMR0:	
   469                           ; 1 bytes @ 0x0
   470                           
   471     0070                     ?_controlmotores:	
   472                           ; 1 bytes @ 0x0
   473                           
   474     0070                     ?_verifpos:	
   475                           ; 1 bytes @ 0x0
   476                           
   477     0070                     ?_readEEPROM:	
   478                           ; 1 bytes @ 0x0
   479                           
   480     0070                     ?_isr:	
   481                           ; 1 bytes @ 0x0
   482                           
   483     0070                     ?_main:	
   484                           ; 1 bytes @ 0x0
   485                           
   486     0070                     ?_mapeo:	
   487                           ; 1 bytes @ 0x0
   488                           
   489     0070                     delay@micro:	
   490                           ; 1 bytes @ 0x0
   491                           
   492                           
   493                           ; 2 bytes @ 0x0
   494     0070                     	ds	2
   495     0072                     ??_delay:
   496     0072                     ??_isr:	
   497                           ; 1 bytes @ 0x2
   498                           
   499                           
   500                           ; 1 bytes @ 0x2
   501     0072                     	ds	2
   502     0074                     ??_setup:
   503     0074                     ??_setupINTOSC:	
   504                           ; 1 bytes @ 0x4
   505                           
   506     0074                     ??_setupADC:	
   507                           ; 1 bytes @ 0x4
   508                           
   509     0074                     ??_setupPWM:	
   510                           ; 1 bytes @ 0x4
   511                           
   512     0074                     ??_setupPWM2:	
   513                           ; 1 bytes @ 0x4
   514                           
   515     0074                     ??_setupTMR0:	
   516                           ; 1 bytes @ 0x4
   517                           
   518     0074                     ??_verifpos:	
   519                           ; 1 bytes @ 0x4
   520                           
   521     0074                     ?_writeEEPROM:	
   522                           ; 1 bytes @ 0x4
   523                           
   524     0074                     ??_readEEPROM:	
   525                           ; 1 bytes @ 0x4
   526                           
   527     0074                     ??___wmul:	
   528                           ; 1 bytes @ 0x4
   529                           
   530     0074                     ?__Umul8_16:	
   531                           ; 1 bytes @ 0x4
   532                           
   533     0074                     readEEPROM@address:	
   534                           ; 2 bytes @ 0x4
   535                           
   536     0074                     writeEEPROM@data:	
   537                           ; 1 bytes @ 0x4
   538                           
   539     0074                     setupINTOSC@IRCF:	
   540                           ; 1 bytes @ 0x4
   541                           
   542     0074                     __Umul8_16@multiplicand:	
   543                           ; 1 bytes @ 0x4
   544                           
   545     0074                     ___wmul@product:	
   546                           ; 1 bytes @ 0x4
   547                           
   548                           
   549                           ; 2 bytes @ 0x4
   550     0074                     	ds	1
   551     0075                     ??_writeEEPROM:
   552                           
   553                           ; 1 bytes @ 0x5
   554     0075                     	ds	1
   555                           
   556                           	psect	cstackBANK0
   557     0020                     __pcstackBANK0:
   558     0020                     ??__Umul8_16:
   559     0020                     ?___wmul:	
   560                           ; 1 bytes @ 0x0
   561                           
   562     0020                     ?___xxtofl:	
   563                           ; 2 bytes @ 0x0
   564                           
   565     0020                     writeEEPROM@address:	
   566                           ; 4 bytes @ 0x0
   567                           
   568     0020                     ___wmul@multiplier:	
   569                           ; 1 bytes @ 0x0
   570                           
   571     0020                     ___xxtofl@val:	
   572                           ; 2 bytes @ 0x0
   573                           
   574                           
   575                           ; 4 bytes @ 0x0
   576     0020                     	ds	1
   577     0021                     writeEEPROM@gieStatus:
   578                           
   579                           ; 1 bytes @ 0x1
   580     0021                     	ds	1
   581     0022                     ___wmul@multiplicand:
   582     0022                     __Umul8_16@product:	
   583                           ; 2 bytes @ 0x2
   584                           
   585                           
   586                           ; 2 bytes @ 0x2
   587     0022                     	ds	2
   588     0024                     ??___xxtofl:
   589     0024                     ?___awdiv:	
   590                           ; 1 bytes @ 0x4
   591                           
   592     0024                     ___awdiv@divisor:	
   593                           ; 2 bytes @ 0x4
   594                           
   595     0024                     __Umul8_16@word_mpld:	
   596                           ; 2 bytes @ 0x4
   597                           
   598                           
   599                           ; 2 bytes @ 0x4
   600     0024                     	ds	2
   601     0026                     __Umul8_16@multiplier:
   602     0026                     ___awdiv@dividend:	
   603                           ; 1 bytes @ 0x6
   604                           
   605                           
   606                           ; 2 bytes @ 0x6
   607     0026                     	ds	2
   608     0028                     ??___awdiv:
   609     0028                     ___xxtofl@sign:	
   610                           ; 1 bytes @ 0x8
   611                           
   612                           
   613                           ; 1 bytes @ 0x8
   614     0028                     	ds	1
   615     0029                     ___awdiv@counter:
   616     0029                     ___xxtofl@exp:	
   617                           ; 1 bytes @ 0x9
   618                           
   619                           
   620                           ; 1 bytes @ 0x9
   621     0029                     	ds	1
   622     002A                     ___awdiv@sign:
   623     002A                     ___xxtofl@arg:	
   624                           ; 1 bytes @ 0xA
   625                           
   626                           
   627                           ; 4 bytes @ 0xA
   628     002A                     	ds	1
   629     002B                     ___awdiv@quotient:
   630                           
   631                           ; 2 bytes @ 0xB
   632     002B                     	ds	2
   633     002D                     ?_map:
   634     002D                     map@inputmin:	
   635                           ; 2 bytes @ 0xD
   636                           
   637                           
   638                           ; 2 bytes @ 0xD
   639     002D                     	ds	1
   640     002E                     ?___flmul:
   641     002E                     ___flmul@b:	
   642                           ; 4 bytes @ 0xE
   643                           
   644                           
   645                           ; 4 bytes @ 0xE
   646     002E                     	ds	1
   647     002F                     map@inputmax:
   648                           
   649                           ; 2 bytes @ 0xF
   650     002F                     	ds	2
   651     0031                     map@outmin:
   652                           
   653                           ; 2 bytes @ 0x11
   654     0031                     	ds	1
   655     0032                     ___flmul@a:
   656                           
   657                           ; 4 bytes @ 0x12
   658     0032                     	ds	1
   659     0033                     map@outmax:
   660                           
   661                           ; 2 bytes @ 0x13
   662     0033                     	ds	2
   663     0035                     ??_map:
   664                           
   665                           ; 1 bytes @ 0x15
   666     0035                     	ds	1
   667     0036                     ??___flmul:
   668     0036                     map@value:	
   669                           ; 1 bytes @ 0x16
   670                           
   671                           
   672                           ; 1 bytes @ 0x16
   673     0036                     	ds	5
   674     003B                     ___flmul@sign:
   675                           
   676                           ; 1 bytes @ 0x1B
   677     003B                     	ds	1
   678     003C                     ___flmul@aexp:
   679                           
   680                           ; 1 bytes @ 0x1C
   681     003C                     	ds	1
   682     003D                     ___flmul@grs:
   683                           
   684                           ; 4 bytes @ 0x1D
   685     003D                     	ds	4
   686     0041                     ___flmul@bexp:
   687                           
   688                           ; 1 bytes @ 0x21
   689     0041                     	ds	1
   690     0042                     ___flmul@prod:
   691                           
   692                           ; 4 bytes @ 0x22
   693     0042                     	ds	4
   694     0046                     ___flmul@temp:
   695                           
   696                           ; 2 bytes @ 0x26
   697     0046                     	ds	2
   698     0048                     ?___fladd:
   699     0048                     ___fladd@b:	
   700                           ; 4 bytes @ 0x28
   701                           
   702                           
   703                           ; 4 bytes @ 0x28
   704     0048                     	ds	4
   705     004C                     ___fladd@a:
   706                           
   707                           ; 4 bytes @ 0x2C
   708     004C                     	ds	4
   709     0050                     ??___fladd:
   710                           
   711                           ; 1 bytes @ 0x30
   712     0050                     	ds	8
   713     0058                     ___fladd@signs:
   714                           
   715                           ; 1 bytes @ 0x38
   716     0058                     	ds	1
   717     0059                     ___fladd@aexp:
   718                           
   719                           ; 1 bytes @ 0x39
   720     0059                     	ds	1
   721     005A                     ___fladd@bexp:
   722                           
   723                           ; 1 bytes @ 0x3A
   724     005A                     	ds	1
   725     005B                     ___fladd@grs:
   726                           
   727                           ; 1 bytes @ 0x3B
   728     005B                     	ds	1
   729     005C                     ?___fltol:
   730     005C                     ___fltol@f1:	
   731                           ; 4 bytes @ 0x3C
   732                           
   733                           
   734                           ; 4 bytes @ 0x3C
   735     005C                     	ds	4
   736     0060                     ??___fltol:
   737                           
   738                           ; 1 bytes @ 0x40
   739     0060                     	ds	4
   740     0064                     ___fltol@sign1:
   741                           
   742                           ; 1 bytes @ 0x44
   743     0064                     	ds	1
   744     0065                     ___fltol@exp1:
   745                           
   746                           ; 1 bytes @ 0x45
   747     0065                     	ds	1
   748     0066                     ??_controlmotores:
   749                           
   750                           ; 1 bytes @ 0x46
   751     0066                     	ds	3
   752                           
   753                           	psect	maintext
   754     05C5                     __pmaintext:	
   755 ;;
   756 ;;Main: autosize = 0, tempsize = 2, incstack = 0, save=0
   757 ;;
   758 ;; *************** function _main *****************
   759 ;; Defined at:
   760 ;;		line 110 in file "main.c"
   761 ;; Parameters:    Size  Location     Type
   762 ;;		None
   763 ;; Auto vars:     Size  Location     Type
   764 ;;		None
   765 ;; Return value:  Size  Location     Type
   766 ;;                  1    wreg      void 
   767 ;; Registers used:
   768 ;;		wreg, status,2, status,0, btemp+1, pclath, cstack
   769 ;; Tracked objects:
   770 ;;		On entry : B00/0
   771 ;;		On exit  : 0/0
   772 ;;		Unchanged: 0/0
   773 ;; Data sizes:     COMMON   BANK0   BANK1   BANK3   BANK2
   774 ;;      Params:         0       0       0       0       0
   775 ;;      Locals:         0       0       0       0       0
   776 ;;      Temps:          0       0       2       0       0
   777 ;;      Totals:         0       0       2       0       0
   778 ;;Total ram usage:        2 bytes
   779 ;; Hardware stack levels required when called: 6
   780 ;; This function calls:
   781 ;;		_controlmotores
   782 ;;		_readEEPROM
   783 ;;		_setup
   784 ;;		_setupADC
   785 ;;		_setupINTOSC
   786 ;;		_setupPWM
   787 ;;		_setupPWM2
   788 ;;		_setupTMR0
   789 ;;		_verifpos
   790 ;;		_writeEEPROM
   791 ;; This function is called by:
   792 ;;		Startup code after reset
   793 ;; This function uses a non-reentrant model
   794 ;;
   795                           
   796     05C5                     _main:	
   797                           ;psect for function _main
   798                           
   799     05C5                     l2865:	
   800                           ;incstack = 0
   801                           ; Regs used in _main: [wreg+status,2+status,0+btemp+1+pclath+cstack]
   802                           
   803                           
   804                           ;main.c: 112:     setup();
   805     05C5  120A  158A  23D4  120A  118A  	fcall	_setup
   806                           
   807                           ;main.c: 113:     setupINTOSC(3);
   808     05CA  3003               	movlw	3
   809     05CB  120A  158A  244E  120A  118A  	fcall	_setupINTOSC
   810                           
   811                           ;main.c: 114:     setupADC();
   812     05D0  120A  158A  24CA  120A  118A  	fcall	_setupADC
   813                           
   814                           ;main.c: 115:     setupPWM();
   815     05D5  120A  158A  2408  120A  118A  	fcall	_setupPWM
   816                           
   817                           ;main.c: 116:     setupPWM2();
   818     05DA  120A  158A  23EE  120A  118A  	fcall	_setupPWM2
   819                           
   820                           ;main.c: 117:     setupTMR0();
   821     05DF  120A  158A  239C  120A  118A  	fcall	_setupTMR0
   822     05E4                     l2867:
   823                           
   824                           ;main.c: 119:     modo = 0;
   825     05E4  1283               	bcf	3,5	;RP0=0, select bank0
   826     05E5  1303               	bcf	3,6	;RP1=0, select bank0
   827     05E6  01ED               	clrf	_modo
   828     05E7  01EE               	clrf	_modo+1
   829     05E8                     l2869:
   830                           
   831                           ;main.c: 120:     position = 0;
   832     05E8  01F8               	clrf	_position
   833     05E9  01F9               	clrf	_position+1
   834     05EA                     l2871:
   835                           
   836                           ;main.c: 124:        if(modo == 0){
   837     05EA  1283               	bcf	3,5	;RP0=0, select bank0
   838     05EB  1303               	bcf	3,6	;RP1=0, select bank0
   839     05EC  086D               	movf	_modo,w
   840     05ED  046E               	iorwf	_modo+1,w
   841     05EE  1D03               	btfss	3,2
   842     05EF  2DF1               	goto	u4091
   843     05F0  2DF2               	goto	u4090
   844     05F1                     u4091:
   845     05F1  2E65               	goto	l2907
   846     05F2                     u4090:
   847     05F2                     l2873:
   848                           
   849                           ;main.c: 125:             controlmotores();
   850     05F2  120A  118A  26E4  120A  118A  	fcall	_controlmotores
   851     05F7                     l2875:
   852                           
   853                           ;main.c: 126:             verifpos();
   854     05F7  120A  158A  24F7  120A  118A  	fcall	_verifpos
   855     05FC                     l2877:
   856                           
   857                           ;main.c: 127:             if (writeread == 1){
   858     05FC  1683               	bsf	3,5	;RP0=1, select bank1
   859     05FD  1303               	bcf	3,6	;RP1=0, select bank1
   860     05FE  0320               	decf	_writeread^(0+128),w
   861     05FF  0421               	iorwf	(_writeread+1)^(0+128),w
   862     0600  1D03               	btfss	3,2
   863     0601  2E03               	goto	u4101
   864     0602  2E04               	goto	u4100
   865     0603                     u4101:
   866     0603  2E5E               	goto	l166
   867     0604                     u4100:
   868     0604                     l2879:
   869                           
   870                           ;main.c: 128:                 writeread = 0;
   871     0604  01A0               	clrf	_writeread^(0+128)
   872     0605  01A1               	clrf	(_writeread+1)^(0+128)
   873     0606                     l2881:
   874                           
   875                           ;main.c: 129:                 PORTCbits.RC5 = 0;
   876     0606  1283               	bcf	3,5	;RP0=0, select bank0
   877     0607  1303               	bcf	3,6	;RP1=0, select bank0
   878     0608  1287               	bcf	7,5	;volatile
   879     0609                     l2883:
   880                           
   881                           ;main.c: 131:                 if (position == 0){
   882     0609  0878               	movf	_position,w
   883     060A  0479               	iorwf	_position+1,w
   884     060B  1D03               	btfss	3,2
   885     060C  2E0E               	goto	u4111
   886     060D  2E0F               	goto	u4110
   887     060E                     u4111:
   888     060E  2E12               	goto	l2887
   889     060F                     u4110:
   890     060F                     l2885:
   891                           
   892                           ;main.c: 132:                     loc = 0;}
   893     060F  01F6               	clrf	_loc
   894     0610  01F7               	clrf	_loc+1
   895     0611  2E35               	goto	l2899
   896     0612                     l2887:
   897     0612  0378               	decf	_position,w
   898     0613  0479               	iorwf	_position+1,w
   899     0614  1D03               	btfss	3,2
   900     0615  2E17               	goto	u4121
   901     0616  2E18               	goto	u4120
   902     0617                     u4121:
   903     0617  2E1D               	goto	l2891
   904     0618                     u4120:
   905     0618                     l2889:
   906                           
   907                           ;main.c: 134:                     loc = 4;}
   908     0618  3004               	movlw	4
   909     0619  00F6               	movwf	_loc
   910     061A  3000               	movlw	0
   911     061B  00F7               	movwf	_loc+1
   912     061C  2E35               	goto	l2899
   913     061D                     l2891:
   914     061D  3002               	movlw	2
   915     061E  0678               	xorwf	_position,w
   916     061F  0479               	iorwf	_position+1,w
   917     0620  1D03               	btfss	3,2
   918     0621  2E23               	goto	u4131
   919     0622  2E24               	goto	u4130
   920     0623                     u4131:
   921     0623  2E29               	goto	l2895
   922     0624                     u4130:
   923     0624                     l2893:
   924                           
   925                           ;main.c: 136:                     loc = 8;}
   926     0624  3008               	movlw	8
   927     0625  00F6               	movwf	_loc
   928     0626  3000               	movlw	0
   929     0627  00F7               	movwf	_loc+1
   930     0628  2E35               	goto	l2899
   931     0629                     l2895:
   932     0629  3003               	movlw	3
   933     062A  0678               	xorwf	_position,w
   934     062B  0479               	iorwf	_position+1,w
   935     062C  1D03               	btfss	3,2
   936     062D  2E2F               	goto	u4141
   937     062E  2E30               	goto	u4140
   938     062F                     u4141:
   939     062F  2E35               	goto	l170
   940     0630                     u4140:
   941     0630                     l2897:
   942                           
   943                           ;main.c: 138:                     loc = 12;}
   944     0630  300C               	movlw	12
   945     0631  00F6               	movwf	_loc
   946     0632  3000               	movlw	0
   947     0633  00F7               	movwf	_loc+1
   948     0634  2E35               	goto	l2899
   949     0635                     l170:
   950     0635                     l2899:
   951                           
   952                           ;main.c: 139:                 writeEEPROM(loc, CCPR1L);
   953     0635  0815               	movf	21,w	;volatile
   954     0636  00F4               	movwf	writeEEPROM@data
   955     0637  0876               	movf	_loc,w
   956     0638  120A  158A  249E  120A  118A  	fcall	_writeEEPROM
   957     063D                     l2901:
   958                           
   959                           ;main.c: 140:                 writeEEPROM((loc + 1), CCPR2L);
   960     063D  1283               	bcf	3,5	;RP0=0, select bank0
   961     063E  1303               	bcf	3,6	;RP1=0, select bank0
   962     063F  081B               	movf	27,w	;volatile
   963     0640  00F4               	movwf	writeEEPROM@data
   964     0641  0876               	movf	_loc,w
   965     0642  3E01               	addlw	1
   966     0643  120A  158A  249E  120A  118A  	fcall	_writeEEPROM
   967     0648                     l2903:
   968                           
   969                           ;main.c: 141:                 writeEEPROM((loc + 2), pot);
   970     0648  1683               	bsf	3,5	;RP0=1, select bank1
   971     0649  1303               	bcf	3,6	;RP1=0, select bank1
   972     064A  0826               	movf	_pot^(0+128),w
   973     064B  00F4               	movwf	writeEEPROM@data
   974     064C  0876               	movf	_loc,w
   975     064D  3E02               	addlw	2
   976     064E  120A  158A  249E  120A  118A  	fcall	_writeEEPROM
   977     0653                     l2905:
   978                           
   979                           ;main.c: 142:                 writeEEPROM((loc + 3), pot1);
   980     0653  1683               	bsf	3,5	;RP0=1, select bank1
   981     0654  1303               	bcf	3,6	;RP1=0, select bank1
   982     0655  0824               	movf	_pot1^(0+128),w
   983     0656  00F4               	movwf	writeEEPROM@data
   984     0657  0876               	movf	_loc,w
   985     0658  3E03               	addlw	3
   986     0659  120A  158A  249E  120A  118A  	fcall	_writeEEPROM
   987     065E                     l166:	
   988                           ;main.c: 143:             }
   989                           
   990                           
   991                           ;main.c: 144:             _delay((unsigned long)((100)*(500000/4000000.0)));
   992     065E  3003               	movlw	3
   993     065F  1683               	bsf	3,5	;RP0=1, select bank1
   994     0660  1303               	bcf	3,6	;RP1=0, select bank1
   995     0661  00B5               	movwf	??_main^(0+128)
   996     0662                     u4217:
   997     0662  0BB5               	decfsz	??_main^(0+128),f
   998     0663  2E62               	goto	u4217
   999                           
  1000                           ;main.c: 145:         }
  1001     0664  2EDA               	goto	l2941
  1002     0665                     l2907:
  1003     0665  036D               	decf	_modo,w
  1004     0666  046E               	iorwf	_modo+1,w
  1005     0667  1D03               	btfss	3,2
  1006     0668  2E6A               	goto	u4151
  1007     0669  2E6B               	goto	u4150
  1008     066A                     u4151:
  1009     066A  2EDA               	goto	l2941
  1010     066B                     u4150:
  1011     066B                     l2909:
  1012                           
  1013                           ;main.c: 147:            verifpos();
  1014     066B  120A  158A  24F7  120A  118A  	fcall	_verifpos
  1015     0670                     l2911:
  1016                           
  1017                           ;main.c: 148:            if (writeread == 1){
  1018     0670  1683               	bsf	3,5	;RP0=1, select bank1
  1019     0671  1303               	bcf	3,6	;RP1=0, select bank1
  1020     0672  0320               	decf	_writeread^(0+128),w
  1021     0673  0421               	iorwf	(_writeread+1)^(0+128),w
  1022     0674  1D03               	btfss	3,2
  1023     0675  2E77               	goto	u4161
  1024     0676  2E78               	goto	u4160
  1025     0677                     u4161:
  1026     0677  2EDA               	goto	l2941
  1027     0678                     u4160:
  1028     0678                     l2913:
  1029                           
  1030                           ;main.c: 149:                 writeread = 0;
  1031     0678  01A0               	clrf	_writeread^(0+128)
  1032     0679  01A1               	clrf	(_writeread+1)^(0+128)
  1033     067A                     l2915:
  1034                           
  1035                           ;main.c: 150:                 PORTCbits.RC5 = 0;
  1036     067A  1283               	bcf	3,5	;RP0=0, select bank0
  1037     067B  1303               	bcf	3,6	;RP1=0, select bank0
  1038     067C  1287               	bcf	7,5	;volatile
  1039     067D                     l2917:
  1040                           
  1041                           ;main.c: 152:                 if (position == 0){
  1042     067D  0878               	movf	_position,w
  1043     067E  0479               	iorwf	_position+1,w
  1044     067F  1D03               	btfss	3,2
  1045     0680  2E82               	goto	u4171
  1046     0681  2E83               	goto	u4170
  1047     0682                     u4171:
  1048     0682  2E86               	goto	l2921
  1049     0683                     u4170:
  1050     0683                     l2919:
  1051                           
  1052                           ;main.c: 153:                     loc = 0;}
  1053     0683  01F6               	clrf	_loc
  1054     0684  01F7               	clrf	_loc+1
  1055     0685  2EA9               	goto	l2933
  1056     0686                     l2921:
  1057     0686  0378               	decf	_position,w
  1058     0687  0479               	iorwf	_position+1,w
  1059     0688  1D03               	btfss	3,2
  1060     0689  2E8B               	goto	u4181
  1061     068A  2E8C               	goto	u4180
  1062     068B                     u4181:
  1063     068B  2E91               	goto	l2925
  1064     068C                     u4180:
  1065     068C                     l2923:
  1066                           
  1067                           ;main.c: 155:                     loc = 4;}
  1068     068C  3004               	movlw	4
  1069     068D  00F6               	movwf	_loc
  1070     068E  3000               	movlw	0
  1071     068F  00F7               	movwf	_loc+1
  1072     0690  2EA9               	goto	l2933
  1073     0691                     l2925:
  1074     0691  3002               	movlw	2
  1075     0692  0678               	xorwf	_position,w
  1076     0693  0479               	iorwf	_position+1,w
  1077     0694  1D03               	btfss	3,2
  1078     0695  2E97               	goto	u4191
  1079     0696  2E98               	goto	u4190
  1080     0697                     u4191:
  1081     0697  2E9D               	goto	l2929
  1082     0698                     u4190:
  1083     0698                     l2927:
  1084                           
  1085                           ;main.c: 157:                     loc = 8;}
  1086     0698  3008               	movlw	8
  1087     0699  00F6               	movwf	_loc
  1088     069A  3000               	movlw	0
  1089     069B  00F7               	movwf	_loc+1
  1090     069C  2EA9               	goto	l2933
  1091     069D                     l2929:
  1092     069D  3003               	movlw	3
  1093     069E  0678               	xorwf	_position,w
  1094     069F  0479               	iorwf	_position+1,w
  1095     06A0  1D03               	btfss	3,2
  1096     06A1  2EA3               	goto	u4201
  1097     06A2  2EA4               	goto	u4200
  1098     06A3                     u4201:
  1099     06A3  2EA9               	goto	l180
  1100     06A4                     u4200:
  1101     06A4                     l2931:
  1102                           
  1103                           ;main.c: 159:                     loc = 12;}
  1104     06A4  300C               	movlw	12
  1105     06A5  00F6               	movwf	_loc
  1106     06A6  3000               	movlw	0
  1107     06A7  00F7               	movwf	_loc+1
  1108     06A8  2EA9               	goto	l2933
  1109     06A9                     l180:
  1110     06A9                     l2933:
  1111                           
  1112                           ;main.c: 160:                 CCPR1L = readEEPROM(loc);
  1113     06A9  0876               	movf	_loc,w
  1114     06AA  120A  158A  23BD  120A  118A  	fcall	_readEEPROM
  1115     06AF  1283               	bcf	3,5	;RP0=0, select bank0
  1116     06B0  1303               	bcf	3,6	;RP1=0, select bank0
  1117     06B1  0095               	movwf	21	;volatile
  1118     06B2                     l2935:
  1119                           
  1120                           ;main.c: 161:                 CCPR2L = readEEPROM((loc+1));
  1121     06B2  0876               	movf	_loc,w
  1122     06B3  3E01               	addlw	1
  1123     06B4  120A  158A  23BD  120A  118A  	fcall	_readEEPROM
  1124     06B9  1283               	bcf	3,5	;RP0=0, select bank0
  1125     06BA  1303               	bcf	3,6	;RP1=0, select bank0
  1126     06BB  009B               	movwf	27	;volatile
  1127     06BC                     l2937:
  1128                           
  1129                           ;main.c: 162:                 pot = readEEPROM((loc+2));
  1130     06BC  0876               	movf	_loc,w
  1131     06BD  3E02               	addlw	2
  1132     06BE  120A  158A  23BD  120A  118A  	fcall	_readEEPROM
  1133     06C3  1683               	bsf	3,5	;RP0=1, select bank1
  1134     06C4  1303               	bcf	3,6	;RP1=0, select bank1
  1135     06C5  00B5               	movwf	??_main^(0+128)
  1136     06C6  01B6               	clrf	(??_main^(0+128)+1)
  1137     06C7  0835               	movf	??_main^(0+128),w
  1138     06C8  00A6               	movwf	_pot^(0+128)
  1139     06C9  0836               	movf	(??_main+1)^(0+128),w
  1140     06CA  00A7               	movwf	(_pot+1)^(0+128)
  1141     06CB                     l2939:
  1142                           
  1143                           ;main.c: 163:                 pot1 = readEEPROM((loc+3));
  1144     06CB  0876               	movf	_loc,w
  1145     06CC  3E03               	addlw	3
  1146     06CD  120A  158A  23BD  120A  118A  	fcall	_readEEPROM
  1147     06D2  1683               	bsf	3,5	;RP0=1, select bank1
  1148     06D3  1303               	bcf	3,6	;RP1=0, select bank1
  1149     06D4  00B5               	movwf	??_main^(0+128)
  1150     06D5  01B6               	clrf	(??_main^(0+128)+1)
  1151     06D6  0835               	movf	??_main^(0+128),w
  1152     06D7  00A4               	movwf	_pot1^(0+128)
  1153     06D8  0836               	movf	(??_main+1)^(0+128),w
  1154     06D9  00A5               	movwf	(_pot1+1)^(0+128)
  1155     06DA                     l2941:
  1156                           
  1157                           ;main.c: 166:         _delay((unsigned long)((100)*(500000/4000000.0)));
  1158     06DA  3003               	movlw	3
  1159     06DB  1683               	bsf	3,5	;RP0=1, select bank1
  1160     06DC  1303               	bcf	3,6	;RP1=0, select bank1
  1161     06DD  00B5               	movwf	??_main^(0+128)
  1162     06DE                     u4227:
  1163     06DE  0BB5               	decfsz	??_main^(0+128),f
  1164     06DF  2EDE               	goto	u4227
  1165     06E0  2DEA               	goto	l2871
  1166     06E1  120A  118A  280C   	ljmp	start
  1167     06E4                     __end_of_main:
  1168                           
  1169                           	psect	text1
  1170     0C9E                     __ptext1:	
  1171 ;; *************** function _writeEEPROM *****************
  1172 ;; Defined at:
  1173 ;;		line 359 in file "main.c"
  1174 ;; Parameters:    Size  Location     Type
  1175 ;;  address         1    wreg     unsigned char 
  1176 ;;  data            1    4[COMMON] unsigned char 
  1177 ;; Auto vars:     Size  Location     Type
  1178 ;;  address         1    0[BANK0 ] unsigned char 
  1179 ;;  gieStatus       1    1[BANK0 ] unsigned char 
  1180 ;; Return value:  Size  Location     Type
  1181 ;;                  1    wreg      void 
  1182 ;; Registers used:
  1183 ;;		wreg, status,2, status,0
  1184 ;; Tracked objects:
  1185 ;;		On entry : 0/0
  1186 ;;		On exit  : 0/0
  1187 ;;		Unchanged: 0/0
  1188 ;; Data sizes:     COMMON   BANK0   BANK1   BANK3   BANK2
  1189 ;;      Params:         1       0       0       0       0
  1190 ;;      Locals:         0       2       0       0       0
  1191 ;;      Temps:          0       0       0       0       0
  1192 ;;      Totals:         1       2       0       0       0
  1193 ;;Total ram usage:        3 bytes
  1194 ;; Hardware stack levels used: 1
  1195 ;; Hardware stack levels required when called: 2
  1196 ;; This function calls:
  1197 ;;		Nothing
  1198 ;; This function is called by:
  1199 ;;		_main
  1200 ;; This function uses a non-reentrant model
  1201 ;;
  1202                           
  1203     0C9E                     _writeEEPROM:	
  1204                           ;psect for function _writeEEPROM
  1205                           
  1206                           
  1207                           ;incstack = 0
  1208                           ; Regs used in _writeEEPROM: [wreg+status,2+status,0]
  1209                           ;writeEEPROM@address stored from wreg
  1210     0C9E  1283               	bcf	3,5	;RP0=0, select bank0
  1211     0C9F  1303               	bcf	3,6	;RP1=0, select bank0
  1212     0CA0  00A0               	movwf	writeEEPROM@address
  1213     0CA1                     l2843:
  1214     0CA1                     l243:	
  1215                           ;main.c: 360:     uint8_t gieStatus;;main.c: 361:     while (WR);
  1216                           
  1217     0CA1  1683               	bsf	3,5	;RP0=1, select bank3
  1218     0CA2  1703               	bsf	3,6	;RP1=1, select bank3
  1219     0CA3  188C               	btfsc	12,1	;volsfr
  1220     0CA4  2CA6               	goto	u4081
  1221     0CA5  2CA7               	goto	u4080
  1222     0CA6                     u4081:
  1223     0CA6  2CA1               	goto	l243
  1224     0CA7                     u4080:
  1225     0CA7                     l2845:
  1226                           
  1227                           ;main.c: 363:     EEADR = address;
  1228     0CA7  1283               	bcf	3,5	;RP0=0, select bank0
  1229     0CA8  1303               	bcf	3,6	;RP1=0, select bank0
  1230     0CA9  0820               	movf	writeEEPROM@address,w
  1231     0CAA  1283               	bcf	3,5	;RP0=0, select bank2
  1232     0CAB  1703               	bsf	3,6	;RP1=1, select bank2
  1233     0CAC  008D               	movwf	13	;volatile
  1234                           
  1235                           ;main.c: 364:     EEDAT = data;
  1236     0CAD  0874               	movf	writeEEPROM@data,w
  1237     0CAE  008C               	movwf	12	;volatile
  1238     0CAF                     l2847:
  1239                           
  1240                           ;main.c: 365:     EECON1bits.EEPGD = 0;
  1241     0CAF  1683               	bsf	3,5	;RP0=1, select bank3
  1242     0CB0  1703               	bsf	3,6	;RP1=1, select bank3
  1243     0CB1  138C               	bcf	12,7	;volsfr
  1244     0CB2                     l2849:
  1245                           
  1246                           ;main.c: 366:     EECON1bits.WREN = 1;
  1247     0CB2  150C               	bsf	12,2	;volsfr
  1248     0CB3                     l2851:
  1249                           
  1250                           ;main.c: 367:     gieStatus = GIE;
  1251     0CB3  3000               	movlw	0
  1252     0CB4  1B8B               	btfsc	11,7	;volatile
  1253     0CB5  3001               	movlw	1
  1254     0CB6  1283               	bcf	3,5	;RP0=0, select bank0
  1255     0CB7  1303               	bcf	3,6	;RP1=0, select bank0
  1256     0CB8  00A1               	movwf	writeEEPROM@gieStatus
  1257     0CB9                     l2853:
  1258                           
  1259                           ;main.c: 368:     INTCONbits.GIE = 0;
  1260     0CB9  138B               	bcf	11,7	;volatile
  1261     0CBA                     l2855:
  1262                           
  1263                           ;main.c: 369:     EECON2 = 0x55;
  1264     0CBA  3055               	movlw	85
  1265     0CBB  1683               	bsf	3,5	;RP0=1, select bank3
  1266     0CBC  1703               	bsf	3,6	;RP1=1, select bank3
  1267     0CBD  008D               	movwf	13	;volsfr
  1268     0CBE                     l2857:
  1269                           
  1270                           ;main.c: 370:     EECON2 = 0xAA;
  1271     0CBE  30AA               	movlw	170
  1272     0CBF  008D               	movwf	13	;volsfr
  1273     0CC0                     l2859:
  1274                           
  1275                           ;main.c: 371:     EECON1bits.WR = 1;
  1276     0CC0  148C               	bsf	12,1	;volsfr
  1277     0CC1                     l2861:
  1278                           
  1279                           ;main.c: 372:     EECON1bits.WREN = 0;
  1280     0CC1  110C               	bcf	12,2	;volsfr
  1281     0CC2                     l2863:
  1282                           
  1283                           ;main.c: 374:     INTCONbits.GIE = gieStatus;
  1284     0CC2  1283               	bcf	3,5	;RP0=0, select bank0
  1285     0CC3  1303               	bcf	3,6	;RP1=0, select bank0
  1286     0CC4  0C21               	rrf	writeEEPROM@gieStatus,w
  1287     0CC5  1C03               	skipc
  1288     0CC6  138B               	bcf	11,7	;volatile
  1289     0CC7  1803               	skipnc
  1290     0CC8  178B               	bsf	11,7	;volatile
  1291     0CC9                     l246:
  1292     0CC9  0008               	return
  1293     0CCA                     __end_of_writeEEPROM:
  1294                           
  1295                           	psect	text2
  1296     0CF7                     __ptext2:	
  1297 ;; *************** function _verifpos *****************
  1298 ;; Defined at:
  1299 ;;		line 380 in file "main.c"
  1300 ;; Parameters:    Size  Location     Type
  1301 ;;		None
  1302 ;; Auto vars:     Size  Location     Type
  1303 ;;		None
  1304 ;; Return value:  Size  Location     Type
  1305 ;;                  1    wreg      void 
  1306 ;; Registers used:
  1307 ;;		wreg, status,2, status,0
  1308 ;; Tracked objects:
  1309 ;;		On entry : 0/0
  1310 ;;		On exit  : 0/0
  1311 ;;		Unchanged: 0/0
  1312 ;; Data sizes:     COMMON   BANK0   BANK1   BANK3   BANK2
  1313 ;;      Params:         0       0       0       0       0
  1314 ;;      Locals:         0       0       0       0       0
  1315 ;;      Temps:          0       0       0       0       0
  1316 ;;      Totals:         0       0       0       0       0
  1317 ;;Total ram usage:        0 bytes
  1318 ;; Hardware stack levels used: 1
  1319 ;; Hardware stack levels required when called: 2
  1320 ;; This function calls:
  1321 ;;		Nothing
  1322 ;; This function is called by:
  1323 ;;		_main
  1324 ;; This function uses a non-reentrant model
  1325 ;;
  1326                           
  1327     0CF7                     _verifpos:	
  1328                           ;psect for function _verifpos
  1329                           
  1330     0CF7                     l2341:	
  1331                           ;incstack = 0
  1332                           ; Regs used in _verifpos: [wreg+status,2+status,0]
  1333                           
  1334                           
  1335                           ;main.c: 382:     if (position == 0){
  1336     0CF7  0878               	movf	_position,w
  1337     0CF8  0479               	iorwf	_position+1,w
  1338     0CF9  1D03               	btfss	3,2
  1339     0CFA  2CFC               	goto	u3031
  1340     0CFB  2CFD               	goto	u3030
  1341     0CFC                     u3031:
  1342     0CFC  2D02               	goto	l2345
  1343     0CFD                     u3030:
  1344     0CFD                     l2343:
  1345                           
  1346                           ;main.c: 383:         PORTDbits.RD2 = 0;
  1347     0CFD  1283               	bcf	3,5	;RP0=0, select bank0
  1348     0CFE  1303               	bcf	3,6	;RP1=0, select bank0
  1349     0CFF  1108               	bcf	8,2	;volatile
  1350                           
  1351                           ;main.c: 384:         PORTDbits.RD3 = 0;}
  1352     0D00  1188               	bcf	8,3	;volatile
  1353     0D01  2D25               	goto	l2357
  1354     0D02                     l2345:
  1355     0D02  0378               	decf	_position,w
  1356     0D03  0479               	iorwf	_position+1,w
  1357     0D04  1D03               	btfss	3,2
  1358     0D05  2D07               	goto	u3041
  1359     0D06  2D08               	goto	u3040
  1360     0D07                     u3041:
  1361     0D07  2D0D               	goto	l2349
  1362     0D08                     u3040:
  1363     0D08                     l2347:
  1364                           
  1365                           ;main.c: 386:         PORTDbits.RD2 = 1;
  1366     0D08  1283               	bcf	3,5	;RP0=0, select bank0
  1367     0D09  1303               	bcf	3,6	;RP1=0, select bank0
  1368     0D0A  1508               	bsf	8,2	;volatile
  1369                           
  1370                           ;main.c: 387:         PORTDbits.RD3 = 0;}
  1371     0D0B  1188               	bcf	8,3	;volatile
  1372     0D0C  2D25               	goto	l2357
  1373     0D0D                     l2349:
  1374     0D0D  3002               	movlw	2
  1375     0D0E  0678               	xorwf	_position,w
  1376     0D0F  0479               	iorwf	_position+1,w
  1377     0D10  1D03               	btfss	3,2
  1378     0D11  2D13               	goto	u3051
  1379     0D12  2D14               	goto	u3050
  1380     0D13                     u3051:
  1381     0D13  2D19               	goto	l2353
  1382     0D14                     u3050:
  1383     0D14                     l2351:
  1384                           
  1385                           ;main.c: 389:         PORTDbits.RD2 = 0;
  1386     0D14  1283               	bcf	3,5	;RP0=0, select bank0
  1387     0D15  1303               	bcf	3,6	;RP1=0, select bank0
  1388     0D16  1108               	bcf	8,2	;volatile
  1389                           
  1390                           ;main.c: 390:         PORTDbits.RD3 = 1;}
  1391     0D17  1588               	bsf	8,3	;volatile
  1392     0D18  2D25               	goto	l2357
  1393     0D19                     l2353:
  1394     0D19  3003               	movlw	3
  1395     0D1A  0678               	xorwf	_position,w
  1396     0D1B  0479               	iorwf	_position+1,w
  1397     0D1C  1D03               	btfss	3,2
  1398     0D1D  2D1F               	goto	u3061
  1399     0D1E  2D20               	goto	u3060
  1400     0D1F                     u3061:
  1401     0D1F  2D25               	goto	l252
  1402     0D20                     u3060:
  1403     0D20                     l2355:
  1404                           
  1405                           ;main.c: 392:         PORTDbits.RD2 = 1;
  1406     0D20  1283               	bcf	3,5	;RP0=0, select bank0
  1407     0D21  1303               	bcf	3,6	;RP1=0, select bank0
  1408     0D22  1508               	bsf	8,2	;volatile
  1409                           
  1410                           ;main.c: 393:         PORTDbits.RD3 = 1;}
  1411     0D23  1588               	bsf	8,3	;volatile
  1412     0D24  2D25               	goto	l2357
  1413     0D25                     l252:
  1414     0D25                     l2357:
  1415                           
  1416                           ;main.c: 395:     if (modo == 0){
  1417     0D25  1283               	bcf	3,5	;RP0=0, select bank0
  1418     0D26  1303               	bcf	3,6	;RP1=0, select bank0
  1419     0D27  086D               	movf	_modo,w
  1420     0D28  046E               	iorwf	_modo+1,w
  1421     0D29  1D03               	btfss	3,2
  1422     0D2A  2D2C               	goto	u3071
  1423     0D2B  2D2D               	goto	u3070
  1424     0D2C                     u3071:
  1425     0D2C  2D31               	goto	l2361
  1426     0D2D                     u3070:
  1427     0D2D                     l2359:
  1428                           
  1429                           ;main.c: 396:         PORTDbits.RD0 = 1;
  1430     0D2D  1408               	bsf	8,0	;volatile
  1431                           
  1432                           ;main.c: 397:         PORTDbits.RD1 = 0;
  1433     0D2E  1088               	bcf	8,1	;volatile
  1434                           
  1435                           ;main.c: 398:         PORTCbits.RC4 = 0;}
  1436     0D2F  1207               	bcf	7,4	;volatile
  1437     0D30  2D45               	goto	l261
  1438     0D31                     l2361:
  1439     0D31  036D               	decf	_modo,w
  1440     0D32  046E               	iorwf	_modo+1,w
  1441     0D33  1D03               	btfss	3,2
  1442     0D34  2D36               	goto	u3081
  1443     0D35  2D37               	goto	u3080
  1444     0D36                     u3081:
  1445     0D36  2D3B               	goto	l2365
  1446     0D37                     u3080:
  1447     0D37                     l2363:
  1448                           
  1449                           ;main.c: 400:         PORTDbits.RD0 = 0;
  1450     0D37  1008               	bcf	8,0	;volatile
  1451                           
  1452                           ;main.c: 401:         PORTDbits.RD1 = 1;
  1453     0D38  1488               	bsf	8,1	;volatile
  1454                           
  1455                           ;main.c: 402:         PORTCbits.RC4 = 0;}
  1456     0D39  1207               	bcf	7,4	;volatile
  1457     0D3A  2D45               	goto	l261
  1458     0D3B                     l2365:
  1459     0D3B  3002               	movlw	2
  1460     0D3C  066D               	xorwf	_modo,w
  1461     0D3D  046E               	iorwf	_modo+1,w
  1462     0D3E  1D03               	btfss	3,2
  1463     0D3F  2D41               	goto	u3091
  1464     0D40  2D42               	goto	u3090
  1465     0D41                     u3091:
  1466     0D41  2D45               	goto	l261
  1467     0D42                     u3090:
  1468     0D42                     l2367:
  1469                           
  1470                           ;main.c: 404:         PORTDbits.RD0 = 0;
  1471     0D42  1008               	bcf	8,0	;volatile
  1472                           
  1473                           ;main.c: 405:         PORTDbits.RD1 = 0;
  1474     0D43  1088               	bcf	8,1	;volatile
  1475                           
  1476                           ;main.c: 406:         PORTCbits.RC4 = 1;}
  1477     0D44  1607               	bsf	7,4	;volatile
  1478     0D45                     l261:
  1479     0D45  0008               	return
  1480     0D46                     __end_of_verifpos:
  1481                           
  1482                           	psect	text3
  1483     0B9C                     __ptext3:	
  1484 ;; *************** function _setupTMR0 *****************
  1485 ;; Defined at:
  1486 ;;		line 259 in file "main.c"
  1487 ;; Parameters:    Size  Location     Type
  1488 ;;		None
  1489 ;; Auto vars:     Size  Location     Type
  1490 ;;		None
  1491 ;; Return value:  Size  Location     Type
  1492 ;;                  1    wreg      void 
  1493 ;; Registers used:
  1494 ;;		wreg, status,2, status,0
  1495 ;; Tracked objects:
  1496 ;;		On entry : 0/0
  1497 ;;		On exit  : 0/0
  1498 ;;		Unchanged: 0/0
  1499 ;; Data sizes:     COMMON   BANK0   BANK1   BANK3   BANK2
  1500 ;;      Params:         0       0       0       0       0
  1501 ;;      Locals:         0       0       0       0       0
  1502 ;;      Temps:          0       0       0       0       0
  1503 ;;      Totals:         0       0       0       0       0
  1504 ;;Total ram usage:        0 bytes
  1505 ;; Hardware stack levels used: 1
  1506 ;; Hardware stack levels required when called: 2
  1507 ;; This function calls:
  1508 ;;		Nothing
  1509 ;; This function is called by:
  1510 ;;		_main
  1511 ;; This function uses a non-reentrant model
  1512 ;;
  1513                           
  1514     0B9C                     _setupTMR0:	
  1515                           ;psect for function _setupTMR0
  1516                           
  1517     0B9C                     l2285:	
  1518                           ;incstack = 0
  1519                           ; Regs used in _setupTMR0: [wreg+status,2+status,0]
  1520                           
  1521                           
  1522                           ;main.c: 260:     INTCONbits.GIE = 1;
  1523     0B9C  178B               	bsf	11,7	;volatile
  1524                           
  1525                           ;main.c: 261:     INTCONbits.T0IE = 1;
  1526     0B9D  168B               	bsf	11,5	;volatile
  1527                           
  1528                           ;main.c: 262:     INTCONbits.T0IF = 0;
  1529     0B9E  110B               	bcf	11,2	;volatile
  1530                           
  1531                           ;main.c: 264:     OPTION_REGbits.T0CS = 0;
  1532     0B9F  1683               	bsf	3,5	;RP0=1, select bank1
  1533     0BA0  1303               	bcf	3,6	;RP1=0, select bank1
  1534     0BA1  1281               	bcf	1,5	;volatile
  1535                           
  1536                           ;main.c: 265:     OPTION_REGbits.PSA = 0;
  1537     0BA2  1181               	bcf	1,3	;volatile
  1538     0BA3                     l2287:
  1539                           
  1540                           ;main.c: 266:     OPTION_REGbits.PS = 0b011;
  1541     0BA3  0801               	movf	1,w	;volatile
  1542     0BA4  39F8               	andlw	-8
  1543     0BA5  3803               	iorlw	3
  1544     0BA6  0081               	movwf	1	;volatile
  1545     0BA7                     l2289:
  1546                           
  1547                           ;main.c: 267:     TMR0 = 99;
  1548     0BA7  3063               	movlw	99
  1549     0BA8  1283               	bcf	3,5	;RP0=0, select bank0
  1550     0BA9  1303               	bcf	3,6	;RP1=0, select bank0
  1551     0BAA  0081               	movwf	1	;volatile
  1552     0BAB                     l207:
  1553     0BAB  0008               	return
  1554     0BAC                     __end_of_setupTMR0:
  1555                           
  1556                           	psect	text4
  1557     0BEE                     __ptext4:	
  1558 ;; *************** function _setupPWM2 *****************
  1559 ;; Defined at:
  1560 ;;		line 239 in file "main.c"
  1561 ;; Parameters:    Size  Location     Type
  1562 ;;		None
  1563 ;; Auto vars:     Size  Location     Type
  1564 ;;		None
  1565 ;; Return value:  Size  Location     Type
  1566 ;;                  1    wreg      void 
  1567 ;; Registers used:
  1568 ;;		wreg, status,2, status,0
  1569 ;; Tracked objects:
  1570 ;;		On entry : 0/0
  1571 ;;		On exit  : 0/0
  1572 ;;		Unchanged: 0/0
  1573 ;; Data sizes:     COMMON   BANK0   BANK1   BANK3   BANK2
  1574 ;;      Params:         0       0       0       0       0
  1575 ;;      Locals:         0       0       0       0       0
  1576 ;;      Temps:          0       0       0       0       0
  1577 ;;      Totals:         0       0       0       0       0
  1578 ;;Total ram usage:        0 bytes
  1579 ;; Hardware stack levels used: 1
  1580 ;; Hardware stack levels required when called: 2
  1581 ;; This function calls:
  1582 ;;		Nothing
  1583 ;; This function is called by:
  1584 ;;		_main
  1585 ;; This function uses a non-reentrant model
  1586 ;;
  1587                           
  1588     0BEE                     _setupPWM2:	
  1589                           ;psect for function _setupPWM2
  1590                           
  1591     0BEE                     l2271:	
  1592                           ;incstack = 0
  1593                           ; Regs used in _setupPWM2: [wreg+status,2+status,0]
  1594                           
  1595                           
  1596                           ;main.c: 241:     TRISCbits.TRISC1 = 1;
  1597     0BEE  1683               	bsf	3,5	;RP0=1, select bank1
  1598     0BEF  1303               	bcf	3,6	;RP1=0, select bank1
  1599     0BF0  1487               	bsf	7,1	;volatile
  1600     0BF1                     l2273:
  1601                           
  1602                           ;main.c: 243:     PR2 = 155;
  1603     0BF1  309B               	movlw	155
  1604     0BF2  0092               	movwf	18	;volatile
  1605     0BF3                     l2275:
  1606                           
  1607                           ;main.c: 245:     CCP2CONbits.CCP2M = 0b1111;
  1608     0BF3  300F               	movlw	15
  1609     0BF4  1283               	bcf	3,5	;RP0=0, select bank0
  1610     0BF5  1303               	bcf	3,6	;RP1=0, select bank0
  1611     0BF6  049D               	iorwf	29,f	;volatile
  1612     0BF7                     l2277:
  1613                           
  1614                           ;main.c: 247:     CCP2CONbits.DC2B1 = valDCL;
  1615     0BF7  0C6B               	rrf	_valDCL,w
  1616     0BF8  1C03               	skipc
  1617     0BF9  129D               	bcf	29,5	;volatile
  1618     0BFA  1803               	skipnc
  1619     0BFB  169D               	bsf	29,5	;volatile
  1620     0BFC                     l2279:
  1621                           
  1622                           ;main.c: 248:     CCP2CONbits.DC2B0 = 0b1;
  1623     0BFC  161D               	bsf	29,4	;volatile
  1624     0BFD                     l2281:
  1625                           
  1626                           ;main.c: 249:     CCPR2L = valDCH;
  1627     0BFD  0869               	movf	_valDCH,w
  1628     0BFE  009B               	movwf	27	;volatile
  1629     0BFF                     l2283:
  1630                           
  1631                           ;main.c: 251:     TMR2IF = 0;
  1632     0BFF  108C               	bcf	12,1	;volatile
  1633     0C00                     l201:	
  1634                           ;main.c: 253:     while(!TMR2IF);
  1635                           
  1636     0C00  1C8C               	btfss	12,1	;volatile
  1637     0C01  2C03               	goto	u2981
  1638     0C02  2C04               	goto	u2980
  1639     0C03                     u2981:
  1640     0C03  2C00               	goto	l201
  1641     0C04                     u2980:
  1642     0C04                     l203:
  1643                           
  1644                           ;main.c: 254:     TRISCbits.TRISC1 = 0;
  1645     0C04  1683               	bsf	3,5	;RP0=1, select bank1
  1646     0C05  1303               	bcf	3,6	;RP1=0, select bank1
  1647     0C06  1087               	bcf	7,1	;volatile
  1648     0C07                     l204:
  1649     0C07  0008               	return
  1650     0C08                     __end_of_setupPWM2:
  1651                           
  1652                           	psect	text5
  1653     0C08                     __ptext5:	
  1654 ;; *************** function _setupPWM *****************
  1655 ;; Defined at:
  1656 ;;		line 221 in file "main.c"
  1657 ;; Parameters:    Size  Location     Type
  1658 ;;		None
  1659 ;; Auto vars:     Size  Location     Type
  1660 ;;		None
  1661 ;; Return value:  Size  Location     Type
  1662 ;;                  1    wreg      void 
  1663 ;; Registers used:
  1664 ;;		wreg, status,2, status,0
  1665 ;; Tracked objects:
  1666 ;;		On entry : 0/0
  1667 ;;		On exit  : 0/0
  1668 ;;		Unchanged: 0/0
  1669 ;; Data sizes:     COMMON   BANK0   BANK1   BANK3   BANK2
  1670 ;;      Params:         0       0       0       0       0
  1671 ;;      Locals:         0       0       0       0       0
  1672 ;;      Temps:          1       0       0       0       0
  1673 ;;      Totals:         1       0       0       0       0
  1674 ;;Total ram usage:        1 bytes
  1675 ;; Hardware stack levels used: 1
  1676 ;; Hardware stack levels required when called: 2
  1677 ;; This function calls:
  1678 ;;		Nothing
  1679 ;; This function is called by:
  1680 ;;		_main
  1681 ;; This function uses a non-reentrant model
  1682 ;;
  1683                           
  1684     0C08                     _setupPWM:	
  1685                           ;psect for function _setupPWM
  1686                           
  1687     0C08                     l2259:	
  1688                           ;incstack = 0
  1689                           ; Regs used in _setupPWM: [wreg+status,2+status,0]
  1690                           
  1691                           
  1692                           ;main.c: 223:     TRISCbits.TRISC2 = 1;
  1693     0C08  1683               	bsf	3,5	;RP0=1, select bank1
  1694     0C09  1303               	bcf	3,6	;RP1=0, select bank1
  1695     0C0A  1507               	bsf	7,2	;volatile
  1696     0C0B                     l2261:
  1697                           
  1698                           ;main.c: 225:     PR2 = 155;
  1699     0C0B  309B               	movlw	155
  1700     0C0C  0092               	movwf	18	;volatile
  1701                           
  1702                           ;main.c: 227:     CCP1CON = 0b00001100;
  1703     0C0D  300C               	movlw	12
  1704     0C0E  1283               	bcf	3,5	;RP0=0, select bank0
  1705     0C0F  1303               	bcf	3,6	;RP1=0, select bank0
  1706     0C10  0097               	movwf	23	;volatile
  1707     0C11                     l2263:
  1708                           
  1709                           ;main.c: 229:     CCP1CONbits.DC1B = valDCL;
  1710     0C11  086B               	movf	_valDCL,w
  1711     0C12  00F4               	movwf	??_setupPWM
  1712     0C13  0EF4               	swapf	??_setupPWM,f
  1713     0C14  0817               	movf	23,w	;volatile
  1714     0C15  0674               	xorwf	??_setupPWM,w
  1715     0C16  39CF               	andlw	-49
  1716     0C17  0674               	xorwf	??_setupPWM,w
  1717     0C18  0097               	movwf	23	;volatile
  1718     0C19                     l2265:
  1719                           
  1720                           ;main.c: 230:     CCPR1L = valDCH ;
  1721     0C19  0869               	movf	_valDCH,w
  1722     0C1A  0095               	movwf	21	;volatile
  1723     0C1B                     l2267:
  1724                           
  1725                           ;main.c: 232:     TMR2IF = 0;
  1726     0C1B  108C               	bcf	12,1	;volatile
  1727                           
  1728                           ;main.c: 233:     T2CONbits.T2CKPS = 0b11;
  1729     0C1C  3003               	movlw	3
  1730     0C1D  0492               	iorwf	18,f	;volatile
  1731     0C1E                     l2269:
  1732                           
  1733                           ;main.c: 234:     TMR2ON = 1;
  1734     0C1E  1512               	bsf	18,2	;volatile
  1735     0C1F                     l195:	
  1736                           ;main.c: 236:     while(!TMR2IF);
  1737                           
  1738     0C1F  1C8C               	btfss	12,1	;volatile
  1739     0C20  2C22               	goto	u2971
  1740     0C21  2C23               	goto	u2970
  1741     0C22                     u2971:
  1742     0C22  2C1F               	goto	l195
  1743     0C23                     u2970:
  1744     0C23                     l197:
  1745                           
  1746                           ;main.c: 237:     TRISCbits.TRISC2 = 0;
  1747     0C23  1683               	bsf	3,5	;RP0=1, select bank1
  1748     0C24  1303               	bcf	3,6	;RP1=0, select bank1
  1749     0C25  1107               	bcf	7,2	;volatile
  1750     0C26                     l198:
  1751     0C26  0008               	return
  1752     0C27                     __end_of_setupPWM:
  1753                           
  1754                           	psect	text6
  1755     0C4E                     __ptext6:	
  1756 ;; *************** function _setupINTOSC *****************
  1757 ;; Defined at:
  1758 ;;		line 14 in file "oscilador.c"
  1759 ;; Parameters:    Size  Location     Type
  1760 ;;  IRCF            1    wreg     unsigned char 
  1761 ;; Auto vars:     Size  Location     Type
  1762 ;;  IRCF            1    4[COMMON] unsigned char 
  1763 ;; Return value:  Size  Location     Type
  1764 ;;                  1    wreg      void 
  1765 ;; Registers used:
  1766 ;;		wreg, status,2, status,0
  1767 ;; Tracked objects:
  1768 ;;		On entry : 0/0
  1769 ;;		On exit  : 0/0
  1770 ;;		Unchanged: 0/0
  1771 ;; Data sizes:     COMMON   BANK0   BANK1   BANK3   BANK2
  1772 ;;      Params:         0       0       0       0       0
  1773 ;;      Locals:         1       0       0       0       0
  1774 ;;      Temps:          0       0       0       0       0
  1775 ;;      Totals:         1       0       0       0       0
  1776 ;;Total ram usage:        1 bytes
  1777 ;; Hardware stack levels used: 1
  1778 ;; Hardware stack levels required when called: 2
  1779 ;; This function calls:
  1780 ;;		Nothing
  1781 ;; This function is called by:
  1782 ;;		_main
  1783 ;; This function uses a non-reentrant model
  1784 ;;
  1785                           
  1786     0C4E                     _setupINTOSC:	
  1787                           ;psect for function _setupINTOSC
  1788                           
  1789                           
  1790                           ;incstack = 0
  1791                           ; Regs used in _setupINTOSC: [wreg+status,2+status,0]
  1792                           ;setupINTOSC@IRCF stored from wreg
  1793     0C4E  00F4               	movwf	setupINTOSC@IRCF
  1794     0C4F                     l2217:
  1795                           
  1796                           ;oscilador.c: 17:     if(IRCF == 7){
  1797     0C4F  3007               	movlw	7
  1798     0C50  0674               	xorwf	setupINTOSC@IRCF,w
  1799     0C51  1D03               	btfss	3,2
  1800     0C52  2C54               	goto	u2941
  1801     0C53  2C55               	goto	u2940
  1802     0C54                     u2941:
  1803     0C54  2C59               	goto	l266
  1804     0C55                     u2940:
  1805     0C55                     l2219:
  1806                           
  1807                           ;oscilador.c: 18:         OSCCONbits.IRCF = 0b111;
  1808     0C55  3070               	movlw	112
  1809     0C56  1683               	bsf	3,5	;RP0=1, select bank1
  1810     0C57  1303               	bcf	3,6	;RP1=0, select bank1
  1811     0C58  048F               	iorwf	15,f	;volatile
  1812     0C59                     l266:	
  1813                           ;oscilador.c: 19:     }
  1814                           
  1815                           
  1816                           ;oscilador.c: 20:     if(IRCF == 6){
  1817     0C59  3006               	movlw	6
  1818     0C5A  0674               	xorwf	setupINTOSC@IRCF,w
  1819     0C5B  1D03               	btfss	3,2
  1820     0C5C  2C5E               	goto	u2951
  1821     0C5D  2C5F               	goto	u2950
  1822     0C5E                     u2951:
  1823     0C5E  2C65               	goto	l267
  1824     0C5F                     u2950:
  1825     0C5F                     l2221:
  1826                           
  1827                           ;oscilador.c: 21:         OSCCONbits.IRCF = 0b110;
  1828     0C5F  1683               	bsf	3,5	;RP0=1, select bank1
  1829     0C60  1303               	bcf	3,6	;RP1=0, select bank1
  1830     0C61  080F               	movf	15,w	;volatile
  1831     0C62  398F               	andlw	-113
  1832     0C63  3860               	iorlw	96
  1833     0C64  008F               	movwf	15	;volatile
  1834     0C65                     l267:	
  1835                           ;oscilador.c: 22:     }
  1836                           
  1837                           
  1838                           ;oscilador.c: 23:     if(IRCF == 3){
  1839     0C65  3003               	movlw	3
  1840     0C66  0674               	xorwf	setupINTOSC@IRCF,w
  1841     0C67  1D03               	btfss	3,2
  1842     0C68  2C6A               	goto	u2961
  1843     0C69  2C6B               	goto	u2960
  1844     0C6A                     u2961:
  1845     0C6A  2C71               	goto	l2225
  1846     0C6B                     u2960:
  1847     0C6B                     l2223:
  1848                           
  1849                           ;oscilador.c: 24:         OSCCONbits.IRCF = 0b011;
  1850     0C6B  1683               	bsf	3,5	;RP0=1, select bank1
  1851     0C6C  1303               	bcf	3,6	;RP1=0, select bank1
  1852     0C6D  080F               	movf	15,w	;volatile
  1853     0C6E  398F               	andlw	-113
  1854     0C6F  3830               	iorlw	48
  1855     0C70  008F               	movwf	15	;volatile
  1856     0C71                     l2225:
  1857                           
  1858                           ;oscilador.c: 27:     OSCCONbits.SCS = 1;
  1859     0C71  1683               	bsf	3,5	;RP0=1, select bank1
  1860     0C72  1303               	bcf	3,6	;RP1=0, select bank1
  1861     0C73  140F               	bsf	15,0	;volatile
  1862     0C74                     l269:
  1863     0C74  0008               	return
  1864     0C75                     __end_of_setupINTOSC:
  1865                           
  1866                           	psect	text7
  1867     0CCA                     __ptext7:	
  1868 ;; *************** function _setupADC *****************
  1869 ;; Defined at:
  1870 ;;		line 191 in file "main.c"
  1871 ;; Parameters:    Size  Location     Type
  1872 ;;		None
  1873 ;; Auto vars:     Size  Location     Type
  1874 ;;		None
  1875 ;; Return value:  Size  Location     Type
  1876 ;;                  1    wreg      void 
  1877 ;; Registers used:
  1878 ;;		wreg, status,2
  1879 ;; Tracked objects:
  1880 ;;		On entry : 0/0
  1881 ;;		On exit  : 0/0
  1882 ;;		Unchanged: 0/0
  1883 ;; Data sizes:     COMMON   BANK0   BANK1   BANK3   BANK2
  1884 ;;      Params:         0       0       0       0       0
  1885 ;;      Locals:         0       0       0       0       0
  1886 ;;      Temps:          1       0       0       0       0
  1887 ;;      Totals:         1       0       0       0       0
  1888 ;;Total ram usage:        1 bytes
  1889 ;; Hardware stack levels used: 1
  1890 ;; Hardware stack levels required when called: 2
  1891 ;; This function calls:
  1892 ;;		Nothing
  1893 ;; This function is called by:
  1894 ;;		_main
  1895 ;; This function uses a non-reentrant model
  1896 ;;
  1897                           
  1898     0CCA                     _setupADC:	
  1899                           ;psect for function _setupADC
  1900                           
  1901     0CCA                     l2227:	
  1902                           ;incstack = 0
  1903                           ; Regs used in _setupADC: [wreg+status,2]
  1904                           
  1905                           
  1906                           ;main.c: 194:     ANSELH = 0;
  1907     0CCA  1683               	bsf	3,5	;RP0=1, select bank3
  1908     0CCB  1703               	bsf	3,6	;RP1=1, select bank3
  1909     0CCC  0189               	clrf	9	;volatile
  1910     0CCD                     l2229:
  1911                           
  1912                           ;main.c: 195:     TRISAbits.TRISA5 = 1;
  1913     0CCD  1683               	bsf	3,5	;RP0=1, select bank1
  1914     0CCE  1303               	bcf	3,6	;RP1=0, select bank1
  1915     0CCF  1685               	bsf	5,5	;volatile
  1916     0CD0                     l2231:
  1917                           
  1918                           ;main.c: 196:     ANSELbits.ANS5 = 1;
  1919     0CD0  1683               	bsf	3,5	;RP0=1, select bank3
  1920     0CD1  1703               	bsf	3,6	;RP1=1, select bank3
  1921     0CD2  1688               	bsf	8,5	;volatile
  1922     0CD3                     l2233:
  1923                           
  1924                           ;main.c: 197:     TRISAbits.TRISA1 = 1;
  1925     0CD3  1683               	bsf	3,5	;RP0=1, select bank1
  1926     0CD4  1303               	bcf	3,6	;RP1=0, select bank1
  1927     0CD5  1485               	bsf	5,1	;volatile
  1928     0CD6                     l2235:
  1929                           
  1930                           ;main.c: 198:     ANSELbits.ANS1 = 1;
  1931     0CD6  1683               	bsf	3,5	;RP0=1, select bank3
  1932     0CD7  1703               	bsf	3,6	;RP1=1, select bank3
  1933     0CD8  1488               	bsf	8,1	;volatile
  1934     0CD9                     l2237:
  1935                           
  1936                           ;main.c: 199:     TRISAbits.TRISA2 = 1;
  1937     0CD9  1683               	bsf	3,5	;RP0=1, select bank1
  1938     0CDA  1303               	bcf	3,6	;RP1=0, select bank1
  1939     0CDB  1505               	bsf	5,2	;volatile
  1940     0CDC                     l2239:
  1941                           
  1942                           ;main.c: 200:     ANSELbits.ANS2 = 1;
  1943     0CDC  1683               	bsf	3,5	;RP0=1, select bank3
  1944     0CDD  1703               	bsf	3,6	;RP1=1, select bank3
  1945     0CDE  1508               	bsf	8,2	;volatile
  1946     0CDF                     l2241:
  1947                           
  1948                           ;main.c: 201:     TRISAbits.TRISA3 = 1;
  1949     0CDF  1683               	bsf	3,5	;RP0=1, select bank1
  1950     0CE0  1303               	bcf	3,6	;RP1=0, select bank1
  1951     0CE1  1585               	bsf	5,3	;volatile
  1952     0CE2                     l2243:
  1953                           
  1954                           ;main.c: 202:     ANSELbits.ANS3 = 1;
  1955     0CE2  1683               	bsf	3,5	;RP0=1, select bank3
  1956     0CE3  1703               	bsf	3,6	;RP1=1, select bank3
  1957     0CE4  1588               	bsf	8,3	;volatile
  1958     0CE5                     l2245:
  1959                           
  1960                           ;main.c: 207:     ADCON0bits.ADCS1 = 0;
  1961     0CE5  1283               	bcf	3,5	;RP0=0, select bank0
  1962     0CE6  1303               	bcf	3,6	;RP1=0, select bank0
  1963     0CE7  139F               	bcf	31,7	;volatile
  1964     0CE8                     l2247:
  1965                           
  1966                           ;main.c: 208:     ADCON0bits.ADCS0 = 1;
  1967     0CE8  171F               	bsf	31,6	;volatile
  1968     0CE9                     l2249:
  1969                           
  1970                           ;main.c: 210:     ADCON1bits.VCFG1 = 0;
  1971     0CE9  1683               	bsf	3,5	;RP0=1, select bank1
  1972     0CEA  1303               	bcf	3,6	;RP1=0, select bank1
  1973     0CEB  129F               	bcf	31,5	;volatile
  1974     0CEC                     l2251:
  1975                           
  1976                           ;main.c: 211:     ADCON1bits.VCFG0 = 0;
  1977     0CEC  121F               	bcf	31,4	;volatile
  1978     0CED                     l2253:
  1979                           
  1980                           ;main.c: 213:     ADCON1bits.ADFM = 0;
  1981     0CED  139F               	bcf	31,7	;volatile
  1982     0CEE                     l2255:
  1983                           
  1984                           ;main.c: 215:     ADCON0bits.ADON = 1;
  1985     0CEE  1283               	bcf	3,5	;RP0=0, select bank0
  1986     0CEF  1303               	bcf	3,6	;RP1=0, select bank0
  1987     0CF0  141F               	bsf	31,0	;volatile
  1988     0CF1                     l2257:
  1989                           
  1990                           ;main.c: 216:     _delay((unsigned long)((100)*(500000/4000000.0)));
  1991     0CF1  3003               	movlw	3
  1992     0CF2  00F4               	movwf	??_setupADC
  1993     0CF3                     u4237:
  1994     0CF3  0BF4               	decfsz	??_setupADC,f
  1995     0CF4  2CF3               	goto	u4237
  1996     0CF5  2CF6               	nop2
  1997     0CF6                     l192:
  1998     0CF6  0008               	return
  1999     0CF7                     __end_of_setupADC:
  2000                           
  2001                           	psect	text8
  2002     0BD4                     __ptext8:	
  2003 ;; *************** function _setup *****************
  2004 ;; Defined at:
  2005 ;;		line 172 in file "main.c"
  2006 ;; Parameters:    Size  Location     Type
  2007 ;;		None
  2008 ;; Auto vars:     Size  Location     Type
  2009 ;;		None
  2010 ;; Return value:  Size  Location     Type
  2011 ;;                  1    wreg      void 
  2012 ;; Registers used:
  2013 ;;		wreg, status,2
  2014 ;; Tracked objects:
  2015 ;;		On entry : 0/0
  2016 ;;		On exit  : 0/0
  2017 ;;		Unchanged: 0/0
  2018 ;; Data sizes:     COMMON   BANK0   BANK1   BANK3   BANK2
  2019 ;;      Params:         0       0       0       0       0
  2020 ;;      Locals:         0       0       0       0       0
  2021 ;;      Temps:          0       0       0       0       0
  2022 ;;      Totals:         0       0       0       0       0
  2023 ;;Total ram usage:        0 bytes
  2024 ;; Hardware stack levels used: 1
  2025 ;; Hardware stack levels required when called: 2
  2026 ;; This function calls:
  2027 ;;		Nothing
  2028 ;; This function is called by:
  2029 ;;		_main
  2030 ;; This function uses a non-reentrant model
  2031 ;;
  2032                           
  2033     0BD4                     _setup:	
  2034                           ;psect for function _setup
  2035                           
  2036     0BD4                     l2201:	
  2037                           ;incstack = 0
  2038                           ; Regs used in _setup: [wreg+status,2]
  2039                           
  2040                           
  2041                           ;main.c: 173:     ANSELH = 0;
  2042     0BD4  1683               	bsf	3,5	;RP0=1, select bank3
  2043     0BD5  1703               	bsf	3,6	;RP1=1, select bank3
  2044     0BD6  0189               	clrf	9	;volatile
  2045                           
  2046                           ;main.c: 174:     PORTA = 0;
  2047     0BD7  1283               	bcf	3,5	;RP0=0, select bank0
  2048     0BD8  1303               	bcf	3,6	;RP1=0, select bank0
  2049     0BD9  0185               	clrf	5	;volatile
  2050                           
  2051                           ;main.c: 175:     PORTC = 0;
  2052     0BDA  0187               	clrf	7	;volatile
  2053                           
  2054                           ;main.c: 176:     PORTD = 0;
  2055     0BDB  0188               	clrf	8	;volatile
  2056                           
  2057                           ;main.c: 177:     TRISD = 0;
  2058     0BDC  1683               	bsf	3,5	;RP0=1, select bank1
  2059     0BDD  1303               	bcf	3,6	;RP1=0, select bank1
  2060     0BDE  0188               	clrf	8	;volatile
  2061                           
  2062                           ;main.c: 178:     TRISC = 0;
  2063     0BDF  0187               	clrf	7	;volatile
  2064     0BE0                     l2203:
  2065                           
  2066                           ;main.c: 179:     PIE1bits.ADIE = 1;
  2067     0BE0  170C               	bsf	12,6	;volatile
  2068     0BE1                     l2205:
  2069                           
  2070                           ;main.c: 180:     PIR1bits.ADIF = 0;
  2071     0BE1  1283               	bcf	3,5	;RP0=0, select bank0
  2072     0BE2  1303               	bcf	3,6	;RP1=0, select bank0
  2073     0BE3  130C               	bcf	12,6	;volatile
  2074     0BE4                     l2207:
  2075                           
  2076                           ;main.c: 182:     INTCONbits.RBIE = 1;
  2077     0BE4  158B               	bsf	11,3	;volatile
  2078     0BE5                     l2209:
  2079                           
  2080                           ;main.c: 183:     INTCONbits.RBIF = 0;
  2081     0BE5  100B               	bcf	11,0	;volatile
  2082     0BE6                     l2211:
  2083                           
  2084                           ;main.c: 184:     IOCB = 0b0000111;
  2085     0BE6  3007               	movlw	7
  2086     0BE7  1683               	bsf	3,5	;RP0=1, select bank1
  2087     0BE8  1303               	bcf	3,6	;RP1=0, select bank1
  2088     0BE9  0096               	movwf	22	;volatile
  2089     0BEA                     l2213:
  2090                           
  2091                           ;main.c: 185:     WPUB = 0b0000111;
  2092     0BEA  3007               	movlw	7
  2093     0BEB  0095               	movwf	21	;volatile
  2094     0BEC                     l2215:
  2095                           
  2096                           ;main.c: 186:     OPTION_REGbits.nRBPU = 0;
  2097     0BEC  1381               	bcf	1,7	;volatile
  2098     0BED                     l189:
  2099     0BED  0008               	return
  2100     0BEE                     __end_of_setup:
  2101                           
  2102                           	psect	text9
  2103     0BBD                     __ptext9:	
  2104 ;; *************** function _readEEPROM *****************
  2105 ;; Defined at:
  2106 ;;		line 348 in file "main.c"
  2107 ;; Parameters:    Size  Location     Type
  2108 ;;  address         1    wreg     unsigned char 
  2109 ;; Auto vars:     Size  Location     Type
  2110 ;;  address         1    4[COMMON] unsigned char 
  2111 ;; Return value:  Size  Location     Type
  2112 ;;                  1    wreg      unsigned char 
  2113 ;; Registers used:
  2114 ;;		wreg
  2115 ;; Tracked objects:
  2116 ;;		On entry : 0/0
  2117 ;;		On exit  : 0/0
  2118 ;;		Unchanged: 0/0
  2119 ;; Data sizes:     COMMON   BANK0   BANK1   BANK3   BANK2
  2120 ;;      Params:         0       0       0       0       0
  2121 ;;      Locals:         1       0       0       0       0
  2122 ;;      Temps:          0       0       0       0       0
  2123 ;;      Totals:         1       0       0       0       0
  2124 ;;Total ram usage:        1 bytes
  2125 ;; Hardware stack levels used: 1
  2126 ;; Hardware stack levels required when called: 2
  2127 ;; This function calls:
  2128 ;;		Nothing
  2129 ;; This function is called by:
  2130 ;;		_main
  2131 ;; This function uses a non-reentrant model
  2132 ;;
  2133                           
  2134     0BBD                     _readEEPROM:	
  2135                           ;psect for function _readEEPROM
  2136                           
  2137                           
  2138                           ;incstack = 0
  2139                           ; Regs used in _readEEPROM: [wreg]
  2140                           ;readEEPROM@address stored from wreg
  2141     0BBD  00F4               	movwf	readEEPROM@address
  2142     0BBE                     l2391:
  2143     0BBE                     l237:	
  2144                           ;main.c: 349:     while (WR||RD);
  2145                           
  2146     0BBE  1683               	bsf	3,5	;RP0=1, select bank3
  2147     0BBF  1703               	bsf	3,6	;RP1=1, select bank3
  2148     0BC0  188C               	btfsc	12,1	;volsfr
  2149     0BC1  2BC3               	goto	u3111
  2150     0BC2  2BC4               	goto	u3110
  2151     0BC3                     u3111:
  2152     0BC3  2BBE               	goto	l237
  2153     0BC4                     u3110:
  2154     0BC4                     l2393:
  2155     0BC4  180C               	btfsc	12,0	;volsfr
  2156     0BC5  2BC7               	goto	u3121
  2157     0BC6  2BC8               	goto	u3120
  2158     0BC7                     u3121:
  2159     0BC7  2BBE               	goto	l237
  2160     0BC8                     u3120:
  2161     0BC8                     l2395:
  2162                           
  2163                           ;main.c: 351:     EEADR = address;
  2164     0BC8  0874               	movf	readEEPROM@address,w
  2165     0BC9  1283               	bcf	3,5	;RP0=0, select bank2
  2166     0BCA  1703               	bsf	3,6	;RP1=1, select bank2
  2167     0BCB  008D               	movwf	13	;volatile
  2168     0BCC                     l2397:
  2169                           
  2170                           ;main.c: 352:     EECON1bits.EEPGD = 0;
  2171     0BCC  1683               	bsf	3,5	;RP0=1, select bank3
  2172     0BCD  1703               	bsf	3,6	;RP1=1, select bank3
  2173     0BCE  138C               	bcf	12,7	;volsfr
  2174     0BCF                     l2399:
  2175                           
  2176                           ;main.c: 353:     EECON1bits.RD = 1;
  2177     0BCF  140C               	bsf	12,0	;volsfr
  2178                           
  2179                           ;main.c: 354:     return EEDAT;
  2180     0BD0  1283               	bcf	3,5	;RP0=0, select bank2
  2181     0BD1  1703               	bsf	3,6	;RP1=1, select bank2
  2182     0BD2  080C               	movf	12,w	;volatile
  2183     0BD3                     l240:
  2184     0BD3  0008               	return
  2185     0BD4                     __end_of_readEEPROM:
  2186                           
  2187                           	psect	text10
  2188     06E4                     __ptext10:	
  2189 ;; *************** function _controlmotores *****************
  2190 ;; Defined at:
  2191 ;;		line 294 in file "main.c"
  2192 ;; Parameters:    Size  Location     Type
  2193 ;;		None
  2194 ;; Auto vars:     Size  Location     Type
  2195 ;;		None
  2196 ;; Return value:  Size  Location     Type
  2197 ;;                  1    wreg      void 
  2198 ;; Registers used:
  2199 ;;		wreg, status,2, status,0, btemp+1, pclath, cstack
  2200 ;; Tracked objects:
  2201 ;;		On entry : 0/0
  2202 ;;		On exit  : 0/0
  2203 ;;		Unchanged: 0/0
  2204 ;; Data sizes:     COMMON   BANK0   BANK1   BANK3   BANK2
  2205 ;;      Params:         0       0       0       0       0
  2206 ;;      Locals:         0       0       0       0       0
  2207 ;;      Temps:          0       3       0       0       0
  2208 ;;      Totals:         0       3       0       0       0
  2209 ;;Total ram usage:        3 bytes
  2210 ;; Hardware stack levels used: 1
  2211 ;; Hardware stack levels required when called: 5
  2212 ;; This function calls:
  2213 ;;		_map
  2214 ;;		_mapeo
  2215 ;; This function is called by:
  2216 ;;		_main
  2217 ;; This function uses a non-reentrant model
  2218 ;;
  2219                           
  2220     06E4                     _controlmotores:	
  2221                           ;psect for function _controlmotores
  2222                           
  2223     06E4                     l2793:	
  2224                           ;incstack = 0
  2225                           ; Regs used in _controlmotores: [wreg+status,2+status,0+btemp+1+pclath+cstack]
  2226                           
  2227                           
  2228                           ;main.c: 297:     ADCON0bits.CHS = 0b0001;
  2229     06E4  1283               	bcf	3,5	;RP0=0, select bank0
  2230     06E5  1303               	bcf	3,6	;RP1=0, select bank0
  2231     06E6  081F               	movf	31,w	;volatile
  2232     06E7  39C3               	andlw	-61
  2233     06E8  3804               	iorlw	4
  2234     06E9  009F               	movwf	31	;volatile
  2235     06EA                     l2795:
  2236                           
  2237                           ;main.c: 298:     _delay((unsigned long)((100)*(500000/4000000.0)));
  2238     06EA  3003               	movlw	3
  2239     06EB  1283               	bcf	3,5	;RP0=0, select bank0
  2240     06EC  1303               	bcf	3,6	;RP1=0, select bank0
  2241     06ED  00E6               	movwf	??_controlmotores
  2242     06EE                     u4247:
  2243     06EE  0BE6               	decfsz	??_controlmotores,f
  2244     06EF  2EEE               	goto	u4247
  2245     06F0                     l2797:
  2246                           
  2247                           ;main.c: 299:     ADCON0bits.GO = 1;
  2248     06F0  1283               	bcf	3,5	;RP0=0, select bank0
  2249     06F1  1303               	bcf	3,6	;RP1=0, select bank0
  2250     06F2  149F               	bsf	31,1	;volatile
  2251     06F3                     l222:	
  2252                           ;main.c: 301:     while(ADCON0bits.GO == 1);
  2253                           
  2254     06F3  189F               	btfsc	31,1	;volatile
  2255     06F4  2EF6               	goto	u4041
  2256     06F5  2EF7               	goto	u4040
  2257     06F6                     u4041:
  2258     06F6  2EF3               	goto	l222
  2259     06F7                     u4040:
  2260     06F7                     l224:
  2261                           
  2262                           ;main.c: 302:     ADIF = 0;
  2263     06F7  130C               	bcf	12,6	;volatile
  2264     06F8                     l2799:
  2265                           
  2266                           ;main.c: 303:     mapeo();
  2267     06F8  120A  158A  26A3  120A  118A  	fcall	_mapeo
  2268     06FD                     l2801:
  2269                           
  2270                           ;main.c: 304:     CCP1CONbits.DC1B = valDCL;
  2271     06FD  1283               	bcf	3,5	;RP0=0, select bank0
  2272     06FE  1303               	bcf	3,6	;RP1=0, select bank0
  2273     06FF  086B               	movf	_valDCL,w
  2274     0700  00E6               	movwf	??_controlmotores
  2275     0701  0EE6               	swapf	??_controlmotores,f
  2276     0702  0817               	movf	23,w	;volatile
  2277     0703  0666               	xorwf	??_controlmotores,w
  2278     0704  39CF               	andlw	-49
  2279     0705  0666               	xorwf	??_controlmotores,w
  2280     0706  0097               	movwf	23	;volatile
  2281     0707                     l2803:
  2282                           
  2283                           ;main.c: 305:     CCPR1L = valDCH;
  2284     0707  0869               	movf	_valDCH,w
  2285     0708  0095               	movwf	21	;volatile
  2286     0709                     l2805:
  2287                           
  2288                           ;main.c: 306:     _delay((unsigned long)((1)*(500000/4000.0)));
  2289     0709  3028               	movlw	40
  2290     070A  1283               	bcf	3,5	;RP0=0, select bank0
  2291     070B  1303               	bcf	3,6	;RP1=0, select bank0
  2292     070C  00E6               	movwf	??_controlmotores
  2293     070D                     u4257:
  2294     070D  0BE6               	decfsz	??_controlmotores,f
  2295     070E  2F0D               	goto	u4257
  2296     070F  2F10               	nop2
  2297     0710                     l2807:
  2298                           
  2299                           ;main.c: 310:     ADCON0bits.CHS = 0b0010;
  2300     0710  1283               	bcf	3,5	;RP0=0, select bank0
  2301     0711  1303               	bcf	3,6	;RP1=0, select bank0
  2302     0712  081F               	movf	31,w	;volatile
  2303     0713  39C3               	andlw	-61
  2304     0714  3808               	iorlw	8
  2305     0715  009F               	movwf	31	;volatile
  2306     0716                     l2809:
  2307                           
  2308                           ;main.c: 311:     _delay((unsigned long)((100)*(500000/4000000.0)));
  2309     0716  3003               	movlw	3
  2310     0717  1283               	bcf	3,5	;RP0=0, select bank0
  2311     0718  1303               	bcf	3,6	;RP1=0, select bank0
  2312     0719  00E6               	movwf	??_controlmotores
  2313     071A                     u4267:
  2314     071A  0BE6               	decfsz	??_controlmotores,f
  2315     071B  2F1A               	goto	u4267
  2316     071C                     l2811:
  2317                           
  2318                           ;main.c: 312:     ADCON0bits.GO = 1;
  2319     071C  1283               	bcf	3,5	;RP0=0, select bank0
  2320     071D  1303               	bcf	3,6	;RP1=0, select bank0
  2321     071E  149F               	bsf	31,1	;volatile
  2322     071F                     l225:	
  2323                           ;main.c: 314:     while(ADCON0bits.GO == 1);
  2324                           
  2325     071F  189F               	btfsc	31,1	;volatile
  2326     0720  2F22               	goto	u4051
  2327     0721  2F23               	goto	u4050
  2328     0722                     u4051:
  2329     0722  2F1F               	goto	l225
  2330     0723                     u4050:
  2331     0723                     l227:
  2332                           
  2333                           ;main.c: 315:     ADIF = 0;
  2334     0723  130C               	bcf	12,6	;volatile
  2335     0724                     l2813:
  2336                           
  2337                           ;main.c: 316:     mapeo();
  2338     0724  120A  158A  26A3  120A  118A  	fcall	_mapeo
  2339     0729                     l2815:
  2340                           
  2341                           ;main.c: 317:     CCP2CONbits.DC2B0 = valDCL & 0x01;
  2342     0729  1283               	bcf	3,5	;RP0=0, select bank0
  2343     072A  1303               	bcf	3,6	;RP1=0, select bank0
  2344     072B  086B               	movf	_valDCL,w
  2345     072C  3901               	andlw	1
  2346     072D  00E6               	movwf	??_controlmotores
  2347     072E  0EE6               	swapf	??_controlmotores,f
  2348     072F  081D               	movf	29,w	;volatile
  2349     0730  0666               	xorwf	??_controlmotores,w
  2350     0731  39EF               	andlw	-17
  2351     0732  0666               	xorwf	??_controlmotores,w
  2352     0733  009D               	movwf	29	;volatile
  2353     0734                     l2817:
  2354                           
  2355                           ;main.c: 318:     CCP2CONbits.DC2B1 = (valDCL & 0x02) >> 1;
  2356     0734  086C               	movf	_valDCL+1,w
  2357     0735  00E7               	movwf	??_controlmotores+1
  2358     0736  086B               	movf	_valDCL,w
  2359     0737  00E6               	movwf	??_controlmotores
  2360     0738  1003               	clrc
  2361     0739  0CE7               	rrf	??_controlmotores+1,f
  2362     073A  0CE6               	rrf	??_controlmotores,f
  2363     073B  0866               	movf	??_controlmotores,w
  2364     073C  3901               	andlw	1
  2365     073D  00E8               	movwf	??_controlmotores+2
  2366     073E  0EE8               	swapf	??_controlmotores+2,f
  2367     073F  0DE8               	rlf	??_controlmotores+2,f
  2368     0740  081D               	movf	29,w	;volatile
  2369     0741  0668               	xorwf	??_controlmotores+2,w
  2370     0742  39DF               	andlw	-33
  2371     0743  0668               	xorwf	??_controlmotores+2,w
  2372     0744  009D               	movwf	29	;volatile
  2373     0745                     l2819:
  2374                           
  2375                           ;main.c: 319:     CCPR2L = valDCH;
  2376     0745  0869               	movf	_valDCH,w
  2377     0746  009B               	movwf	27	;volatile
  2378     0747                     l2821:
  2379                           
  2380                           ;main.c: 320:     _delay((unsigned long)((1)*(500000/4000.0)));
  2381     0747  3028               	movlw	40
  2382     0748  1283               	bcf	3,5	;RP0=0, select bank0
  2383     0749  1303               	bcf	3,6	;RP1=0, select bank0
  2384     074A  00E6               	movwf	??_controlmotores
  2385     074B                     u4277:
  2386     074B  0BE6               	decfsz	??_controlmotores,f
  2387     074C  2F4B               	goto	u4277
  2388     074D  2F4E               	nop2
  2389     074E                     l2823:
  2390                           
  2391                           ;main.c: 324:     ADCON0bits.CHS = 0b0011;
  2392     074E  1283               	bcf	3,5	;RP0=0, select bank0
  2393     074F  1303               	bcf	3,6	;RP1=0, select bank0
  2394     0750  081F               	movf	31,w	;volatile
  2395     0751  39C3               	andlw	-61
  2396     0752  380C               	iorlw	12
  2397     0753  009F               	movwf	31	;volatile
  2398     0754                     l2825:
  2399                           
  2400                           ;main.c: 325:     _delay((unsigned long)((100)*(500000/4000000.0)));
  2401     0754  3003               	movlw	3
  2402     0755  1283               	bcf	3,5	;RP0=0, select bank0
  2403     0756  1303               	bcf	3,6	;RP1=0, select bank0
  2404     0757  00E6               	movwf	??_controlmotores
  2405     0758                     u4287:
  2406     0758  0BE6               	decfsz	??_controlmotores,f
  2407     0759  2F58               	goto	u4287
  2408     075A                     l2827:
  2409                           
  2410                           ;main.c: 326:     ADCON0bits.GO = 1;
  2411     075A  1283               	bcf	3,5	;RP0=0, select bank0
  2412     075B  1303               	bcf	3,6	;RP1=0, select bank0
  2413     075C  149F               	bsf	31,1	;volatile
  2414     075D                     l228:	
  2415                           ;main.c: 328:     while(ADCON0bits.GO == 1);
  2416                           
  2417     075D  189F               	btfsc	31,1	;volatile
  2418     075E  2F60               	goto	u4061
  2419     075F  2F61               	goto	u4060
  2420     0760                     u4061:
  2421     0760  2F5D               	goto	l228
  2422     0761                     u4060:
  2423     0761                     l230:
  2424                           
  2425                           ;main.c: 329:     ADIF = 0;
  2426     0761  130C               	bcf	12,6	;volatile
  2427     0762                     l2829:
  2428                           
  2429                           ;main.c: 330:     pot = map(ADRESH, 0, 255, 1, 17);
  2430     0762  3000               	movlw	0
  2431     0763  00AD               	movwf	map@inputmin
  2432     0764  00AE               	movwf	map@inputmin+1
  2433     0765  30FF               	movlw	255
  2434     0766  00AF               	movwf	map@inputmax
  2435     0767  3000               	movlw	0
  2436     0768  00B0               	movwf	map@inputmax+1
  2437     0769  3001               	movlw	1
  2438     076A  00B1               	movwf	map@outmin
  2439     076B  3000               	movlw	0
  2440     076C  00B2               	movwf	map@outmin+1
  2441     076D  3011               	movlw	17
  2442     076E  00B3               	movwf	map@outmax
  2443     076F  3000               	movlw	0
  2444     0770  00B4               	movwf	map@outmax+1
  2445     0771  081E               	movf	30,w	;volatile
  2446     0772  120A  118A  27C7  120A  118A  	fcall	_map
  2447     0777  1283               	bcf	3,5	;RP0=0, select bank0
  2448     0778  1303               	bcf	3,6	;RP1=0, select bank0
  2449     0779  082E               	movf	?_map+1,w
  2450     077A  1683               	bsf	3,5	;RP0=1, select bank1
  2451     077B  1303               	bcf	3,6	;RP1=0, select bank1
  2452     077C  00A7               	movwf	(_pot+1)^(0+128)
  2453     077D  1283               	bcf	3,5	;RP0=0, select bank0
  2454     077E  1303               	bcf	3,6	;RP1=0, select bank0
  2455     077F  082D               	movf	?_map,w
  2456     0780  1683               	bsf	3,5	;RP0=1, select bank1
  2457     0781  1303               	bcf	3,6	;RP1=0, select bank1
  2458     0782  00A6               	movwf	_pot^(0+128)
  2459     0783                     l2831:
  2460                           
  2461                           ;main.c: 331:     _delay((unsigned long)((1)*(500000/4000.0)));
  2462     0783  3028               	movlw	40
  2463     0784  1283               	bcf	3,5	;RP0=0, select bank0
  2464     0785  1303               	bcf	3,6	;RP1=0, select bank0
  2465     0786  00E6               	movwf	??_controlmotores
  2466     0787                     u4297:
  2467     0787  0BE6               	decfsz	??_controlmotores,f
  2468     0788  2F87               	goto	u4297
  2469     0789  2F8A               	nop2
  2470     078A                     l2833:
  2471                           
  2472                           ;main.c: 334:     ADCON0bits.CHS = 0b0100;
  2473     078A  1283               	bcf	3,5	;RP0=0, select bank0
  2474     078B  1303               	bcf	3,6	;RP1=0, select bank0
  2475     078C  081F               	movf	31,w	;volatile
  2476     078D  39C3               	andlw	-61
  2477     078E  3810               	iorlw	16
  2478     078F  009F               	movwf	31	;volatile
  2479     0790                     l2835:
  2480                           
  2481                           ;main.c: 335:     _delay((unsigned long)((100)*(500000/4000000.0)));
  2482     0790  3003               	movlw	3
  2483     0791  1283               	bcf	3,5	;RP0=0, select bank0
  2484     0792  1303               	bcf	3,6	;RP1=0, select bank0
  2485     0793  00E6               	movwf	??_controlmotores
  2486     0794                     u4307:
  2487     0794  0BE6               	decfsz	??_controlmotores,f
  2488     0795  2F94               	goto	u4307
  2489     0796                     l2837:
  2490                           
  2491                           ;main.c: 336:     ADCON0bits.GO = 1;
  2492     0796  1283               	bcf	3,5	;RP0=0, select bank0
  2493     0797  1303               	bcf	3,6	;RP1=0, select bank0
  2494     0798  149F               	bsf	31,1	;volatile
  2495     0799                     l231:	
  2496                           ;main.c: 338:     while(ADCON0bits.GO == 1);
  2497                           
  2498     0799  189F               	btfsc	31,1	;volatile
  2499     079A  2F9C               	goto	u4071
  2500     079B  2F9D               	goto	u4070
  2501     079C                     u4071:
  2502     079C  2F99               	goto	l231
  2503     079D                     u4070:
  2504     079D                     l233:
  2505                           
  2506                           ;main.c: 339:     ADIF = 0;
  2507     079D  130C               	bcf	12,6	;volatile
  2508     079E                     l2839:
  2509                           
  2510                           ;main.c: 340:     pot1 = map(ADRESH, 0, 255, 1, 17);
  2511     079E  3000               	movlw	0
  2512     079F  00AD               	movwf	map@inputmin
  2513     07A0  00AE               	movwf	map@inputmin+1
  2514     07A1  30FF               	movlw	255
  2515     07A2  00AF               	movwf	map@inputmax
  2516     07A3  3000               	movlw	0
  2517     07A4  00B0               	movwf	map@inputmax+1
  2518     07A5  3001               	movlw	1
  2519     07A6  00B1               	movwf	map@outmin
  2520     07A7  3000               	movlw	0
  2521     07A8  00B2               	movwf	map@outmin+1
  2522     07A9  3011               	movlw	17
  2523     07AA  00B3               	movwf	map@outmax
  2524     07AB  3000               	movlw	0
  2525     07AC  00B4               	movwf	map@outmax+1
  2526     07AD  081E               	movf	30,w	;volatile
  2527     07AE  120A  118A  27C7  120A  118A  	fcall	_map
  2528     07B3  1283               	bcf	3,5	;RP0=0, select bank0
  2529     07B4  1303               	bcf	3,6	;RP1=0, select bank0
  2530     07B5  082E               	movf	?_map+1,w
  2531     07B6  1683               	bsf	3,5	;RP0=1, select bank1
  2532     07B7  1303               	bcf	3,6	;RP1=0, select bank1
  2533     07B8  00A5               	movwf	(_pot1+1)^(0+128)
  2534     07B9  1283               	bcf	3,5	;RP0=0, select bank0
  2535     07BA  1303               	bcf	3,6	;RP1=0, select bank0
  2536     07BB  082D               	movf	?_map,w
  2537     07BC  1683               	bsf	3,5	;RP0=1, select bank1
  2538     07BD  1303               	bcf	3,6	;RP1=0, select bank1
  2539     07BE  00A4               	movwf	_pot1^(0+128)
  2540     07BF                     l2841:
  2541                           
  2542                           ;main.c: 341:     _delay((unsigned long)((1)*(500000/4000.0)));
  2543     07BF  3028               	movlw	40
  2544     07C0  1283               	bcf	3,5	;RP0=0, select bank0
  2545     07C1  1303               	bcf	3,6	;RP1=0, select bank0
  2546     07C2  00E6               	movwf	??_controlmotores
  2547     07C3                     u4317:
  2548     07C3  0BE6               	decfsz	??_controlmotores,f
  2549     07C4  2FC3               	goto	u4317
  2550     07C5  2FC6               	nop2
  2551     07C6                     l234:
  2552     07C6  0008               	return
  2553     07C7                     __end_of_controlmotores:
  2554                           
  2555                           	psect	text11
  2556     0EA3                     __ptext11:	
  2557 ;; *************** function _mapeo *****************
  2558 ;; Defined at:
  2559 ;;		line 285 in file "main.c"
  2560 ;; Parameters:    Size  Location     Type
  2561 ;;		None
  2562 ;; Auto vars:     Size  Location     Type
  2563 ;;		None
  2564 ;; Return value:  Size  Location     Type
  2565 ;;                  1    wreg      void 
  2566 ;; Registers used:
  2567 ;;		wreg, status,2, status,0, btemp+1, pclath, cstack
  2568 ;; Tracked objects:
  2569 ;;		On entry : 0/0
  2570 ;;		On exit  : 0/0
  2571 ;;		Unchanged: 0/0
  2572 ;; Data sizes:     COMMON   BANK0   BANK1   BANK3   BANK2
  2573 ;;      Params:         0       0       0       0       0
  2574 ;;      Locals:         0       0       0       0       0
  2575 ;;      Temps:          0       0       5       0       0
  2576 ;;      Totals:         0       0       5       0       0
  2577 ;;Total ram usage:        5 bytes
  2578 ;; Hardware stack levels used: 1
  2579 ;; Hardware stack levels required when called: 4
  2580 ;; This function calls:
  2581 ;;		___fladd
  2582 ;;		___flmul
  2583 ;;		___fltol
  2584 ;;		___xxtofl
  2585 ;; This function is called by:
  2586 ;;		_controlmotores
  2587 ;; This function uses a non-reentrant model
  2588 ;;
  2589                           
  2590     0EA3                     _mapeo:	
  2591                           ;psect for function _mapeo
  2592                           
  2593     0EA3                     l2785:	
  2594                           ;incstack = 0
  2595                           ; Regs used in _mapeo: [wreg+status,2+status,0+btemp+1+pclath+cstack]
  2596                           
  2597                           
  2598                           ;main.c: 286:     ADC_RES = ((ADRESH<<2)+(ADRESL>>6));
  2599     0EA3  1683               	bsf	3,5	;RP0=1, select bank1
  2600     0EA4  1303               	bcf	3,6	;RP1=0, select bank1
  2601     0EA5  081E               	movf	30,w	;volatile
  2602     0EA6  00B0               	movwf	??_mapeo^(0+128)
  2603     0EA7  3006               	movlw	6
  2604     0EA8                     u4035:
  2605     0EA8  1003               	clrc
  2606     0EA9  0CB0               	rrf	??_mapeo^(0+128),f
  2607     0EAA  3EFF               	addlw	-1
  2608     0EAB  1D03               	skipz
  2609     0EAC  2EA8               	goto	u4035
  2610     0EAD  1283               	bcf	3,5	;RP0=0, select bank0
  2611     0EAE  1303               	bcf	3,6	;RP1=0, select bank0
  2612     0EAF  081E               	movf	30,w	;volatile
  2613     0EB0  1683               	bsf	3,5	;RP0=1, select bank1
  2614     0EB1  1303               	bcf	3,6	;RP1=0, select bank1
  2615     0EB2  00B1               	movwf	(??_mapeo+1)^(0+128)
  2616     0EB3  01B2               	clrf	((??_mapeo+1)^(0+128)+1)
  2617     0EB4  1003               	clrc
  2618     0EB5  0DB1               	rlf	(??_mapeo+1)^(0+128),f
  2619     0EB6  0DB2               	rlf	((??_mapeo+1)^(0+128)+1),f
  2620     0EB7  1003               	clrc
  2621     0EB8  0DB1               	rlf	(??_mapeo+1)^(0+128),f
  2622     0EB9  0DB2               	rlf	((??_mapeo+1)^(0+128)+1),f
  2623     0EBA  0830               	movf	??_mapeo^(0+128),w
  2624     0EBB  0731               	addwf	(??_mapeo+1)^(0+128),w
  2625     0EBC  00B3               	movwf	(??_mapeo+3)^(0+128)
  2626     0EBD  3000               	movlw	0
  2627     0EBE  1803               	skipnc
  2628     0EBF  3001               	movlw	1
  2629     0EC0  0732               	addwf	(??_mapeo+2)^(0+128),w
  2630     0EC1  00B4               	movwf	(??_mapeo+4)^(0+128)
  2631     0EC2  0833               	movf	(??_mapeo+3)^(0+128),w
  2632     0EC3  00AE               	movwf	_ADC_RES^(0+128)
  2633     0EC4  0834               	movf	(??_mapeo+4)^(0+128),w
  2634     0EC5  00AF               	movwf	(_ADC_RES+1)^(0+128)
  2635     0EC6                     l2787:
  2636                           
  2637                           ;main.c: 287:     valDC = (0.033*ADC_RES+32);
  2638     0EC6  082E               	movf	_ADC_RES^(0+128),w
  2639     0EC7  1283               	bcf	3,5	;RP0=0, select bank0
  2640     0EC8  1303               	bcf	3,6	;RP1=0, select bank0
  2641     0EC9  00A0               	movwf	___xxtofl@val
  2642     0ECA  1683               	bsf	3,5	;RP0=1, select bank1
  2643     0ECB  1303               	bcf	3,6	;RP1=0, select bank1
  2644     0ECC  082F               	movf	(_ADC_RES+1)^(0+128),w
  2645     0ECD  1283               	bcf	3,5	;RP0=0, select bank0
  2646     0ECE  1303               	bcf	3,6	;RP1=0, select bank0
  2647     0ECF  00A1               	movwf	___xxtofl@val+1
  2648     0ED0  01A2               	clrf	___xxtofl@val+2
  2649     0ED1  01A3               	clrf	___xxtofl@val+3
  2650     0ED2  3000               	movlw	0
  2651     0ED3  120A  158A  2746  120A  158A  	fcall	___xxtofl
  2652     0ED8  1283               	bcf	3,5	;RP0=0, select bank0
  2653     0ED9  1303               	bcf	3,6	;RP1=0, select bank0
  2654     0EDA  0823               	movf	?___xxtofl+3,w
  2655     0EDB  00B5               	movwf	___flmul@a+3
  2656     0EDC  0822               	movf	?___xxtofl+2,w
  2657     0EDD  00B4               	movwf	___flmul@a+2
  2658     0EDE  0821               	movf	?___xxtofl+1,w
  2659     0EDF  00B3               	movwf	___flmul@a+1
  2660     0EE0  0820               	movf	?___xxtofl,w
  2661     0EE1  00B2               	movwf	___flmul@a
  2662     0EE2  303D               	movlw	61
  2663     0EE3  00B1               	movwf	___flmul@b+3
  2664     0EE4  3007               	movlw	7
  2665     0EE5  00B0               	movwf	___flmul@b+2
  2666     0EE6  302B               	movlw	43
  2667     0EE7  00AF               	movwf	___flmul@b+1
  2668     0EE8  3002               	movlw	2
  2669     0EE9  00AE               	movwf	___flmul@b
  2670     0EEA  120A  118A  2028  120A  158A  	fcall	___flmul
  2671     0EEF  1283               	bcf	3,5	;RP0=0, select bank0
  2672     0EF0  1303               	bcf	3,6	;RP1=0, select bank0
  2673     0EF1  0831               	movf	?___flmul+3,w
  2674     0EF2  00CF               	movwf	___fladd@a+3
  2675     0EF3  0830               	movf	?___flmul+2,w
  2676     0EF4  00CE               	movwf	___fladd@a+2
  2677     0EF5  082F               	movf	?___flmul+1,w
  2678     0EF6  00CD               	movwf	___fladd@a+1
  2679     0EF7  082E               	movf	?___flmul,w
  2680     0EF8  00CC               	movwf	___fladd@a
  2681     0EF9  3042               	movlw	66
  2682     0EFA  00CB               	movwf	___fladd@b+3
  2683     0EFB  3000               	movlw	0
  2684     0EFC  00CA               	movwf	___fladd@b+2
  2685     0EFD  3000               	movlw	0
  2686     0EFE  00C9               	movwf	___fladd@b+1
  2687     0EFF  3000               	movlw	0
  2688     0F00  00C8               	movwf	___fladd@b
  2689     0F01  120A  118A  236D  120A  158A  	fcall	___fladd
  2690     0F06  1283               	bcf	3,5	;RP0=0, select bank0
  2691     0F07  1303               	bcf	3,6	;RP1=0, select bank0
  2692     0F08  084B               	movf	?___fladd+3,w
  2693     0F09  00DF               	movwf	___fltol@f1+3
  2694     0F0A  084A               	movf	?___fladd+2,w
  2695     0F0B  00DE               	movwf	___fltol@f1+2
  2696     0F0C  0849               	movf	?___fladd+1,w
  2697     0F0D  00DD               	movwf	___fltol@f1+1
  2698     0F0E  0848               	movf	?___fladd,w
  2699     0F0F  00DC               	movwf	___fltol@f1
  2700     0F10  120A  158A  25AF  120A  158A  	fcall	___fltol
  2701     0F15  1283               	bcf	3,5	;RP0=0, select bank0
  2702     0F16  1303               	bcf	3,6	;RP1=0, select bank0
  2703     0F17  085D               	movf	?___fltol+1,w
  2704     0F18  1683               	bsf	3,5	;RP0=1, select bank1
  2705     0F19  1303               	bcf	3,6	;RP1=0, select bank1
  2706     0F1A  00A9               	movwf	(_valDC+1)^(0+128)
  2707     0F1B  1283               	bcf	3,5	;RP0=0, select bank0
  2708     0F1C  1303               	bcf	3,6	;RP1=0, select bank0
  2709     0F1D  085C               	movf	?___fltol,w
  2710     0F1E  1683               	bsf	3,5	;RP0=1, select bank1
  2711     0F1F  1303               	bcf	3,6	;RP1=0, select bank1
  2712     0F20  00A8               	movwf	_valDC^(0+128)
  2713     0F21                     l2789:
  2714                           
  2715                           ;main.c: 288:     valDCL = valDC & 0x003;
  2716     0F21  3003               	movlw	3
  2717     0F22  0528               	andwf	_valDC^(0+128),w
  2718     0F23  1283               	bcf	3,5	;RP0=0, select bank0
  2719     0F24  1303               	bcf	3,6	;RP1=0, select bank0
  2720     0F25  00EB               	movwf	_valDCL
  2721     0F26  3000               	movlw	0
  2722     0F27  1683               	bsf	3,5	;RP0=1, select bank1
  2723     0F28  1303               	bcf	3,6	;RP1=0, select bank1
  2724     0F29  0529               	andwf	(_valDC+1)^(0+128),w
  2725     0F2A  1283               	bcf	3,5	;RP0=0, select bank0
  2726     0F2B  1303               	bcf	3,6	;RP1=0, select bank0
  2727     0F2C  00EC               	movwf	_valDCL+1
  2728     0F2D                     l2791:
  2729                           
  2730                           ;main.c: 289:     valDCH = (valDC & 0x3FC) >> 2;
  2731     0F2D  1683               	bsf	3,5	;RP0=1, select bank1
  2732     0F2E  1303               	bcf	3,6	;RP1=0, select bank1
  2733     0F2F  0829               	movf	(_valDC+1)^(0+128),w
  2734     0F30  00B1               	movwf	(??_mapeo^(0+128)+1)
  2735     0F31  0828               	movf	_valDC^(0+128),w
  2736     0F32  00B0               	movwf	??_mapeo^(0+128)
  2737     0F33  1003               	clrc
  2738     0F34  0CB1               	rrf	(??_mapeo^(0+128)+1),f
  2739     0F35  0CB0               	rrf	??_mapeo^(0+128),f
  2740     0F36  1003               	clrc
  2741     0F37  0CB1               	rrf	(??_mapeo^(0+128)+1),f
  2742     0F38  0CB0               	rrf	??_mapeo^(0+128),f
  2743     0F39  30FF               	movlw	255
  2744     0F3A  0530               	andwf	??_mapeo^(0+128),w
  2745     0F3B  1283               	bcf	3,5	;RP0=0, select bank0
  2746     0F3C  1303               	bcf	3,6	;RP1=0, select bank0
  2747     0F3D  00E9               	movwf	_valDCH
  2748     0F3E  3000               	movlw	0
  2749     0F3F  1683               	bsf	3,5	;RP0=1, select bank1
  2750     0F40  1303               	bcf	3,6	;RP1=0, select bank1
  2751     0F41  0531               	andwf	(??_mapeo+1)^(0+128),w
  2752     0F42  1283               	bcf	3,5	;RP0=0, select bank0
  2753     0F43  1303               	bcf	3,6	;RP1=0, select bank0
  2754     0F44  00EA               	movwf	_valDCH+1
  2755     0F45                     l219:
  2756     0F45  0008               	return
  2757     0F46                     __end_of_mapeo:
  2758                           
  2759                           	psect	text12
  2760     0F46                     __ptext12:	
  2761 ;; *************** function ___xxtofl *****************
  2762 ;; Defined at:
  2763 ;;		line 10 in file "C:\Program Files\Microchip\xc8\v2.40\pic\sources\c90\common\xxtofl.c"
  2764 ;; Parameters:    Size  Location     Type
  2765 ;;  sign            1    wreg     unsigned char 
  2766 ;;  val             4    0[BANK0 ] long 
  2767 ;; Auto vars:     Size  Location     Type
  2768 ;;  sign            1    8[BANK0 ] unsigned char 
  2769 ;;  arg             4   10[BANK0 ] unsigned long 
  2770 ;;  exp             1    9[BANK0 ] unsigned char 
  2771 ;; Return value:  Size  Location     Type
  2772 ;;                  4    0[BANK0 ] unsigned char 
  2773 ;; Registers used:
  2774 ;;		wreg, status,2, status,0
  2775 ;; Tracked objects:
  2776 ;;		On entry : 0/0
  2777 ;;		On exit  : 0/0
  2778 ;;		Unchanged: 0/0
  2779 ;; Data sizes:     COMMON   BANK0   BANK1   BANK3   BANK2
  2780 ;;      Params:         0       4       0       0       0
  2781 ;;      Locals:         0       6       0       0       0
  2782 ;;      Temps:          0       4       0       0       0
  2783 ;;      Totals:         0      14       0       0       0
  2784 ;;Total ram usage:       14 bytes
  2785 ;; Hardware stack levels used: 1
  2786 ;; Hardware stack levels required when called: 2
  2787 ;; This function calls:
  2788 ;;		Nothing
  2789 ;; This function is called by:
  2790 ;;		_mapeo
  2791 ;; This function uses a non-reentrant model
  2792 ;;
  2793                           
  2794     0F46                     ___xxtofl:	
  2795                           ;psect for function ___xxtofl
  2796                           
  2797                           
  2798                           ;incstack = 0
  2799                           ; Regs used in ___xxtofl: [wreg+status,2+status,0]
  2800                           ;___xxtofl@sign stored from wreg
  2801     0F46  1283               	bcf	3,5	;RP0=0, select bank0
  2802     0F47  1303               	bcf	3,6	;RP1=0, select bank0
  2803     0F48  00A8               	movwf	___xxtofl@sign
  2804     0F49                     l2737:
  2805     0F49  0828               	movf	___xxtofl@sign,w
  2806     0F4A  1903               	btfsc	3,2
  2807     0F4B  2F4D               	goto	u3891
  2808     0F4C  2F4E               	goto	u3890
  2809     0F4D                     u3891:
  2810     0F4D  2F62               	goto	l2743
  2811     0F4E                     u3890:
  2812     0F4E                     l2739:
  2813     0F4E  1FA3               	btfss	___xxtofl@val+3,7
  2814     0F4F  2F51               	goto	u3901
  2815     0F50  2F52               	goto	u3900
  2816     0F51                     u3901:
  2817     0F51  2F62               	goto	l2743
  2818     0F52                     u3900:
  2819     0F52                     l2741:
  2820     0F52  0920               	comf	___xxtofl@val,w
  2821     0F53  00AA               	movwf	___xxtofl@arg
  2822     0F54  0921               	comf	___xxtofl@val+1,w
  2823     0F55  00AB               	movwf	___xxtofl@arg+1
  2824     0F56  0922               	comf	___xxtofl@val+2,w
  2825     0F57  00AC               	movwf	___xxtofl@arg+2
  2826     0F58  0923               	comf	___xxtofl@val+3,w
  2827     0F59  00AD               	movwf	___xxtofl@arg+3
  2828     0F5A  0AAA               	incf	___xxtofl@arg,f
  2829     0F5B  1903               	skipnz
  2830     0F5C  0AAB               	incf	___xxtofl@arg+1,f
  2831     0F5D  1903               	skipnz
  2832     0F5E  0AAC               	incf	___xxtofl@arg+2,f
  2833     0F5F  1903               	skipnz
  2834     0F60  0AAD               	incf	___xxtofl@arg+3,f
  2835     0F61  2F6A               	goto	l788
  2836     0F62                     l2743:
  2837     0F62  0823               	movf	___xxtofl@val+3,w
  2838     0F63  00AD               	movwf	___xxtofl@arg+3
  2839     0F64  0822               	movf	___xxtofl@val+2,w
  2840     0F65  00AC               	movwf	___xxtofl@arg+2
  2841     0F66  0821               	movf	___xxtofl@val+1,w
  2842     0F67  00AB               	movwf	___xxtofl@arg+1
  2843     0F68  0820               	movf	___xxtofl@val,w
  2844     0F69  00AA               	movwf	___xxtofl@arg
  2845     0F6A                     l788:
  2846     0F6A  0823               	movf	___xxtofl@val+3,w
  2847     0F6B  0422               	iorwf	___xxtofl@val+2,w
  2848     0F6C  0421               	iorwf	___xxtofl@val+1,w
  2849     0F6D  0420               	iorwf	___xxtofl@val,w
  2850     0F6E  1D03               	skipz
  2851     0F6F  2F71               	goto	u3911
  2852     0F70  2F72               	goto	u3910
  2853     0F71                     u3911:
  2854     0F71  2F7B               	goto	l2749
  2855     0F72                     u3910:
  2856     0F72                     l2745:
  2857     0F72  3000               	movlw	0
  2858     0F73  00A3               	movwf	?___xxtofl+3
  2859     0F74  3000               	movlw	0
  2860     0F75  00A2               	movwf	?___xxtofl+2
  2861     0F76  3000               	movlw	0
  2862     0F77  00A1               	movwf	?___xxtofl+1
  2863     0F78  3000               	movlw	0
  2864     0F79  00A0               	movwf	?___xxtofl
  2865     0F7A  2FFF               	goto	l790
  2866     0F7B                     l2749:
  2867     0F7B  3096               	movlw	150
  2868     0F7C  00A9               	movwf	___xxtofl@exp
  2869     0F7D  2F8B               	goto	l2753
  2870     0F7E                     l2751:
  2871     0F7E  3001               	movlw	1
  2872     0F7F  00A4               	movwf	??___xxtofl
  2873     0F80  0824               	movf	??___xxtofl,w
  2874     0F81  07A9               	addwf	___xxtofl@exp,f
  2875     0F82  3001               	movlw	1
  2876     0F83                     u3925:
  2877     0F83  1003               	clrc
  2878     0F84  0CAD               	rrf	___xxtofl@arg+3,f
  2879     0F85  0CAC               	rrf	___xxtofl@arg+2,f
  2880     0F86  0CAB               	rrf	___xxtofl@arg+1,f
  2881     0F87  0CAA               	rrf	___xxtofl@arg,f
  2882     0F88  3EFF               	addlw	-1
  2883     0F89  1D03               	skipz
  2884     0F8A  2F83               	goto	u3925
  2885     0F8B                     l2753:
  2886     0F8B  30FE               	movlw	254
  2887     0F8C  052D               	andwf	___xxtofl@arg+3,w
  2888     0F8D  1D03               	btfss	3,2
  2889     0F8E  2F90               	goto	u3931
  2890     0F8F  2F91               	goto	u3930
  2891     0F90                     u3931:
  2892     0F90  2F7E               	goto	l2751
  2893     0F91                     u3930:
  2894     0F91  2FAD               	goto	l794
  2895     0F92                     l2755:
  2896     0F92  3001               	movlw	1
  2897     0F93  00A4               	movwf	??___xxtofl
  2898     0F94  0824               	movf	??___xxtofl,w
  2899     0F95  07A9               	addwf	___xxtofl@exp,f
  2900     0F96                     l2757:
  2901     0F96  3001               	movlw	1
  2902     0F97  07AA               	addwf	___xxtofl@arg,f
  2903     0F98  3000               	movlw	0
  2904     0F99  1803               	skipnc
  2905     0F9A  3001               	movlw	1
  2906     0F9B  07AB               	addwf	___xxtofl@arg+1,f
  2907     0F9C  3000               	movlw	0
  2908     0F9D  1803               	skipnc
  2909     0F9E  3001               	movlw	1
  2910     0F9F  07AC               	addwf	___xxtofl@arg+2,f
  2911     0FA0  3000               	movlw	0
  2912     0FA1  1803               	skipnc
  2913     0FA2  3001               	movlw	1
  2914     0FA3  07AD               	addwf	___xxtofl@arg+3,f
  2915     0FA4                     l2759:
  2916     0FA4  3001               	movlw	1
  2917     0FA5                     u3945:
  2918     0FA5  1003               	clrc
  2919     0FA6  0CAD               	rrf	___xxtofl@arg+3,f
  2920     0FA7  0CAC               	rrf	___xxtofl@arg+2,f
  2921     0FA8  0CAB               	rrf	___xxtofl@arg+1,f
  2922     0FA9  0CAA               	rrf	___xxtofl@arg,f
  2923     0FAA  3EFF               	addlw	-1
  2924     0FAB  1D03               	skipz
  2925     0FAC  2FA5               	goto	u3945
  2926     0FAD                     l794:
  2927     0FAD  30FF               	movlw	255
  2928     0FAE  052D               	andwf	___xxtofl@arg+3,w
  2929     0FAF  1D03               	btfss	3,2
  2930     0FB0  2FB2               	goto	u3951
  2931     0FB1  2FB3               	goto	u3950
  2932     0FB2                     u3951:
  2933     0FB2  2F92               	goto	l2755
  2934     0FB3                     u3950:
  2935     0FB3  2FBF               	goto	l2763
  2936     0FB4                     l2761:
  2937     0FB4  3001               	movlw	1
  2938     0FB5  02A9               	subwf	___xxtofl@exp,f
  2939     0FB6  3001               	movlw	1
  2940     0FB7  00A4               	movwf	??___xxtofl
  2941     0FB8                     u3965:
  2942     0FB8  1003               	clrc
  2943     0FB9  0DAA               	rlf	___xxtofl@arg,f
  2944     0FBA  0DAB               	rlf	___xxtofl@arg+1,f
  2945     0FBB  0DAC               	rlf	___xxtofl@arg+2,f
  2946     0FBC  0DAD               	rlf	___xxtofl@arg+3,f
  2947     0FBD  0BA4               	decfsz	??___xxtofl,f
  2948     0FBE  2FB8               	goto	u3965
  2949     0FBF                     l2763:
  2950     0FBF  1BAC               	btfsc	___xxtofl@arg+2,7
  2951     0FC0  2FC2               	goto	u3971
  2952     0FC1  2FC3               	goto	u3970
  2953     0FC2                     u3971:
  2954     0FC2  2FC9               	goto	l801
  2955     0FC3                     u3970:
  2956     0FC3                     l2765:
  2957     0FC3  3002               	movlw	2
  2958     0FC4  0229               	subwf	___xxtofl@exp,w
  2959     0FC5  1803               	skipnc
  2960     0FC6  2FC8               	goto	u3981
  2961     0FC7  2FC9               	goto	u3980
  2962     0FC8                     u3981:
  2963     0FC8  2FB4               	goto	l2761
  2964     0FC9                     u3980:
  2965     0FC9                     l801:
  2966     0FC9  1829               	btfsc	___xxtofl@exp,0
  2967     0FCA  2FCC               	goto	u3991
  2968     0FCB  2FCD               	goto	u3990
  2969     0FCC                     u3991:
  2970     0FCC  2FD5               	goto	l802
  2971     0FCD                     u3990:
  2972     0FCD                     l2767:
  2973     0FCD  30FF               	movlw	255
  2974     0FCE  05AA               	andwf	___xxtofl@arg,f
  2975     0FCF  30FF               	movlw	255
  2976     0FD0  05AB               	andwf	___xxtofl@arg+1,f
  2977     0FD1  307F               	movlw	127
  2978     0FD2  05AC               	andwf	___xxtofl@arg+2,f
  2979     0FD3  30FF               	movlw	255
  2980     0FD4  05AD               	andwf	___xxtofl@arg+3,f
  2981     0FD5                     l802:
  2982     0FD5  1003               	clrc
  2983     0FD6  0CA9               	rrf	___xxtofl@exp,f
  2984     0FD7                     l2769:
  2985     0FD7  0829               	movf	___xxtofl@exp,w
  2986     0FD8  00A4               	movwf	??___xxtofl
  2987     0FD9  01A5               	clrf	??___xxtofl+1
  2988     0FDA  01A6               	clrf	??___xxtofl+2
  2989     0FDB  01A7               	clrf	??___xxtofl+3
  2990     0FDC  3018               	movlw	24
  2991     0FDD                     u4005:
  2992     0FDD  1003               	clrc
  2993     0FDE  0DA4               	rlf	??___xxtofl,f
  2994     0FDF  0DA5               	rlf	??___xxtofl+1,f
  2995     0FE0  0DA6               	rlf	??___xxtofl+2,f
  2996     0FE1  0DA7               	rlf	??___xxtofl+3,f
  2997     0FE2                     u4000:
  2998     0FE2  3EFF               	addlw	-1
  2999     0FE3  1D03               	skipz
  3000     0FE4  2FDD               	goto	u4005
  3001     0FE5  0824               	movf	??___xxtofl,w
  3002     0FE6  04AA               	iorwf	___xxtofl@arg,f
  3003     0FE7  0825               	movf	??___xxtofl+1,w
  3004     0FE8  04AB               	iorwf	___xxtofl@arg+1,f
  3005     0FE9  0826               	movf	??___xxtofl+2,w
  3006     0FEA  04AC               	iorwf	___xxtofl@arg+2,f
  3007     0FEB  0827               	movf	??___xxtofl+3,w
  3008     0FEC  04AD               	iorwf	___xxtofl@arg+3,f
  3009     0FED                     l2771:
  3010     0FED  0828               	movf	___xxtofl@sign,w
  3011     0FEE  1903               	btfsc	3,2
  3012     0FEF  2FF1               	goto	u4011
  3013     0FF0  2FF2               	goto	u4010
  3014     0FF1                     u4011:
  3015     0FF1  2FF7               	goto	l2777
  3016     0FF2                     u4010:
  3017     0FF2                     l2773:
  3018     0FF2  1FA3               	btfss	___xxtofl@val+3,7
  3019     0FF3  2FF5               	goto	u4021
  3020     0FF4  2FF6               	goto	u4020
  3021     0FF5                     u4021:
  3022     0FF5  2FF7               	goto	l2777
  3023     0FF6                     u4020:
  3024     0FF6                     l2775:
  3025     0FF6  17AD               	bsf	___xxtofl@arg+3,7
  3026     0FF7                     l2777:
  3027     0FF7  082D               	movf	___xxtofl@arg+3,w
  3028     0FF8  00A3               	movwf	?___xxtofl+3
  3029     0FF9  082C               	movf	___xxtofl@arg+2,w
  3030     0FFA  00A2               	movwf	?___xxtofl+2
  3031     0FFB  082B               	movf	___xxtofl@arg+1,w
  3032     0FFC  00A1               	movwf	?___xxtofl+1
  3033     0FFD  082A               	movf	___xxtofl@arg,w
  3034     0FFE  00A0               	movwf	?___xxtofl
  3035     0FFF                     l790:
  3036     0FFF  0008               	return
  3037     1000                     __end_of___xxtofl:
  3038                           
  3039                           	psect	text13
  3040     0DAF                     __ptext13:	
  3041 ;; *************** function ___fltol *****************
  3042 ;; Defined at:
  3043 ;;		line 43 in file "C:\Program Files\Microchip\xc8\v2.40\pic\sources\c90\common\fltol.c"
  3044 ;; Parameters:    Size  Location     Type
  3045 ;;  f1              4   60[BANK0 ] unsigned char 
  3046 ;; Auto vars:     Size  Location     Type
  3047 ;;  exp1            1   69[BANK0 ] unsigned char 
  3048 ;;  sign1           1   68[BANK0 ] unsigned char 
  3049 ;; Return value:  Size  Location     Type
  3050 ;;                  4   60[BANK0 ] long 
  3051 ;; Registers used:
  3052 ;;		wreg, status,2, status,0
  3053 ;; Tracked objects:
  3054 ;;		On entry : 0/0
  3055 ;;		On exit  : 0/0
  3056 ;;		Unchanged: 0/0
  3057 ;; Data sizes:     COMMON   BANK0   BANK1   BANK3   BANK2
  3058 ;;      Params:         0       4       0       0       0
  3059 ;;      Locals:         0       2       0       0       0
  3060 ;;      Temps:          0       4       0       0       0
  3061 ;;      Totals:         0      10       0       0       0
  3062 ;;Total ram usage:       10 bytes
  3063 ;; Hardware stack levels used: 1
  3064 ;; Hardware stack levels required when called: 2
  3065 ;; This function calls:
  3066 ;;		Nothing
  3067 ;; This function is called by:
  3068 ;;		_mapeo
  3069 ;; This function uses a non-reentrant model
  3070 ;;
  3071                           
  3072     0DAF                     ___fltol:	
  3073                           ;psect for function ___fltol
  3074                           
  3075     0DAF                     l2561:	
  3076                           ;incstack = 0
  3077                           ; Regs used in ___fltol: [wreg+status,2+status,0]
  3078                           
  3079     0DAF  1003               	clrc
  3080     0DB0  1283               	bcf	3,5	;RP0=0, select bank0
  3081     0DB1  1303               	bcf	3,6	;RP1=0, select bank0
  3082     0DB2  0D5E               	rlf	___fltol@f1+2,w
  3083     0DB3  0D5F               	rlf	___fltol@f1+3,w
  3084     0DB4  00E5               	movwf	___fltol@exp1
  3085     0DB5  0865               	movf	___fltol@exp1,w
  3086     0DB6  1D03               	btfss	3,2
  3087     0DB7  2DB9               	goto	u3421
  3088     0DB8  2DBA               	goto	u3420
  3089     0DB9                     u3421:
  3090     0DB9  2DC3               	goto	l2567
  3091     0DBA                     u3420:
  3092     0DBA                     l2563:
  3093     0DBA  3000               	movlw	0
  3094     0DBB  00DF               	movwf	?___fltol+3
  3095     0DBC  3000               	movlw	0
  3096     0DBD  00DE               	movwf	?___fltol+2
  3097     0DBE  3000               	movlw	0
  3098     0DBF  00DD               	movwf	?___fltol+1
  3099     0DC0  3000               	movlw	0
  3100     0DC1  00DC               	movwf	?___fltol
  3101     0DC2  2E26               	goto	l541
  3102     0DC3                     l2567:
  3103     0DC3  085C               	movf	___fltol@f1,w
  3104     0DC4  00E0               	movwf	??___fltol
  3105     0DC5  085D               	movf	___fltol@f1+1,w
  3106     0DC6  00E1               	movwf	??___fltol+1
  3107     0DC7  085E               	movf	___fltol@f1+2,w
  3108     0DC8  00E2               	movwf	??___fltol+2
  3109     0DC9  085F               	movf	___fltol@f1+3,w
  3110     0DCA  00E3               	movwf	??___fltol+3
  3111     0DCB  301F               	movlw	31
  3112     0DCC                     u3435:
  3113     0DCC  1003               	clrc
  3114     0DCD  0CE3               	rrf	??___fltol+3,f
  3115     0DCE  0CE2               	rrf	??___fltol+2,f
  3116     0DCF  0CE1               	rrf	??___fltol+1,f
  3117     0DD0  0CE0               	rrf	??___fltol,f
  3118     0DD1                     u3430:
  3119     0DD1  3EFF               	addlw	-1
  3120     0DD2  1D03               	skipz
  3121     0DD3  2DCC               	goto	u3435
  3122     0DD4  0860               	movf	??___fltol,w
  3123     0DD5  00E4               	movwf	___fltol@sign1
  3124     0DD6                     l2569:
  3125     0DD6  17DE               	bsf	___fltol@f1+2,7
  3126     0DD7                     l2571:
  3127     0DD7  30FF               	movlw	255
  3128     0DD8  05DC               	andwf	___fltol@f1,f
  3129     0DD9  30FF               	movlw	255
  3130     0DDA  05DD               	andwf	___fltol@f1+1,f
  3131     0DDB  30FF               	movlw	255
  3132     0DDC  05DE               	andwf	___fltol@f1+2,f
  3133     0DDD  3000               	movlw	0
  3134     0DDE  05DF               	andwf	___fltol@f1+3,f
  3135     0DDF                     l2573:
  3136     0DDF  3096               	movlw	150
  3137     0DE0  02E5               	subwf	___fltol@exp1,f
  3138     0DE1                     l2575:
  3139     0DE1  1FE5               	btfss	___fltol@exp1,7
  3140     0DE2  2DE4               	goto	u3441
  3141     0DE3  2DE5               	goto	u3440
  3142     0DE4                     u3441:
  3143     0DE4  2DFF               	goto	l2585
  3144     0DE5                     u3440:
  3145     0DE5                     l2577:
  3146     0DE5  0865               	movf	___fltol@exp1,w
  3147     0DE6  3A80               	xorlw	128
  3148     0DE7  3E97               	addlw	151
  3149     0DE8  1803               	skipnc
  3150     0DE9  2DEB               	goto	u3451
  3151     0DEA  2DEC               	goto	u3450
  3152     0DEB                     u3451:
  3153     0DEB  2DED               	goto	l2583
  3154     0DEC                     u3450:
  3155     0DEC  2DBA               	goto	l2563
  3156     0DED                     l2583:
  3157     0DED  3001               	movlw	1
  3158     0DEE                     u3465:
  3159     0DEE  1003               	clrc
  3160     0DEF  0CDF               	rrf	___fltol@f1+3,f
  3161     0DF0  0CDE               	rrf	___fltol@f1+2,f
  3162     0DF1  0CDD               	rrf	___fltol@f1+1,f
  3163     0DF2  0CDC               	rrf	___fltol@f1,f
  3164     0DF3  3EFF               	addlw	-1
  3165     0DF4  1D03               	skipz
  3166     0DF5  2DEE               	goto	u3465
  3167     0DF6  3001               	movlw	1
  3168     0DF7  00E0               	movwf	??___fltol
  3169     0DF8  0860               	movf	??___fltol,w
  3170     0DF9  07E5               	addwf	___fltol@exp1,f
  3171     0DFA  1D03               	btfss	3,2
  3172     0DFB  2DFD               	goto	u3471
  3173     0DFC  2DFE               	goto	u3470
  3174     0DFD                     u3471:
  3175     0DFD  2DED               	goto	l2583
  3176     0DFE                     u3470:
  3177     0DFE  2E16               	goto	l2593
  3178     0DFF                     l2585:
  3179     0DFF  3020               	movlw	32
  3180     0E00  0265               	subwf	___fltol@exp1,w
  3181     0E01  1C03               	skipc
  3182     0E02  2E04               	goto	u3481
  3183     0E03  2E05               	goto	u3480
  3184     0E04                     u3481:
  3185     0E04  2E11               	goto	l548
  3186     0E05                     u3480:
  3187     0E05  2DBA               	goto	l2563
  3188     0E06                     l2591:
  3189     0E06  3001               	movlw	1
  3190     0E07  00E0               	movwf	??___fltol
  3191     0E08                     u3495:
  3192     0E08  1003               	clrc
  3193     0E09  0DDC               	rlf	___fltol@f1,f
  3194     0E0A  0DDD               	rlf	___fltol@f1+1,f
  3195     0E0B  0DDE               	rlf	___fltol@f1+2,f
  3196     0E0C  0DDF               	rlf	___fltol@f1+3,f
  3197     0E0D  0BE0               	decfsz	??___fltol,f
  3198     0E0E  2E08               	goto	u3495
  3199     0E0F  3001               	movlw	1
  3200     0E10  02E5               	subwf	___fltol@exp1,f
  3201     0E11                     l548:
  3202     0E11  0865               	movf	___fltol@exp1,w
  3203     0E12  1D03               	btfss	3,2
  3204     0E13  2E15               	goto	u3501
  3205     0E14  2E16               	goto	u3500
  3206     0E15                     u3501:
  3207     0E15  2E06               	goto	l2591
  3208     0E16                     u3500:
  3209     0E16                     l2593:
  3210     0E16  0864               	movf	___fltol@sign1,w
  3211     0E17  1903               	btfsc	3,2
  3212     0E18  2E1A               	goto	u3511
  3213     0E19  2E1B               	goto	u3510
  3214     0E1A                     u3511:
  3215     0E1A  2E26               	goto	l551
  3216     0E1B                     u3510:
  3217     0E1B                     l2595:
  3218     0E1B  09DC               	comf	___fltol@f1,f
  3219     0E1C  09DD               	comf	___fltol@f1+1,f
  3220     0E1D  09DE               	comf	___fltol@f1+2,f
  3221     0E1E  09DF               	comf	___fltol@f1+3,f
  3222     0E1F  0ADC               	incf	___fltol@f1,f
  3223     0E20  1903               	skipnz
  3224     0E21  0ADD               	incf	___fltol@f1+1,f
  3225     0E22  1903               	skipnz
  3226     0E23  0ADE               	incf	___fltol@f1+2,f
  3227     0E24  1903               	skipnz
  3228     0E25  0ADF               	incf	___fltol@f1+3,f
  3229     0E26                     l551:
  3230     0E26                     l541:
  3231     0E26  0008               	return
  3232     0E27                     __end_of___fltol:
  3233                           
  3234                           	psect	text14
  3235     0028                     __ptext14:	
  3236 ;; *************** function ___flmul *****************
  3237 ;; Defined at:
  3238 ;;		line 8 in file "C:\Program Files\Microchip\xc8\v2.40\pic\sources\c90\common\sprcmul.c"
  3239 ;; Parameters:    Size  Location     Type
  3240 ;;  b               4   14[BANK0 ] long 
  3241 ;;  a               4   18[BANK0 ] long 
  3242 ;; Auto vars:     Size  Location     Type
  3243 ;;  prod            4   34[BANK0 ] struct .
  3244 ;;  grs             4   29[BANK0 ] unsigned long 
  3245 ;;  temp            2   38[BANK0 ] struct .
  3246 ;;  bexp            1   33[BANK0 ] unsigned char 
  3247 ;;  aexp            1   28[BANK0 ] unsigned char 
  3248 ;;  sign            1   27[BANK0 ] unsigned char 
  3249 ;; Return value:  Size  Location     Type
  3250 ;;                  4   14[BANK0 ] unsigned char 
  3251 ;; Registers used:
  3252 ;;		wreg, status,2, status,0, btemp+1, pclath, cstack
  3253 ;; Tracked objects:
  3254 ;;		On entry : 0/0
  3255 ;;		On exit  : 0/0
  3256 ;;		Unchanged: 0/0
  3257 ;; Data sizes:     COMMON   BANK0   BANK1   BANK3   BANK2
  3258 ;;      Params:         0       8       0       0       0
  3259 ;;      Locals:         0      13       0       0       0
  3260 ;;      Temps:          0       5       0       0       0
  3261 ;;      Totals:         0      26       0       0       0
  3262 ;;Total ram usage:       26 bytes
  3263 ;; Hardware stack levels used: 1
  3264 ;; Hardware stack levels required when called: 3
  3265 ;; This function calls:
  3266 ;;		__Umul8_16
  3267 ;; This function is called by:
  3268 ;;		_mapeo
  3269 ;; This function uses a non-reentrant model
  3270 ;;
  3271                           
  3272     0028                     ___flmul:	
  3273                           ;psect for function ___flmul
  3274                           
  3275     0028                     l2597:	
  3276                           ;incstack = 0
  3277                           ; Regs used in ___flmul: [wreg+status,2+status,0+btemp+1+pclath+cstack]
  3278                           
  3279     0028  1283               	bcf	3,5	;RP0=0, select bank0
  3280     0029  1303               	bcf	3,6	;RP1=0, select bank0
  3281     002A  0831               	movf	___flmul@b+3,w
  3282     002B  3980               	andlw	128
  3283     002C  00BB               	movwf	___flmul@sign
  3284     002D                     l2599:
  3285     002D  0831               	movf	___flmul@b+3,w
  3286     002E  00B6               	movwf	??___flmul
  3287     002F  0736               	addwf	??___flmul,w
  3288     0030  00C1               	movwf	___flmul@bexp
  3289     0031                     l2601:
  3290     0031  1FB0               	btfss	___flmul@b+2,7
  3291     0032  2834               	goto	u3521
  3292     0033  2835               	goto	u3520
  3293     0034                     u3521:
  3294     0034  2836               	goto	l2605
  3295     0035                     u3520:
  3296     0035                     l2603:
  3297     0035  1441               	bsf	___flmul@bexp,0
  3298     0036                     l2605:
  3299     0036  0841               	movf	___flmul@bexp,w
  3300     0037  1903               	btfsc	3,2
  3301     0038  283A               	goto	u3531
  3302     0039  283B               	goto	u3530
  3303     003A                     u3531:
  3304     003A  284A               	goto	l2613
  3305     003B                     u3530:
  3306     003B                     l2607:
  3307     003B  0A41               	incf	___flmul@bexp,w
  3308     003C  1D03               	btfss	3,2
  3309     003D  283F               	goto	u3541
  3310     003E  2840               	goto	u3540
  3311     003F                     u3541:
  3312     003F  2848               	goto	l2611
  3313     0040                     u3540:
  3314     0040                     l2609:
  3315     0040  3000               	movlw	0
  3316     0041  00B1               	movwf	___flmul@b+3
  3317     0042  3000               	movlw	0
  3318     0043  00B0               	movwf	___flmul@b+2
  3319     0044  3000               	movlw	0
  3320     0045  00AF               	movwf	___flmul@b+1
  3321     0046  3000               	movlw	0
  3322     0047  00AE               	movwf	___flmul@b
  3323     0048                     l2611:
  3324     0048  17B0               	bsf	___flmul@b+2,7
  3325     0049  2852               	goto	l2615
  3326     004A                     l2613:
  3327     004A  3000               	movlw	0
  3328     004B  00B1               	movwf	___flmul@b+3
  3329     004C  3000               	movlw	0
  3330     004D  00B0               	movwf	___flmul@b+2
  3331     004E  3000               	movlw	0
  3332     004F  00AF               	movwf	___flmul@b+1
  3333     0050  3000               	movlw	0
  3334     0051  00AE               	movwf	___flmul@b
  3335     0052                     l2615:
  3336     0052  0835               	movf	___flmul@a+3,w
  3337     0053  3980               	andlw	128
  3338     0054  00B6               	movwf	??___flmul
  3339     0055  0836               	movf	??___flmul,w
  3340     0056  06BB               	xorwf	___flmul@sign,f
  3341     0057                     l2617:
  3342     0057  0835               	movf	___flmul@a+3,w
  3343     0058  00B6               	movwf	??___flmul
  3344     0059  0736               	addwf	??___flmul,w
  3345     005A  00BC               	movwf	___flmul@aexp
  3346     005B                     l2619:
  3347     005B  1FB4               	btfss	___flmul@a+2,7
  3348     005C  285E               	goto	u3551
  3349     005D  285F               	goto	u3550
  3350     005E                     u3551:
  3351     005E  2860               	goto	l2623
  3352     005F                     u3550:
  3353     005F                     l2621:
  3354     005F  143C               	bsf	___flmul@aexp,0
  3355     0060                     l2623:
  3356     0060  083C               	movf	___flmul@aexp,w
  3357     0061  1903               	btfsc	3,2
  3358     0062  2864               	goto	u3561
  3359     0063  2865               	goto	u3560
  3360     0064                     u3561:
  3361     0064  2874               	goto	l2631
  3362     0065                     u3560:
  3363     0065                     l2625:
  3364     0065  0A3C               	incf	___flmul@aexp,w
  3365     0066  1D03               	btfss	3,2
  3366     0067  2869               	goto	u3571
  3367     0068  286A               	goto	u3570
  3368     0069                     u3571:
  3369     0069  2872               	goto	l2629
  3370     006A                     u3570:
  3371     006A                     l2627:
  3372     006A  3000               	movlw	0
  3373     006B  00B5               	movwf	___flmul@a+3
  3374     006C  3000               	movlw	0
  3375     006D  00B4               	movwf	___flmul@a+2
  3376     006E  3000               	movlw	0
  3377     006F  00B3               	movwf	___flmul@a+1
  3378     0070  3000               	movlw	0
  3379     0071  00B2               	movwf	___flmul@a
  3380     0072                     l2629:
  3381     0072  17B4               	bsf	___flmul@a+2,7
  3382     0073  287C               	goto	l2633
  3383     0074                     l2631:
  3384     0074  3000               	movlw	0
  3385     0075  00B5               	movwf	___flmul@a+3
  3386     0076  3000               	movlw	0
  3387     0077  00B4               	movwf	___flmul@a+2
  3388     0078  3000               	movlw	0
  3389     0079  00B3               	movwf	___flmul@a+1
  3390     007A  3000               	movlw	0
  3391     007B  00B2               	movwf	___flmul@a
  3392     007C                     l2633:
  3393     007C  083C               	movf	___flmul@aexp,w
  3394     007D  1903               	btfsc	3,2
  3395     007E  2880               	goto	u3581
  3396     007F  2881               	goto	u3580
  3397     0080                     u3581:
  3398     0080  2886               	goto	l2637
  3399     0081                     u3580:
  3400     0081                     l2635:
  3401     0081  0841               	movf	___flmul@bexp,w
  3402     0082  1D03               	btfss	3,2
  3403     0083  2885               	goto	u3591
  3404     0084  2886               	goto	u3590
  3405     0085                     u3591:
  3406     0085  288F               	goto	l2641
  3407     0086                     u3590:
  3408     0086                     l2637:
  3409     0086  3000               	movlw	0
  3410     0087  00B1               	movwf	?___flmul+3
  3411     0088  3000               	movlw	0
  3412     0089  00B0               	movwf	?___flmul+2
  3413     008A  3000               	movlw	0
  3414     008B  00AF               	movwf	?___flmul+1
  3415     008C  3000               	movlw	0
  3416     008D  00AE               	movwf	?___flmul
  3417     008E  2B6C               	goto	l744
  3418     008F                     l2641:
  3419     008F  082E               	movf	___flmul@b,w
  3420     0090  00F4               	movwf	__Umul8_16@multiplicand
  3421     0091  0834               	movf	___flmul@a+2,w
  3422     0092  120A  158A  2475  120A  118A  	fcall	__Umul8_16
  3423     0097  0875               	movf	?__Umul8_16+1,w
  3424     0098  1283               	bcf	3,5	;RP0=0, select bank0
  3425     0099  1303               	bcf	3,6	;RP1=0, select bank0
  3426     009A  00C7               	movwf	___flmul@temp+1
  3427     009B  0874               	movf	?__Umul8_16,w
  3428     009C  00C6               	movwf	___flmul@temp
  3429     009D                     l2643:
  3430     009D  0846               	movf	___flmul@temp,w
  3431     009E  00B6               	movwf	??___flmul
  3432     009F  01B7               	clrf	??___flmul+1
  3433     00A0  01B8               	clrf	??___flmul+2
  3434     00A1  01B9               	clrf	??___flmul+3
  3435     00A2  0839               	movf	??___flmul+3,w
  3436     00A3  00C0               	movwf	___flmul@grs+3
  3437     00A4  0838               	movf	??___flmul+2,w
  3438     00A5  00BF               	movwf	___flmul@grs+2
  3439     00A6  0837               	movf	??___flmul+1,w
  3440     00A7  00BE               	movwf	___flmul@grs+1
  3441     00A8  0836               	movf	??___flmul,w
  3442     00A9  00BD               	movwf	___flmul@grs
  3443     00AA                     l2645:
  3444     00AA  0847               	movf	___flmul@temp+1,w
  3445     00AB  00B6               	movwf	??___flmul
  3446     00AC  01B7               	clrf	??___flmul+1
  3447     00AD  01B8               	clrf	??___flmul+2
  3448     00AE  01B9               	clrf	??___flmul+3
  3449     00AF  0839               	movf	??___flmul+3,w
  3450     00B0  00C5               	movwf	___flmul@prod+3
  3451     00B1  0838               	movf	??___flmul+2,w
  3452     00B2  00C4               	movwf	___flmul@prod+2
  3453     00B3  0837               	movf	??___flmul+1,w
  3454     00B4  00C3               	movwf	___flmul@prod+1
  3455     00B5  0836               	movf	??___flmul,w
  3456     00B6  00C2               	movwf	___flmul@prod
  3457     00B7  082F               	movf	___flmul@b+1,w
  3458     00B8  00F4               	movwf	__Umul8_16@multiplicand
  3459     00B9  0833               	movf	___flmul@a+1,w
  3460     00BA  120A  158A  2475  120A  118A  	fcall	__Umul8_16
  3461     00BF  0875               	movf	?__Umul8_16+1,w
  3462     00C0  1283               	bcf	3,5	;RP0=0, select bank0
  3463     00C1  1303               	bcf	3,6	;RP1=0, select bank0
  3464     00C2  00C7               	movwf	___flmul@temp+1
  3465     00C3  0874               	movf	?__Umul8_16,w
  3466     00C4  00C6               	movwf	___flmul@temp
  3467     00C5                     l2647:
  3468     00C5  0846               	movf	___flmul@temp,w
  3469     00C6  00B6               	movwf	??___flmul
  3470     00C7  01B7               	clrf	??___flmul+1
  3471     00C8  01B8               	clrf	??___flmul+2
  3472     00C9  01B9               	clrf	??___flmul+3
  3473     00CA  0836               	movf	??___flmul,w
  3474     00CB  07BD               	addwf	___flmul@grs,f
  3475     00CC  0837               	movf	??___flmul+1,w
  3476     00CD  1103               	clrz
  3477     00CE  1803               	skipnc
  3478     00CF  3E01               	addlw	1
  3479     00D0  1903               	skipnz
  3480     00D1  28D3               	goto	u3601
  3481     00D2  07BE               	addwf	___flmul@grs+1,f
  3482     00D3                     u3601:
  3483     00D3  0838               	movf	??___flmul+2,w
  3484     00D4  1103               	clrz
  3485     00D5  1803               	skipnc
  3486     00D6  3E01               	addlw	1
  3487     00D7  1903               	skipnz
  3488     00D8  28DA               	goto	u3602
  3489     00D9  07BF               	addwf	___flmul@grs+2,f
  3490     00DA                     u3602:
  3491     00DA  0839               	movf	??___flmul+3,w
  3492     00DB  1103               	clrz
  3493     00DC  1803               	skipnc
  3494     00DD  3E01               	addlw	1
  3495     00DE  1903               	skipnz
  3496     00DF  28E1               	goto	u3603
  3497     00E0  07C0               	addwf	___flmul@grs+3,f
  3498     00E1                     u3603:
  3499     00E1                     l2649:
  3500     00E1  0847               	movf	___flmul@temp+1,w
  3501     00E2  00B6               	movwf	??___flmul
  3502     00E3  01B7               	clrf	??___flmul+1
  3503     00E4  01B8               	clrf	??___flmul+2
  3504     00E5  01B9               	clrf	??___flmul+3
  3505     00E6  0836               	movf	??___flmul,w
  3506     00E7  07C2               	addwf	___flmul@prod,f
  3507     00E8  0837               	movf	??___flmul+1,w
  3508     00E9  1103               	clrz
  3509     00EA  1803               	skipnc
  3510     00EB  3E01               	addlw	1
  3511     00EC  1903               	skipnz
  3512     00ED  28EF               	goto	u3611
  3513     00EE  07C3               	addwf	___flmul@prod+1,f
  3514     00EF                     u3611:
  3515     00EF  0838               	movf	??___flmul+2,w
  3516     00F0  1103               	clrz
  3517     00F1  1803               	skipnc
  3518     00F2  3E01               	addlw	1
  3519     00F3  1903               	skipnz
  3520     00F4  28F6               	goto	u3612
  3521     00F5  07C4               	addwf	___flmul@prod+2,f
  3522     00F6                     u3612:
  3523     00F6  0839               	movf	??___flmul+3,w
  3524     00F7  1103               	clrz
  3525     00F8  1803               	skipnc
  3526     00F9  3E01               	addlw	1
  3527     00FA  1903               	skipnz
  3528     00FB  28FD               	goto	u3613
  3529     00FC  07C5               	addwf	___flmul@prod+3,f
  3530     00FD                     u3613:
  3531     00FD  0830               	movf	___flmul@b+2,w
  3532     00FE  00F4               	movwf	__Umul8_16@multiplicand
  3533     00FF  0832               	movf	___flmul@a,w
  3534     0100  120A  158A  2475  120A  118A  	fcall	__Umul8_16
  3535     0105  0875               	movf	?__Umul8_16+1,w
  3536     0106  1283               	bcf	3,5	;RP0=0, select bank0
  3537     0107  1303               	bcf	3,6	;RP1=0, select bank0
  3538     0108  00C7               	movwf	___flmul@temp+1
  3539     0109  0874               	movf	?__Umul8_16,w
  3540     010A  00C6               	movwf	___flmul@temp
  3541     010B                     l2651:
  3542     010B  0846               	movf	___flmul@temp,w
  3543     010C  00B6               	movwf	??___flmul
  3544     010D  01B7               	clrf	??___flmul+1
  3545     010E  01B8               	clrf	??___flmul+2
  3546     010F  01B9               	clrf	??___flmul+3
  3547     0110  0836               	movf	??___flmul,w
  3548     0111  07BD               	addwf	___flmul@grs,f
  3549     0112  0837               	movf	??___flmul+1,w
  3550     0113  1103               	clrz
  3551     0114  1803               	skipnc
  3552     0115  3E01               	addlw	1
  3553     0116  1903               	skipnz
  3554     0117  2919               	goto	u3621
  3555     0118  07BE               	addwf	___flmul@grs+1,f
  3556     0119                     u3621:
  3557     0119  0838               	movf	??___flmul+2,w
  3558     011A  1103               	clrz
  3559     011B  1803               	skipnc
  3560     011C  3E01               	addlw	1
  3561     011D  1903               	skipnz
  3562     011E  2920               	goto	u3622
  3563     011F  07BF               	addwf	___flmul@grs+2,f
  3564     0120                     u3622:
  3565     0120  0839               	movf	??___flmul+3,w
  3566     0121  1103               	clrz
  3567     0122  1803               	skipnc
  3568     0123  3E01               	addlw	1
  3569     0124  1903               	skipnz
  3570     0125  2927               	goto	u3623
  3571     0126  07C0               	addwf	___flmul@grs+3,f
  3572     0127                     u3623:
  3573     0127                     l2653:
  3574     0127  0847               	movf	___flmul@temp+1,w
  3575     0128  00B6               	movwf	??___flmul
  3576     0129  01B7               	clrf	??___flmul+1
  3577     012A  01B8               	clrf	??___flmul+2
  3578     012B  01B9               	clrf	??___flmul+3
  3579     012C  0836               	movf	??___flmul,w
  3580     012D  07C2               	addwf	___flmul@prod,f
  3581     012E  0837               	movf	??___flmul+1,w
  3582     012F  1103               	clrz
  3583     0130  1803               	skipnc
  3584     0131  3E01               	addlw	1
  3585     0132  1903               	skipnz
  3586     0133  2935               	goto	u3631
  3587     0134  07C3               	addwf	___flmul@prod+1,f
  3588     0135                     u3631:
  3589     0135  0838               	movf	??___flmul+2,w
  3590     0136  1103               	clrz
  3591     0137  1803               	skipnc
  3592     0138  3E01               	addlw	1
  3593     0139  1903               	skipnz
  3594     013A  293C               	goto	u3632
  3595     013B  07C4               	addwf	___flmul@prod+2,f
  3596     013C                     u3632:
  3597     013C  0839               	movf	??___flmul+3,w
  3598     013D  1103               	clrz
  3599     013E  1803               	skipnc
  3600     013F  3E01               	addlw	1
  3601     0140  1903               	skipnz
  3602     0141  2943               	goto	u3633
  3603     0142  07C5               	addwf	___flmul@prod+3,f
  3604     0143                     u3633:
  3605     0143                     l2655:
  3606     0143  3008               	movlw	8
  3607     0144  00B6               	movwf	??___flmul
  3608     0145                     u3645:
  3609     0145  1003               	clrc
  3610     0146  0DBD               	rlf	___flmul@grs,f
  3611     0147  0DBE               	rlf	___flmul@grs+1,f
  3612     0148  0DBF               	rlf	___flmul@grs+2,f
  3613     0149  0DC0               	rlf	___flmul@grs+3,f
  3614     014A  0BB6               	decfsz	??___flmul,f
  3615     014B  2945               	goto	u3645
  3616     014C                     l2657:
  3617     014C  082F               	movf	___flmul@b+1,w
  3618     014D  00F4               	movwf	__Umul8_16@multiplicand
  3619     014E  0832               	movf	___flmul@a,w
  3620     014F  120A  158A  2475  120A  118A  	fcall	__Umul8_16
  3621     0154  0875               	movf	?__Umul8_16+1,w
  3622     0155  1283               	bcf	3,5	;RP0=0, select bank0
  3623     0156  1303               	bcf	3,6	;RP1=0, select bank0
  3624     0157  00C7               	movwf	___flmul@temp+1
  3625     0158  0874               	movf	?__Umul8_16,w
  3626     0159  00C6               	movwf	___flmul@temp
  3627     015A                     l2659:
  3628     015A  0846               	movf	___flmul@temp,w
  3629     015B  00B6               	movwf	??___flmul
  3630     015C  0847               	movf	___flmul@temp+1,w
  3631     015D  00B7               	movwf	??___flmul+1
  3632     015E  01B8               	clrf	??___flmul+2
  3633     015F  01B9               	clrf	??___flmul+3
  3634     0160  0836               	movf	??___flmul,w
  3635     0161  07BD               	addwf	___flmul@grs,f
  3636     0162  0837               	movf	??___flmul+1,w
  3637     0163  1103               	clrz
  3638     0164  1803               	skipnc
  3639     0165  3E01               	addlw	1
  3640     0166  1903               	skipnz
  3641     0167  2969               	goto	u3651
  3642     0168  07BE               	addwf	___flmul@grs+1,f
  3643     0169                     u3651:
  3644     0169  0838               	movf	??___flmul+2,w
  3645     016A  1103               	clrz
  3646     016B  1803               	skipnc
  3647     016C  3E01               	addlw	1
  3648     016D  1903               	skipnz
  3649     016E  2970               	goto	u3652
  3650     016F  07BF               	addwf	___flmul@grs+2,f
  3651     0170                     u3652:
  3652     0170  0839               	movf	??___flmul+3,w
  3653     0171  1103               	clrz
  3654     0172  1803               	skipnc
  3655     0173  3E01               	addlw	1
  3656     0174  1903               	skipnz
  3657     0175  2977               	goto	u3653
  3658     0176  07C0               	addwf	___flmul@grs+3,f
  3659     0177                     u3653:
  3660     0177                     l2661:
  3661     0177  082E               	movf	___flmul@b,w
  3662     0178  00F4               	movwf	__Umul8_16@multiplicand
  3663     0179  0833               	movf	___flmul@a+1,w
  3664     017A  120A  158A  2475  120A  118A  	fcall	__Umul8_16
  3665     017F  0875               	movf	?__Umul8_16+1,w
  3666     0180  1283               	bcf	3,5	;RP0=0, select bank0
  3667     0181  1303               	bcf	3,6	;RP1=0, select bank0
  3668     0182  00C7               	movwf	___flmul@temp+1
  3669     0183  0874               	movf	?__Umul8_16,w
  3670     0184  00C6               	movwf	___flmul@temp
  3671     0185                     l2663:
  3672     0185  0846               	movf	___flmul@temp,w
  3673     0186  00B6               	movwf	??___flmul
  3674     0187  0847               	movf	___flmul@temp+1,w
  3675     0188  00B7               	movwf	??___flmul+1
  3676     0189  01B8               	clrf	??___flmul+2
  3677     018A  01B9               	clrf	??___flmul+3
  3678     018B  0836               	movf	??___flmul,w
  3679     018C  07BD               	addwf	___flmul@grs,f
  3680     018D  0837               	movf	??___flmul+1,w
  3681     018E  1103               	clrz
  3682     018F  1803               	skipnc
  3683     0190  3E01               	addlw	1
  3684     0191  1903               	skipnz
  3685     0192  2994               	goto	u3661
  3686     0193  07BE               	addwf	___flmul@grs+1,f
  3687     0194                     u3661:
  3688     0194  0838               	movf	??___flmul+2,w
  3689     0195  1103               	clrz
  3690     0196  1803               	skipnc
  3691     0197  3E01               	addlw	1
  3692     0198  1903               	skipnz
  3693     0199  299B               	goto	u3662
  3694     019A  07BF               	addwf	___flmul@grs+2,f
  3695     019B                     u3662:
  3696     019B  0839               	movf	??___flmul+3,w
  3697     019C  1103               	clrz
  3698     019D  1803               	skipnc
  3699     019E  3E01               	addlw	1
  3700     019F  1903               	skipnz
  3701     01A0  29A2               	goto	u3663
  3702     01A1  07C0               	addwf	___flmul@grs+3,f
  3703     01A2                     u3663:
  3704     01A2                     l2665:
  3705     01A2  3008               	movlw	8
  3706     01A3  00B6               	movwf	??___flmul
  3707     01A4                     u3675:
  3708     01A4  1003               	clrc
  3709     01A5  0DBD               	rlf	___flmul@grs,f
  3710     01A6  0DBE               	rlf	___flmul@grs+1,f
  3711     01A7  0DBF               	rlf	___flmul@grs+2,f
  3712     01A8  0DC0               	rlf	___flmul@grs+3,f
  3713     01A9  0BB6               	decfsz	??___flmul,f
  3714     01AA  29A4               	goto	u3675
  3715     01AB  082E               	movf	___flmul@b,w
  3716     01AC  00F4               	movwf	__Umul8_16@multiplicand
  3717     01AD  0832               	movf	___flmul@a,w
  3718     01AE  120A  158A  2475  120A  118A  	fcall	__Umul8_16
  3719     01B3  0875               	movf	?__Umul8_16+1,w
  3720     01B4  1283               	bcf	3,5	;RP0=0, select bank0
  3721     01B5  1303               	bcf	3,6	;RP1=0, select bank0
  3722     01B6  00C7               	movwf	___flmul@temp+1
  3723     01B7  0874               	movf	?__Umul8_16,w
  3724     01B8  00C6               	movwf	___flmul@temp
  3725     01B9                     l2667:
  3726     01B9  0846               	movf	___flmul@temp,w
  3727     01BA  00B6               	movwf	??___flmul
  3728     01BB  0847               	movf	___flmul@temp+1,w
  3729     01BC  00B7               	movwf	??___flmul+1
  3730     01BD  01B8               	clrf	??___flmul+2
  3731     01BE  01B9               	clrf	??___flmul+3
  3732     01BF  0836               	movf	??___flmul,w
  3733     01C0  07BD               	addwf	___flmul@grs,f
  3734     01C1  0837               	movf	??___flmul+1,w
  3735     01C2  1103               	clrz
  3736     01C3  1803               	skipnc
  3737     01C4  3E01               	addlw	1
  3738     01C5  1903               	skipnz
  3739     01C6  29C8               	goto	u3681
  3740     01C7  07BE               	addwf	___flmul@grs+1,f
  3741     01C8                     u3681:
  3742     01C8  0838               	movf	??___flmul+2,w
  3743     01C9  1103               	clrz
  3744     01CA  1803               	skipnc
  3745     01CB  3E01               	addlw	1
  3746     01CC  1903               	skipnz
  3747     01CD  29CF               	goto	u3682
  3748     01CE  07BF               	addwf	___flmul@grs+2,f
  3749     01CF                     u3682:
  3750     01CF  0839               	movf	??___flmul+3,w
  3751     01D0  1103               	clrz
  3752     01D1  1803               	skipnc
  3753     01D2  3E01               	addlw	1
  3754     01D3  1903               	skipnz
  3755     01D4  29D6               	goto	u3683
  3756     01D5  07C0               	addwf	___flmul@grs+3,f
  3757     01D6                     u3683:
  3758     01D6                     l2669:
  3759     01D6  082F               	movf	___flmul@b+1,w
  3760     01D7  00F4               	movwf	__Umul8_16@multiplicand
  3761     01D8  0834               	movf	___flmul@a+2,w
  3762     01D9  120A  158A  2475  120A  118A  	fcall	__Umul8_16
  3763     01DE  0875               	movf	?__Umul8_16+1,w
  3764     01DF  1283               	bcf	3,5	;RP0=0, select bank0
  3765     01E0  1303               	bcf	3,6	;RP1=0, select bank0
  3766     01E1  00C7               	movwf	___flmul@temp+1
  3767     01E2  0874               	movf	?__Umul8_16,w
  3768     01E3  00C6               	movwf	___flmul@temp
  3769     01E4  0846               	movf	___flmul@temp,w
  3770     01E5  00B6               	movwf	??___flmul
  3771     01E6  0847               	movf	___flmul@temp+1,w
  3772     01E7  00B7               	movwf	??___flmul+1
  3773     01E8  01B8               	clrf	??___flmul+2
  3774     01E9  01B9               	clrf	??___flmul+3
  3775     01EA  0836               	movf	??___flmul,w
  3776     01EB  07C2               	addwf	___flmul@prod,f
  3777     01EC  0837               	movf	??___flmul+1,w
  3778     01ED  1103               	clrz
  3779     01EE  1803               	skipnc
  3780     01EF  3E01               	addlw	1
  3781     01F0  1903               	skipnz
  3782     01F1  29F3               	goto	u3691
  3783     01F2  07C3               	addwf	___flmul@prod+1,f
  3784     01F3                     u3691:
  3785     01F3  0838               	movf	??___flmul+2,w
  3786     01F4  1103               	clrz
  3787     01F5  1803               	skipnc
  3788     01F6  3E01               	addlw	1
  3789     01F7  1903               	skipnz
  3790     01F8  29FA               	goto	u3692
  3791     01F9  07C4               	addwf	___flmul@prod+2,f
  3792     01FA                     u3692:
  3793     01FA  0839               	movf	??___flmul+3,w
  3794     01FB  1103               	clrz
  3795     01FC  1803               	skipnc
  3796     01FD  3E01               	addlw	1
  3797     01FE  1903               	skipnz
  3798     01FF  2A01               	goto	u3693
  3799     0200  07C5               	addwf	___flmul@prod+3,f
  3800     0201                     u3693:
  3801     0201                     l2671:
  3802     0201  0830               	movf	___flmul@b+2,w
  3803     0202  00F4               	movwf	__Umul8_16@multiplicand
  3804     0203  0833               	movf	___flmul@a+1,w
  3805     0204  120A  158A  2475  120A  118A  	fcall	__Umul8_16
  3806     0209  0875               	movf	?__Umul8_16+1,w
  3807     020A  1283               	bcf	3,5	;RP0=0, select bank0
  3808     020B  1303               	bcf	3,6	;RP1=0, select bank0
  3809     020C  00C7               	movwf	___flmul@temp+1
  3810     020D  0874               	movf	?__Umul8_16,w
  3811     020E  00C6               	movwf	___flmul@temp
  3812     020F                     l2673:
  3813     020F  0846               	movf	___flmul@temp,w
  3814     0210  00B6               	movwf	??___flmul
  3815     0211  0847               	movf	___flmul@temp+1,w
  3816     0212  00B7               	movwf	??___flmul+1
  3817     0213  01B8               	clrf	??___flmul+2
  3818     0214  01B9               	clrf	??___flmul+3
  3819     0215  0836               	movf	??___flmul,w
  3820     0216  07C2               	addwf	___flmul@prod,f
  3821     0217  0837               	movf	??___flmul+1,w
  3822     0218  1103               	clrz
  3823     0219  1803               	skipnc
  3824     021A  3E01               	addlw	1
  3825     021B  1903               	skipnz
  3826     021C  2A1E               	goto	u3701
  3827     021D  07C3               	addwf	___flmul@prod+1,f
  3828     021E                     u3701:
  3829     021E  0838               	movf	??___flmul+2,w
  3830     021F  1103               	clrz
  3831     0220  1803               	skipnc
  3832     0221  3E01               	addlw	1
  3833     0222  1903               	skipnz
  3834     0223  2A25               	goto	u3702
  3835     0224  07C4               	addwf	___flmul@prod+2,f
  3836     0225                     u3702:
  3837     0225  0839               	movf	??___flmul+3,w
  3838     0226  1103               	clrz
  3839     0227  1803               	skipnc
  3840     0228  3E01               	addlw	1
  3841     0229  1903               	skipnz
  3842     022A  2A2C               	goto	u3703
  3843     022B  07C5               	addwf	___flmul@prod+3,f
  3844     022C                     u3703:
  3845     022C  0830               	movf	___flmul@b+2,w
  3846     022D  00F4               	movwf	__Umul8_16@multiplicand
  3847     022E  0834               	movf	___flmul@a+2,w
  3848     022F  120A  158A  2475  120A  118A  	fcall	__Umul8_16
  3849     0234  0875               	movf	?__Umul8_16+1,w
  3850     0235  1283               	bcf	3,5	;RP0=0, select bank0
  3851     0236  1303               	bcf	3,6	;RP1=0, select bank0
  3852     0237  00C7               	movwf	___flmul@temp+1
  3853     0238  0874               	movf	?__Umul8_16,w
  3854     0239  00C6               	movwf	___flmul@temp
  3855     023A                     l2675:
  3856     023A  0846               	movf	___flmul@temp,w
  3857     023B  00B6               	movwf	??___flmul
  3858     023C  0847               	movf	___flmul@temp+1,w
  3859     023D  00B7               	movwf	??___flmul+1
  3860     023E  01B8               	clrf	??___flmul+2
  3861     023F  01B9               	clrf	??___flmul+3
  3862     0240  3008               	movlw	8
  3863     0241                     u3715:
  3864     0241  1003               	clrc
  3865     0242  0DB6               	rlf	??___flmul,f
  3866     0243  0DB7               	rlf	??___flmul+1,f
  3867     0244  0DB8               	rlf	??___flmul+2,f
  3868     0245  0DB9               	rlf	??___flmul+3,f
  3869     0246                     u3710:
  3870     0246  3EFF               	addlw	-1
  3871     0247  1D03               	skipz
  3872     0248  2A41               	goto	u3715
  3873     0249  0836               	movf	??___flmul,w
  3874     024A  07C2               	addwf	___flmul@prod,f
  3875     024B  0837               	movf	??___flmul+1,w
  3876     024C  1103               	clrz
  3877     024D  1803               	skipnc
  3878     024E  3E01               	addlw	1
  3879     024F  1903               	skipnz
  3880     0250  2A52               	goto	u3721
  3881     0251  07C3               	addwf	___flmul@prod+1,f
  3882     0252                     u3721:
  3883     0252  0838               	movf	??___flmul+2,w
  3884     0253  1103               	clrz
  3885     0254  1803               	skipnc
  3886     0255  3E01               	addlw	1
  3887     0256  1903               	skipnz
  3888     0257  2A59               	goto	u3722
  3889     0258  07C4               	addwf	___flmul@prod+2,f
  3890     0259                     u3722:
  3891     0259  0839               	movf	??___flmul+3,w
  3892     025A  1103               	clrz
  3893     025B  1803               	skipnc
  3894     025C  3E01               	addlw	1
  3895     025D  1903               	skipnz
  3896     025E  2A60               	goto	u3723
  3897     025F  07C5               	addwf	___flmul@prod+3,f
  3898     0260                     u3723:
  3899     0260                     l2677:
  3900     0260  083D               	movf	___flmul@grs,w
  3901     0261  00B6               	movwf	??___flmul
  3902     0262  083E               	movf	___flmul@grs+1,w
  3903     0263  00B7               	movwf	??___flmul+1
  3904     0264  083F               	movf	___flmul@grs+2,w
  3905     0265  00B8               	movwf	??___flmul+2
  3906     0266  0840               	movf	___flmul@grs+3,w
  3907     0267  00B9               	movwf	??___flmul+3
  3908     0268  3018               	movlw	24
  3909     0269                     u3735:
  3910     0269  1003               	clrc
  3911     026A  0CB9               	rrf	??___flmul+3,f
  3912     026B  0CB8               	rrf	??___flmul+2,f
  3913     026C  0CB7               	rrf	??___flmul+1,f
  3914     026D  0CB6               	rrf	??___flmul,f
  3915     026E                     u3730:
  3916     026E  3EFF               	addlw	-1
  3917     026F  1D03               	skipz
  3918     0270  2A69               	goto	u3735
  3919     0271  0836               	movf	??___flmul,w
  3920     0272  07C2               	addwf	___flmul@prod,f
  3921     0273  0837               	movf	??___flmul+1,w
  3922     0274  1103               	clrz
  3923     0275  1803               	skipnc
  3924     0276  3E01               	addlw	1
  3925     0277  1903               	skipnz
  3926     0278  2A7A               	goto	u3741
  3927     0279  07C3               	addwf	___flmul@prod+1,f
  3928     027A                     u3741:
  3929     027A  0838               	movf	??___flmul+2,w
  3930     027B  1103               	clrz
  3931     027C  1803               	skipnc
  3932     027D  3E01               	addlw	1
  3933     027E  1903               	skipnz
  3934     027F  2A81               	goto	u3742
  3935     0280  07C4               	addwf	___flmul@prod+2,f
  3936     0281                     u3742:
  3937     0281  0839               	movf	??___flmul+3,w
  3938     0282  1103               	clrz
  3939     0283  1803               	skipnc
  3940     0284  3E01               	addlw	1
  3941     0285  1903               	skipnz
  3942     0286  2A88               	goto	u3743
  3943     0287  07C5               	addwf	___flmul@prod+3,f
  3944     0288                     u3743:
  3945     0288                     l2679:
  3946     0288  3008               	movlw	8
  3947     0289  00B6               	movwf	??___flmul
  3948     028A                     u3755:
  3949     028A  1003               	clrc
  3950     028B  0DBD               	rlf	___flmul@grs,f
  3951     028C  0DBE               	rlf	___flmul@grs+1,f
  3952     028D  0DBF               	rlf	___flmul@grs+2,f
  3953     028E  0DC0               	rlf	___flmul@grs+3,f
  3954     028F  0BB6               	decfsz	??___flmul,f
  3955     0290  2A8A               	goto	u3755
  3956     0291                     l2681:
  3957     0291  0841               	movf	___flmul@bexp,w
  3958     0292  073C               	addwf	___flmul@aexp,w
  3959     0293  00B6               	movwf	??___flmul
  3960     0294  01B7               	clrf	??___flmul+1
  3961     0295  0DB7               	rlf	??___flmul+1,f
  3962     0296  0836               	movf	??___flmul,w
  3963     0297  3E82               	addlw	130
  3964     0298  00C6               	movwf	___flmul@temp
  3965     0299  0837               	movf	??___flmul+1,w
  3966     029A  1803               	skipnc
  3967     029B  3E01               	addlw	1
  3968     029C  3EFF               	addlw	255
  3969     029D  00C7               	movwf	___flmul@temp+1
  3970     029E  2ABC               	goto	l2693
  3971     029F                     l2683:
  3972     029F  3001               	movlw	1
  3973     02A0  00B6               	movwf	??___flmul
  3974     02A1                     u3765:
  3975     02A1  1003               	clrc
  3976     02A2  0DC2               	rlf	___flmul@prod,f
  3977     02A3  0DC3               	rlf	___flmul@prod+1,f
  3978     02A4  0DC4               	rlf	___flmul@prod+2,f
  3979     02A5  0DC5               	rlf	___flmul@prod+3,f
  3980     02A6  0BB6               	decfsz	??___flmul,f
  3981     02A7  2AA1               	goto	u3765
  3982     02A8                     l2685:
  3983     02A8  1FC0               	btfss	___flmul@grs+3,7
  3984     02A9  2AAB               	goto	u3771
  3985     02AA  2AAC               	goto	u3770
  3986     02AB                     u3771:
  3987     02AB  2AAD               	goto	l2689
  3988     02AC                     u3770:
  3989     02AC                     l2687:
  3990     02AC  1442               	bsf	___flmul@prod,0
  3991     02AD                     l2689:
  3992     02AD  3001               	movlw	1
  3993     02AE  00B6               	movwf	??___flmul
  3994     02AF                     u3785:
  3995     02AF  1003               	clrc
  3996     02B0  0DBD               	rlf	___flmul@grs,f
  3997     02B1  0DBE               	rlf	___flmul@grs+1,f
  3998     02B2  0DBF               	rlf	___flmul@grs+2,f
  3999     02B3  0DC0               	rlf	___flmul@grs+3,f
  4000     02B4  0BB6               	decfsz	??___flmul,f
  4001     02B5  2AAF               	goto	u3785
  4002     02B6                     l2691:
  4003     02B6  30FF               	movlw	255
  4004     02B7  07C6               	addwf	___flmul@temp,f
  4005     02B8  1803               	skipnc
  4006     02B9  0AC7               	incf	___flmul@temp+1,f
  4007     02BA  30FF               	movlw	255
  4008     02BB  07C7               	addwf	___flmul@temp+1,f
  4009     02BC                     l2693:
  4010     02BC  1FC4               	btfss	___flmul@prod+2,7
  4011     02BD  2ABF               	goto	u3791
  4012     02BE  2AC0               	goto	u3790
  4013     02BF                     u3791:
  4014     02BF  2A9F               	goto	l2683
  4015     02C0                     u3790:
  4016     02C0                     l2695:
  4017     02C0  01BC               	clrf	___flmul@aexp
  4018     02C1                     l2697:
  4019     02C1  1FC0               	btfss	___flmul@grs+3,7
  4020     02C2  2AC4               	goto	u3801
  4021     02C3  2AC5               	goto	u3800
  4022     02C4                     u3801:
  4023     02C4  2AE1               	goto	l2705
  4024     02C5                     u3800:
  4025     02C5                     l2699:
  4026     02C5  30FF               	movlw	255
  4027     02C6  053D               	andwf	___flmul@grs,w
  4028     02C7  00B6               	movwf	??___flmul
  4029     02C8  30FF               	movlw	255
  4030     02C9  053E               	andwf	___flmul@grs+1,w
  4031     02CA  00B7               	movwf	??___flmul+1
  4032     02CB  30FF               	movlw	255
  4033     02CC  053F               	andwf	___flmul@grs+2,w
  4034     02CD  00B8               	movwf	??___flmul+2
  4035     02CE  307F               	movlw	127
  4036     02CF  0540               	andwf	___flmul@grs+3,w
  4037     02D0  00B9               	movwf	??___flmul+3
  4038     02D1  0839               	movf	??___flmul+3,w
  4039     02D2  0438               	iorwf	??___flmul+2,w
  4040     02D3  0437               	iorwf	??___flmul+1,w
  4041     02D4  0436               	iorwf	??___flmul,w
  4042     02D5  1903               	skipnz
  4043     02D6  2AD8               	goto	u3811
  4044     02D7  2AD9               	goto	u3810
  4045     02D8                     u3811:
  4046     02D8  2ADC               	goto	l750
  4047     02D9                     u3810:
  4048     02D9                     l2701:
  4049     02D9  01BC               	clrf	___flmul@aexp
  4050     02DA  0ABC               	incf	___flmul@aexp,f
  4051     02DB  2AE1               	goto	l2705
  4052     02DC                     l750:
  4053     02DC  1C42               	btfss	___flmul@prod,0
  4054     02DD  2ADF               	goto	u3821
  4055     02DE  2AE0               	goto	u3820
  4056     02DF                     u3821:
  4057     02DF  2AE1               	goto	l2705
  4058     02E0                     u3820:
  4059     02E0  2AD9               	goto	l2701
  4060     02E1                     l2705:
  4061     02E1  083C               	movf	___flmul@aexp,w
  4062     02E2  1903               	btfsc	3,2
  4063     02E3  2AE5               	goto	u3831
  4064     02E4  2AE6               	goto	u3830
  4065     02E5                     u3831:
  4066     02E5  2B17               	goto	l2715
  4067     02E6                     u3830:
  4068     02E6                     l2707:
  4069     02E6  3001               	movlw	1
  4070     02E7  07C2               	addwf	___flmul@prod,f
  4071     02E8  3000               	movlw	0
  4072     02E9  1803               	skipnc
  4073     02EA  3001               	movlw	1
  4074     02EB  07C3               	addwf	___flmul@prod+1,f
  4075     02EC  3000               	movlw	0
  4076     02ED  1803               	skipnc
  4077     02EE  3001               	movlw	1
  4078     02EF  07C4               	addwf	___flmul@prod+2,f
  4079     02F0  3000               	movlw	0
  4080     02F1  1803               	skipnc
  4081     02F2  3001               	movlw	1
  4082     02F3  07C5               	addwf	___flmul@prod+3,f
  4083     02F4                     l2709:
  4084     02F4  1C45               	btfss	___flmul@prod+3,0
  4085     02F5  2AF7               	goto	u3841
  4086     02F6  2AF8               	goto	u3840
  4087     02F7                     u3841:
  4088     02F7  2B17               	goto	l2715
  4089     02F8                     u3840:
  4090     02F8                     l2711:
  4091     02F8  0842               	movf	___flmul@prod,w
  4092     02F9  00B6               	movwf	??___flmul
  4093     02FA  0843               	movf	___flmul@prod+1,w
  4094     02FB  00B7               	movwf	??___flmul+1
  4095     02FC  0844               	movf	___flmul@prod+2,w
  4096     02FD  00B8               	movwf	??___flmul+2
  4097     02FE  0845               	movf	___flmul@prod+3,w
  4098     02FF  00B9               	movwf	??___flmul+3
  4099     0300  3001               	movlw	1
  4100     0301  00BA               	movwf	??___flmul+4
  4101     0302                     u3855:
  4102     0302  0D39               	rlf	??___flmul+3,w
  4103     0303  0CB9               	rrf	??___flmul+3,f
  4104     0304  0CB8               	rrf	??___flmul+2,f
  4105     0305  0CB7               	rrf	??___flmul+1,f
  4106     0306  0CB6               	rrf	??___flmul,f
  4107     0307                     u3850:
  4108     0307  0BBA               	decfsz	??___flmul+4,f
  4109     0308  2B02               	goto	u3855
  4110     0309  0839               	movf	??___flmul+3,w
  4111     030A  00C5               	movwf	___flmul@prod+3
  4112     030B  0838               	movf	??___flmul+2,w
  4113     030C  00C4               	movwf	___flmul@prod+2
  4114     030D  0837               	movf	??___flmul+1,w
  4115     030E  00C3               	movwf	___flmul@prod+1
  4116     030F  0836               	movf	??___flmul,w
  4117     0310  00C2               	movwf	___flmul@prod
  4118     0311                     l2713:
  4119     0311  3001               	movlw	1
  4120     0312  07C6               	addwf	___flmul@temp,f
  4121     0313  1803               	skipnc
  4122     0314  0AC7               	incf	___flmul@temp+1,f
  4123     0315  3000               	movlw	0
  4124     0316  07C7               	addwf	___flmul@temp+1,f
  4125     0317                     l2715:
  4126     0317  0847               	movf	___flmul@temp+1,w
  4127     0318  3A80               	xorlw	128
  4128     0319  00FF               	movwf	btemp+1
  4129     031A  3080               	movlw	128
  4130     031B  027F               	subwf	btemp+1,w
  4131     031C  1D03               	skipz
  4132     031D  2B20               	goto	u3865
  4133     031E  30FF               	movlw	255
  4134     031F  0246               	subwf	___flmul@temp,w
  4135     0320                     u3865:
  4136     0320  1C03               	skipc
  4137     0321  2B23               	goto	u3861
  4138     0322  2B24               	goto	u3860
  4139     0323                     u3861:
  4140     0323  2B2F               	goto	l2719
  4141     0324                     u3860:
  4142     0324                     l2717:
  4143     0324  307F               	movlw	127
  4144     0325  1283               	bcf	3,5	;RP0=0, select bank0
  4145     0326  1303               	bcf	3,6	;RP1=0, select bank0
  4146     0327  00C5               	movwf	___flmul@prod+3
  4147     0328  3080               	movlw	128
  4148     0329  00C4               	movwf	___flmul@prod+2
  4149     032A  3000               	movlw	0
  4150     032B  00C3               	movwf	___flmul@prod+1
  4151     032C  3000               	movlw	0
  4152     032D  00C2               	movwf	___flmul@prod
  4153     032E  2B60               	goto	l756
  4154     032F                     l2719:
  4155     032F  1283               	bcf	3,5	;RP0=0, select bank0
  4156     0330  1303               	bcf	3,6	;RP1=0, select bank0
  4157     0331  0847               	movf	___flmul@temp+1,w
  4158     0332  3A80               	xorlw	128
  4159     0333  00FF               	movwf	btemp+1
  4160     0334  3080               	movlw	128
  4161     0335  027F               	subwf	btemp+1,w
  4162     0336  1D03               	skipz
  4163     0337  2B3A               	goto	u3875
  4164     0338  3001               	movlw	1
  4165     0339  0246               	subwf	___flmul@temp,w
  4166     033A                     u3875:
  4167     033A  1803               	skipnc
  4168     033B  2B3D               	goto	u3871
  4169     033C  2B3E               	goto	u3870
  4170     033D                     u3871:
  4171     033D  2B4A               	goto	l2725
  4172     033E                     u3870:
  4173     033E                     l2721:
  4174     033E  3000               	movlw	0
  4175     033F  1283               	bcf	3,5	;RP0=0, select bank0
  4176     0340  1303               	bcf	3,6	;RP1=0, select bank0
  4177     0341  00C5               	movwf	___flmul@prod+3
  4178     0342  3000               	movlw	0
  4179     0343  00C4               	movwf	___flmul@prod+2
  4180     0344  3000               	movlw	0
  4181     0345  00C3               	movwf	___flmul@prod+1
  4182     0346  3000               	movlw	0
  4183     0347  00C2               	movwf	___flmul@prod
  4184     0348                     l2723:
  4185     0348  01BB               	clrf	___flmul@sign
  4186     0349  2B60               	goto	l756
  4187     034A                     l2725:
  4188     034A  1283               	bcf	3,5	;RP0=0, select bank0
  4189     034B  1303               	bcf	3,6	;RP1=0, select bank0
  4190     034C  0846               	movf	___flmul@temp,w
  4191     034D  00C1               	movwf	___flmul@bexp
  4192     034E  30FF               	movlw	255
  4193     034F  05C2               	andwf	___flmul@prod,f
  4194     0350  30FF               	movlw	255
  4195     0351  05C3               	andwf	___flmul@prod+1,f
  4196     0352  307F               	movlw	127
  4197     0353  05C4               	andwf	___flmul@prod+2,f
  4198     0354  3000               	movlw	0
  4199     0355  05C5               	andwf	___flmul@prod+3,f
  4200     0356                     l2727:
  4201     0356  1C41               	btfss	___flmul@bexp,0
  4202     0357  2B59               	goto	u3881
  4203     0358  2B5A               	goto	u3880
  4204     0359                     u3881:
  4205     0359  2B5B               	goto	l2731
  4206     035A                     u3880:
  4207     035A                     l2729:
  4208     035A  17C4               	bsf	___flmul@prod+2,7
  4209     035B                     l2731:
  4210     035B  0841               	movf	___flmul@bexp,w
  4211     035C  00B6               	movwf	??___flmul
  4212     035D  1003               	clrc
  4213     035E  0C36               	rrf	??___flmul,w
  4214     035F  00C5               	movwf	___flmul@prod+3
  4215     0360                     l756:
  4216     0360  083B               	movf	___flmul@sign,w
  4217     0361  00B6               	movwf	??___flmul
  4218     0362  0836               	movf	??___flmul,w
  4219     0363  04C5               	iorwf	___flmul@prod+3,f
  4220     0364                     l2733:
  4221     0364  0845               	movf	___flmul@prod+3,w
  4222     0365  00B1               	movwf	?___flmul+3
  4223     0366  0844               	movf	___flmul@prod+2,w
  4224     0367  00B0               	movwf	?___flmul+2
  4225     0368  0843               	movf	___flmul@prod+1,w
  4226     0369  00AF               	movwf	?___flmul+1
  4227     036A  0842               	movf	___flmul@prod,w
  4228     036B  00AE               	movwf	?___flmul
  4229     036C                     l744:
  4230     036C  0008               	return
  4231     036D                     __end_of___flmul:
  4232                           
  4233                           	psect	text15
  4234     0C75                     __ptext15:	
  4235 ;; *************** function __Umul8_16 *****************
  4236 ;; Defined at:
  4237 ;;		line 4 in file "C:\Program Files\Microchip\xc8\v2.40\pic\sources\c90\common\Umul8_16.c"
  4238 ;; Parameters:    Size  Location     Type
  4239 ;;  multiplier      1    wreg     unsigned char 
  4240 ;;  multiplicand    1    4[COMMON] unsigned char 
  4241 ;; Auto vars:     Size  Location     Type
  4242 ;;  multiplier      1    6[BANK0 ] unsigned char 
  4243 ;;  word_mpld       2    4[BANK0 ] unsigned int 
  4244 ;;  product         2    2[BANK0 ] unsigned int 
  4245 ;; Return value:  Size  Location     Type
  4246 ;;                  2    4[COMMON] unsigned int 
  4247 ;; Registers used:
  4248 ;;		wreg, status,2, status,0
  4249 ;; Tracked objects:
  4250 ;;		On entry : 0/0
  4251 ;;		On exit  : 0/0
  4252 ;;		Unchanged: 0/0
  4253 ;; Data sizes:     COMMON   BANK0   BANK1   BANK3   BANK2
  4254 ;;      Params:         2       0       0       0       0
  4255 ;;      Locals:         0       5       0       0       0
  4256 ;;      Temps:          0       2       0       0       0
  4257 ;;      Totals:         2       7       0       0       0
  4258 ;;Total ram usage:        9 bytes
  4259 ;; Hardware stack levels used: 1
  4260 ;; Hardware stack levels required when called: 2
  4261 ;; This function calls:
  4262 ;;		Nothing
  4263 ;; This function is called by:
  4264 ;;		___flmul
  4265 ;; This function uses a non-reentrant model
  4266 ;;
  4267                           
  4268     0C75                     __Umul8_16:	
  4269                           ;psect for function __Umul8_16
  4270                           
  4271                           
  4272                           ;incstack = 0
  4273                           ; Regs used in __Umul8_16: [wreg+status,2+status,0]
  4274                           ;__Umul8_16@multiplier stored from wreg
  4275     0C75  1283               	bcf	3,5	;RP0=0, select bank0
  4276     0C76  1303               	bcf	3,6	;RP1=0, select bank0
  4277     0C77  00A6               	movwf	__Umul8_16@multiplier
  4278     0C78                     l2533:
  4279     0C78  01A2               	clrf	__Umul8_16@product
  4280     0C79  01A3               	clrf	__Umul8_16@product+1
  4281     0C7A                     l2535:
  4282     0C7A  0874               	movf	__Umul8_16@multiplicand,w
  4283     0C7B  00A0               	movwf	??__Umul8_16
  4284     0C7C  01A1               	clrf	??__Umul8_16+1
  4285     0C7D  0820               	movf	??__Umul8_16,w
  4286     0C7E  00A4               	movwf	__Umul8_16@word_mpld
  4287     0C7F  0821               	movf	??__Umul8_16+1,w
  4288     0C80  00A5               	movwf	__Umul8_16@word_mpld+1
  4289     0C81                     l2537:
  4290     0C81  1C26               	btfss	__Umul8_16@multiplier,0
  4291     0C82  2C84               	goto	u3351
  4292     0C83  2C85               	goto	u3350
  4293     0C84                     u3351:
  4294     0C84  2C8B               	goto	l763
  4295     0C85                     u3350:
  4296     0C85                     l2539:
  4297     0C85  0824               	movf	__Umul8_16@word_mpld,w
  4298     0C86  07A2               	addwf	__Umul8_16@product,f
  4299     0C87  1803               	skipnc
  4300     0C88  0AA3               	incf	__Umul8_16@product+1,f
  4301     0C89  0825               	movf	__Umul8_16@word_mpld+1,w
  4302     0C8A  07A3               	addwf	__Umul8_16@product+1,f
  4303     0C8B                     l763:
  4304     0C8B  3001               	movlw	1
  4305     0C8C                     u3365:
  4306     0C8C  1003               	clrc
  4307     0C8D  0DA4               	rlf	__Umul8_16@word_mpld,f
  4308     0C8E  0DA5               	rlf	__Umul8_16@word_mpld+1,f
  4309     0C8F  3EFF               	addlw	-1
  4310     0C90  1D03               	skipz
  4311     0C91  2C8C               	goto	u3365
  4312     0C92  1003               	clrc
  4313     0C93  0CA6               	rrf	__Umul8_16@multiplier,f
  4314     0C94                     l2541:
  4315     0C94  0826               	movf	__Umul8_16@multiplier,w
  4316     0C95  1D03               	btfss	3,2
  4317     0C96  2C98               	goto	u3371
  4318     0C97  2C99               	goto	u3370
  4319     0C98                     u3371:
  4320     0C98  2C81               	goto	l2537
  4321     0C99                     u3370:
  4322     0C99                     l2543:
  4323     0C99  0823               	movf	__Umul8_16@product+1,w
  4324     0C9A  00F5               	movwf	?__Umul8_16+1
  4325     0C9B  0822               	movf	__Umul8_16@product,w
  4326     0C9C  00F4               	movwf	?__Umul8_16
  4327     0C9D                     l765:
  4328     0C9D  0008               	return
  4329     0C9E                     __end_of__Umul8_16:
  4330                           
  4331                           	psect	text16
  4332     036D                     __ptext16:	
  4333 ;; *************** function ___fladd *****************
  4334 ;; Defined at:
  4335 ;;		line 10 in file "C:\Program Files\Microchip\xc8\v2.40\pic\sources\c90\common\sprcadd.c"
  4336 ;; Parameters:    Size  Location     Type
  4337 ;;  b               4   40[BANK0 ] unsigned int 
  4338 ;;  a               4   44[BANK0 ] unsigned int 
  4339 ;; Auto vars:     Size  Location     Type
  4340 ;;  grs             1   59[BANK0 ] unsigned char 
  4341 ;;  bexp            1   58[BANK0 ] unsigned char 
  4342 ;;  aexp            1   57[BANK0 ] unsigned char 
  4343 ;;  signs           1   56[BANK0 ] unsigned char 
  4344 ;; Return value:  Size  Location     Type
  4345 ;;                  4   40[BANK0 ] unsigned char 
  4346 ;; Registers used:
  4347 ;;		wreg, status,2, status,0, btemp+1
  4348 ;; Tracked objects:
  4349 ;;		On entry : 0/0
  4350 ;;		On exit  : 0/0
  4351 ;;		Unchanged: 0/0
  4352 ;; Data sizes:     COMMON   BANK0   BANK1   BANK3   BANK2
  4353 ;;      Params:         0       8       0       0       0
  4354 ;;      Locals:         0       4       0       0       0
  4355 ;;      Temps:          0       8       0       0       0
  4356 ;;      Totals:         0      20       0       0       0
  4357 ;;Total ram usage:       20 bytes
  4358 ;; Hardware stack levels used: 1
  4359 ;; Hardware stack levels required when called: 2
  4360 ;; This function calls:
  4361 ;;		Nothing
  4362 ;; This function is called by:
  4363 ;;		_mapeo
  4364 ;; This function uses a non-reentrant model
  4365 ;;
  4366                           
  4367     036D                     ___fladd:	
  4368                           ;psect for function ___fladd
  4369                           
  4370     036D                     l1805:	
  4371                           ;incstack = 0
  4372                           ; Regs used in ___fladd: [wreg+status,2+status,0+btemp+1]
  4373                           
  4374     036D  1283               	bcf	3,5	;RP0=0, select bank0
  4375     036E  1303               	bcf	3,6	;RP1=0, select bank0
  4376     036F  084B               	movf	___fladd@b+3,w
  4377     0370  3980               	andlw	128
  4378     0371  00D8               	movwf	___fladd@signs
  4379     0372                     l1807:
  4380     0372  084B               	movf	___fladd@b+3,w
  4381     0373  00D0               	movwf	??___fladd
  4382     0374  0750               	addwf	??___fladd,w
  4383     0375  00DA               	movwf	___fladd@bexp
  4384     0376                     l1809:
  4385     0376  1FCA               	btfss	___fladd@b+2,7
  4386     0377  2B79               	goto	u1951
  4387     0378  2B7A               	goto	u1950
  4388     0379                     u1951:
  4389     0379  2B7B               	goto	l1813
  4390     037A                     u1950:
  4391     037A                     l1811:
  4392     037A  145A               	bsf	___fladd@bexp,0
  4393     037B                     l1813:
  4394     037B  085A               	movf	___fladd@bexp,w
  4395     037C  1903               	btfsc	3,2
  4396     037D  2B7F               	goto	u1961
  4397     037E  2B80               	goto	u1960
  4398     037F                     u1961:
  4399     037F  2B90               	goto	l1823
  4400     0380                     u1960:
  4401     0380                     l1815:
  4402     0380  0A5A               	incf	___fladd@bexp,w
  4403     0381  1D03               	btfss	3,2
  4404     0382  2B84               	goto	u1971
  4405     0383  2B85               	goto	u1970
  4406     0384                     u1971:
  4407     0384  2B8D               	goto	l1819
  4408     0385                     u1970:
  4409     0385                     l1817:
  4410     0385  3000               	movlw	0
  4411     0386  00CB               	movwf	___fladd@b+3
  4412     0387  3000               	movlw	0
  4413     0388  00CA               	movwf	___fladd@b+2
  4414     0389  3000               	movlw	0
  4415     038A  00C9               	movwf	___fladd@b+1
  4416     038B  3000               	movlw	0
  4417     038C  00C8               	movwf	___fladd@b
  4418     038D                     l1819:
  4419     038D  17CA               	bsf	___fladd@b+2,7
  4420     038E                     l1821:
  4421     038E  01CB               	clrf	___fladd@b+3
  4422     038F  2B98               	goto	l1825
  4423     0390                     l1823:
  4424     0390  3000               	movlw	0
  4425     0391  00CB               	movwf	___fladd@b+3
  4426     0392  3000               	movlw	0
  4427     0393  00CA               	movwf	___fladd@b+2
  4428     0394  3000               	movlw	0
  4429     0395  00C9               	movwf	___fladd@b+1
  4430     0396  3000               	movlw	0
  4431     0397  00C8               	movwf	___fladd@b
  4432     0398                     l1825:
  4433     0398  084F               	movf	___fladd@a+3,w
  4434     0399  3980               	andlw	128
  4435     039A  00D9               	movwf	___fladd@aexp
  4436     039B                     l1827:
  4437     039B  0859               	movf	___fladd@aexp,w
  4438     039C  0658               	xorwf	___fladd@signs,w
  4439     039D  1903               	skipnz
  4440     039E  2BA0               	goto	u1981
  4441     039F  2BA1               	goto	u1980
  4442     03A0                     u1981:
  4443     03A0  2BA2               	goto	l1831
  4444     03A1                     u1980:
  4445     03A1                     l1829:
  4446     03A1  1758               	bsf	___fladd@signs,6
  4447     03A2                     l1831:
  4448     03A2  084F               	movf	___fladd@a+3,w
  4449     03A3  00D0               	movwf	??___fladd
  4450     03A4  0750               	addwf	??___fladd,w
  4451     03A5  00D9               	movwf	___fladd@aexp
  4452     03A6                     l1833:
  4453     03A6  1FCE               	btfss	___fladd@a+2,7
  4454     03A7  2BA9               	goto	u1991
  4455     03A8  2BAA               	goto	u1990
  4456     03A9                     u1991:
  4457     03A9  2BAB               	goto	l1837
  4458     03AA                     u1990:
  4459     03AA                     l1835:
  4460     03AA  1459               	bsf	___fladd@aexp,0
  4461     03AB                     l1837:
  4462     03AB  0859               	movf	___fladd@aexp,w
  4463     03AC  1903               	btfsc	3,2
  4464     03AD  2BAF               	goto	u2001
  4465     03AE  2BB0               	goto	u2000
  4466     03AF                     u2001:
  4467     03AF  2BC0               	goto	l1847
  4468     03B0                     u2000:
  4469     03B0                     l1839:
  4470     03B0  0A59               	incf	___fladd@aexp,w
  4471     03B1  1D03               	btfss	3,2
  4472     03B2  2BB4               	goto	u2011
  4473     03B3  2BB5               	goto	u2010
  4474     03B4                     u2011:
  4475     03B4  2BBD               	goto	l1843
  4476     03B5                     u2010:
  4477     03B5                     l1841:
  4478     03B5  3000               	movlw	0
  4479     03B6  00CF               	movwf	___fladd@a+3
  4480     03B7  3000               	movlw	0
  4481     03B8  00CE               	movwf	___fladd@a+2
  4482     03B9  3000               	movlw	0
  4483     03BA  00CD               	movwf	___fladd@a+1
  4484     03BB  3000               	movlw	0
  4485     03BC  00CC               	movwf	___fladd@a
  4486     03BD                     l1843:
  4487     03BD  17CE               	bsf	___fladd@a+2,7
  4488     03BE                     l1845:
  4489     03BE  01CF               	clrf	___fladd@a+3
  4490     03BF  2BC8               	goto	l648
  4491     03C0                     l1847:
  4492     03C0  3000               	movlw	0
  4493     03C1  00CF               	movwf	___fladd@a+3
  4494     03C2  3000               	movlw	0
  4495     03C3  00CE               	movwf	___fladd@a+2
  4496     03C4  3000               	movlw	0
  4497     03C5  00CD               	movwf	___fladd@a+1
  4498     03C6  3000               	movlw	0
  4499     03C7  00CC               	movwf	___fladd@a
  4500     03C8                     l648:
  4501     03C8  085A               	movf	___fladd@bexp,w
  4502     03C9  0259               	subwf	___fladd@aexp,w
  4503     03CA  1803               	skipnc
  4504     03CB  2BCD               	goto	u2021
  4505     03CC  2BCE               	goto	u2020
  4506     03CD                     u2021:
  4507     03CD  2BF4               	goto	l1883
  4508     03CE                     u2020:
  4509     03CE                     l1849:
  4510     03CE  1F58               	btfss	___fladd@signs,6
  4511     03CF  2BD1               	goto	u2031
  4512     03D0  2BD2               	goto	u2030
  4513     03D1                     u2031:
  4514     03D1  2BD6               	goto	l1853
  4515     03D2                     u2030:
  4516     03D2                     l1851:
  4517     03D2  3080               	movlw	128
  4518     03D3  00D0               	movwf	??___fladd
  4519     03D4  0850               	movf	??___fladd,w
  4520     03D5  06D8               	xorwf	___fladd@signs,f
  4521     03D6                     l1853:
  4522     03D6  085A               	movf	___fladd@bexp,w
  4523     03D7  00DB               	movwf	___fladd@grs
  4524     03D8                     l1855:
  4525     03D8  0859               	movf	___fladd@aexp,w
  4526     03D9  00DA               	movwf	___fladd@bexp
  4527     03DA                     l1857:
  4528     03DA  085B               	movf	___fladd@grs,w
  4529     03DB  00D9               	movwf	___fladd@aexp
  4530     03DC                     l1859:
  4531     03DC  0848               	movf	___fladd@b,w
  4532     03DD  00DB               	movwf	___fladd@grs
  4533     03DE                     l1861:
  4534     03DE  084C               	movf	___fladd@a,w
  4535     03DF  00C8               	movwf	___fladd@b
  4536     03E0                     l1863:
  4537     03E0  085B               	movf	___fladd@grs,w
  4538     03E1  00CC               	movwf	___fladd@a
  4539     03E2                     l1865:
  4540     03E2  0849               	movf	___fladd@b+1,w
  4541     03E3  00DB               	movwf	___fladd@grs
  4542     03E4                     l1867:
  4543     03E4  084D               	movf	___fladd@a+1,w
  4544     03E5  00C9               	movwf	___fladd@b+1
  4545     03E6                     l1869:
  4546     03E6  085B               	movf	___fladd@grs,w
  4547     03E7  00CD               	movwf	___fladd@a+1
  4548     03E8                     l1871:
  4549     03E8  084A               	movf	___fladd@b+2,w
  4550     03E9  00DB               	movwf	___fladd@grs
  4551     03EA                     l1873:
  4552     03EA  084E               	movf	___fladd@a+2,w
  4553     03EB  00CA               	movwf	___fladd@b+2
  4554     03EC                     l1875:
  4555     03EC  085B               	movf	___fladd@grs,w
  4556     03ED  00CE               	movwf	___fladd@a+2
  4557     03EE                     l1877:
  4558     03EE  084B               	movf	___fladd@b+3,w
  4559     03EF  00DB               	movwf	___fladd@grs
  4560     03F0                     l1879:
  4561     03F0  084F               	movf	___fladd@a+3,w
  4562     03F1  00CB               	movwf	___fladd@b+3
  4563     03F2                     l1881:
  4564     03F2  085B               	movf	___fladd@grs,w
  4565     03F3  00CF               	movwf	___fladd@a+3
  4566     03F4                     l1883:
  4567     03F4  01DB               	clrf	___fladd@grs
  4568     03F5                     l1885:
  4569     03F5  0859               	movf	___fladd@aexp,w
  4570     03F6  00D0               	movwf	??___fladd
  4571     03F7  01D1               	clrf	??___fladd+1
  4572     03F8  0851               	movf	??___fladd+1,w
  4573     03F9  00D3               	movwf	??___fladd+3
  4574     03FA  085A               	movf	___fladd@bexp,w
  4575     03FB  0250               	subwf	??___fladd,w
  4576     03FC  00D2               	movwf	??___fladd+2
  4577     03FD  1C03               	skipc
  4578     03FE  03D3               	decf	??___fladd+3,f
  4579     03FF  0853               	movf	??___fladd+3,w
  4580     0400  3A80               	xorlw	128
  4581     0401  00FF               	movwf	btemp+1
  4582     0402  3080               	movlw	128
  4583     0403  027F               	subwf	btemp+1,w
  4584     0404  1D03               	skipz
  4585     0405  2C08               	goto	u2045
  4586     0406  301A               	movlw	26
  4587     0407  0252               	subwf	??___fladd+2,w
  4588     0408                     u2045:
  4589     0408  1C03               	skipc
  4590     0409  2C0B               	goto	u2041
  4591     040A  2C0C               	goto	u2040
  4592     040B                     u2041:
  4593     040B  2C43               	goto	l1901
  4594     040C                     u2040:
  4595     040C                     l1887:
  4596     040C  1283               	bcf	3,5	;RP0=0, select bank0
  4597     040D  1303               	bcf	3,6	;RP1=0, select bank0
  4598     040E  084B               	movf	___fladd@b+3,w
  4599     040F  044A               	iorwf	___fladd@b+2,w
  4600     0410  0449               	iorwf	___fladd@b+1,w
  4601     0411  0448               	iorwf	___fladd@b,w
  4602     0412  1D03               	skipz
  4603     0413  2C15               	goto	u2051
  4604     0414  2C17               	goto	u2050
  4605     0415                     u2051:
  4606     0415  3001               	movlw	1
  4607     0416  2C18               	goto	u2060
  4608     0417                     u2050:
  4609     0417  3000               	movlw	0
  4610     0418                     u2060:
  4611     0418  00DB               	movwf	___fladd@grs
  4612     0419  3000               	movlw	0
  4613     041A  00CB               	movwf	___fladd@b+3
  4614     041B  3000               	movlw	0
  4615     041C  00CA               	movwf	___fladd@b+2
  4616     041D  3000               	movlw	0
  4617     041E  00C9               	movwf	___fladd@b+1
  4618     041F  3000               	movlw	0
  4619     0420  00C8               	movwf	___fladd@b
  4620     0421  0859               	movf	___fladd@aexp,w
  4621     0422  00DA               	movwf	___fladd@bexp
  4622     0423  2C4B               	goto	l652
  4623     0424                     l654:
  4624     0424  1C5B               	btfss	___fladd@grs,0
  4625     0425  2C27               	goto	u2071
  4626     0426  2C28               	goto	u2070
  4627     0427                     u2071:
  4628     0427  2C2F               	goto	l1891
  4629     0428                     u2070:
  4630     0428                     l1889:
  4631     0428  085B               	movf	___fladd@grs,w
  4632     0429  00D0               	movwf	??___fladd
  4633     042A  1003               	clrc
  4634     042B  0C50               	rrf	??___fladd,w
  4635     042C  3801               	iorlw	1
  4636     042D  00DB               	movwf	___fladd@grs
  4637     042E  2C31               	goto	l1893
  4638     042F                     l1891:
  4639     042F  1003               	clrc
  4640     0430  0CDB               	rrf	___fladd@grs,f
  4641     0431                     l1893:
  4642     0431  1C48               	btfss	___fladd@b,0
  4643     0432  2C34               	goto	u2081
  4644     0433  2C35               	goto	u2080
  4645     0434                     u2081:
  4646     0434  2C36               	goto	l1897
  4647     0435                     u2080:
  4648     0435                     l1895:
  4649     0435  17DB               	bsf	___fladd@grs,7
  4650     0436                     l1897:
  4651     0436  3001               	movlw	1
  4652     0437  00D0               	movwf	??___fladd
  4653     0438                     u2095:
  4654     0438  0D4B               	rlf	___fladd@b+3,w
  4655     0439  0CCB               	rrf	___fladd@b+3,f
  4656     043A  0CCA               	rrf	___fladd@b+2,f
  4657     043B  0CC9               	rrf	___fladd@b+1,f
  4658     043C  0CC8               	rrf	___fladd@b,f
  4659     043D  0BD0               	decfsz	??___fladd& (0+127),f
  4660     043E  2C38               	goto	u2095
  4661     043F                     l1899:
  4662     043F  3001               	movlw	1
  4663     0440  00D0               	movwf	??___fladd
  4664     0441  0850               	movf	??___fladd,w
  4665     0442  07DA               	addwf	___fladd@bexp,f
  4666     0443                     l1901:
  4667     0443  1283               	bcf	3,5	;RP0=0, select bank0
  4668     0444  1303               	bcf	3,6	;RP1=0, select bank0
  4669     0445  0859               	movf	___fladd@aexp,w
  4670     0446  025A               	subwf	___fladd@bexp,w
  4671     0447  1C03               	skipc
  4672     0448  2C4A               	goto	u2101
  4673     0449  2C4B               	goto	u2100
  4674     044A                     u2101:
  4675     044A  2C24               	goto	l654
  4676     044B                     u2100:
  4677     044B                     l652:
  4678     044B  1B58               	btfsc	___fladd@signs,6
  4679     044C  2C4E               	goto	u2111
  4680     044D  2C4F               	goto	u2110
  4681     044E                     u2111:
  4682     044E  2C98               	goto	l1927
  4683     044F                     u2110:
  4684     044F                     l1903:
  4685     044F  085A               	movf	___fladd@bexp,w
  4686     0450  1D03               	btfss	3,2
  4687     0451  2C53               	goto	u2121
  4688     0452  2C54               	goto	u2120
  4689     0453                     u2121:
  4690     0453  2C5D               	goto	l1909
  4691     0454                     u2120:
  4692     0454                     l1905:
  4693     0454  3000               	movlw	0
  4694     0455  00CB               	movwf	?___fladd+3
  4695     0456  3000               	movlw	0
  4696     0457  00CA               	movwf	?___fladd+2
  4697     0458  3000               	movlw	0
  4698     0459  00C9               	movwf	?___fladd+1
  4699     045A  3000               	movlw	0
  4700     045B  00C8               	movwf	?___fladd
  4701     045C  2DC4               	goto	l661
  4702     045D                     l1909:
  4703     045D  084C               	movf	___fladd@a,w
  4704     045E  07C8               	addwf	___fladd@b,f
  4705     045F  084D               	movf	___fladd@a+1,w
  4706     0460  1103               	clrz
  4707     0461  1803               	skipnc
  4708     0462  3E01               	addlw	1
  4709     0463  1903               	skipnz
  4710     0464  2C66               	goto	u2131
  4711     0465  07C9               	addwf	___fladd@b+1,f
  4712     0466                     u2131:
  4713     0466  084E               	movf	___fladd@a+2,w
  4714     0467  1103               	clrz
  4715     0468  1803               	skipnc
  4716     0469  3E01               	addlw	1
  4717     046A  1903               	skipnz
  4718     046B  2C6D               	goto	u2132
  4719     046C  07CA               	addwf	___fladd@b+2,f
  4720     046D                     u2132:
  4721     046D  084F               	movf	___fladd@a+3,w
  4722     046E  1103               	clrz
  4723     046F  1803               	skipnc
  4724     0470  3E01               	addlw	1
  4725     0471  1903               	skipnz
  4726     0472  2C74               	goto	u2133
  4727     0473  07CB               	addwf	___fladd@b+3,f
  4728     0474                     u2133:
  4729     0474                     l1911:
  4730     0474  1C4B               	btfss	___fladd@b+3,0
  4731     0475  2C77               	goto	u2141
  4732     0476  2C78               	goto	u2140
  4733     0477                     u2141:
  4734     0477  2D4C               	goto	l1961
  4735     0478                     u2140:
  4736     0478                     l1913:
  4737     0478  1C5B               	btfss	___fladd@grs,0
  4738     0479  2C7B               	goto	u2151
  4739     047A  2C7C               	goto	u2150
  4740     047B                     u2151:
  4741     047B  2C83               	goto	l1917
  4742     047C                     u2150:
  4743     047C                     l1915:
  4744     047C  085B               	movf	___fladd@grs,w
  4745     047D  00D0               	movwf	??___fladd
  4746     047E  1003               	clrc
  4747     047F  0C50               	rrf	??___fladd,w
  4748     0480  3801               	iorlw	1
  4749     0481  00DB               	movwf	___fladd@grs
  4750     0482  2C85               	goto	l1919
  4751     0483                     l1917:
  4752     0483  1003               	clrc
  4753     0484  0CDB               	rrf	___fladd@grs,f
  4754     0485                     l1919:
  4755     0485  1C48               	btfss	___fladd@b,0
  4756     0486  2C88               	goto	u2161
  4757     0487  2C89               	goto	u2160
  4758     0488                     u2161:
  4759     0488  2C8A               	goto	l1923
  4760     0489                     u2160:
  4761     0489                     l1921:
  4762     0489  17DB               	bsf	___fladd@grs,7
  4763     048A                     l1923:
  4764     048A  3001               	movlw	1
  4765     048B  00D0               	movwf	??___fladd
  4766     048C                     u2175:
  4767     048C  0D4B               	rlf	___fladd@b+3,w
  4768     048D  0CCB               	rrf	___fladd@b+3,f
  4769     048E  0CCA               	rrf	___fladd@b+2,f
  4770     048F  0CC9               	rrf	___fladd@b+1,f
  4771     0490  0CC8               	rrf	___fladd@b,f
  4772     0491  0BD0               	decfsz	??___fladd& (0+127),f
  4773     0492  2C8C               	goto	u2175
  4774     0493                     l1925:
  4775     0493  3001               	movlw	1
  4776     0494  00D0               	movwf	??___fladd
  4777     0495  0850               	movf	??___fladd,w
  4778     0496  07DA               	addwf	___fladd@bexp,f
  4779     0497  2D4C               	goto	l1961
  4780     0498                     l1927:
  4781     0498  084B               	movf	___fladd@b+3,w
  4782     0499  3A80               	xorlw	128
  4783     049A  00FF               	movwf	btemp+1
  4784     049B  084F               	movf	___fladd@a+3,w
  4785     049C  3A80               	xorlw	128
  4786     049D  027F               	subwf	btemp+1,w
  4787     049E  1D03               	skipz
  4788     049F  2CAA               	goto	u2183
  4789     04A0  084E               	movf	___fladd@a+2,w
  4790     04A1  024A               	subwf	___fladd@b+2,w
  4791     04A2  1D03               	skipz
  4792     04A3  2CAA               	goto	u2183
  4793     04A4  084D               	movf	___fladd@a+1,w
  4794     04A5  0249               	subwf	___fladd@b+1,w
  4795     04A6  1D03               	skipz
  4796     04A7  2CAA               	goto	u2183
  4797     04A8  084C               	movf	___fladd@a,w
  4798     04A9  0248               	subwf	___fladd@b,w
  4799     04AA                     u2183:
  4800     04AA  1803               	skipnc
  4801     04AB  2CAD               	goto	u2181
  4802     04AC  2CAE               	goto	u2180
  4803     04AD                     u2181:
  4804     04AD  2D06               	goto	l1937
  4805     04AE                     u2180:
  4806     04AE                     l1929:
  4807     04AE  30FF               	movlw	255
  4808     04AF  00D0               	movwf	??___fladd
  4809     04B0  30FF               	movlw	255
  4810     04B1  00D1               	movwf	??___fladd+1
  4811     04B2  30FF               	movlw	255
  4812     04B3  00D2               	movwf	??___fladd+2
  4813     04B4  30FF               	movlw	255
  4814     04B5  00D3               	movwf	??___fladd+3
  4815     04B6  084C               	movf	___fladd@a,w
  4816     04B7  00D4               	movwf	??___fladd+4
  4817     04B8  084D               	movf	___fladd@a+1,w
  4818     04B9  00D5               	movwf	??___fladd+5
  4819     04BA  084E               	movf	___fladd@a+2,w
  4820     04BB  00D6               	movwf	??___fladd+6
  4821     04BC  084F               	movf	___fladd@a+3,w
  4822     04BD  00D7               	movwf	??___fladd+7
  4823     04BE  0848               	movf	___fladd@b,w
  4824     04BF  02D4               	subwf	??___fladd+4,f
  4825     04C0  0849               	movf	___fladd@b+1,w
  4826     04C1  1C03               	skipc
  4827     04C2  0F49               	incfsz	___fladd@b+1,w
  4828     04C3  2CC5               	goto	u2191
  4829     04C4  2CC6               	goto	u2192
  4830     04C5                     u2191:
  4831     04C5  02D5               	subwf	??___fladd+5,f
  4832     04C6                     u2192:
  4833     04C6  084A               	movf	___fladd@b+2,w
  4834     04C7  1C03               	skipc
  4835     04C8  0F4A               	incfsz	___fladd@b+2,w
  4836     04C9  2CCB               	goto	u2193
  4837     04CA  2CCC               	goto	u2194
  4838     04CB                     u2193:
  4839     04CB  02D6               	subwf	??___fladd+6,f
  4840     04CC                     u2194:
  4841     04CC  084B               	movf	___fladd@b+3,w
  4842     04CD  1C03               	skipc
  4843     04CE  0F4B               	incfsz	___fladd@b+3,w
  4844     04CF  2CD1               	goto	u2195
  4845     04D0  2CD2               	goto	u2196
  4846     04D1                     u2195:
  4847     04D1  02D7               	subwf	??___fladd+7,f
  4848     04D2                     u2196:
  4849     04D2  0854               	movf	??___fladd+4,w
  4850     04D3  07D0               	addwf	??___fladd,f
  4851     04D4  0855               	movf	??___fladd+5,w
  4852     04D5  1803               	skipnc
  4853     04D6  0F55               	incfsz	??___fladd+5,w
  4854     04D7  2CD9               	goto	u2200
  4855     04D8  2CDA               	goto	u2201
  4856     04D9                     u2200:
  4857     04D9  07D1               	addwf	??___fladd+1,f
  4858     04DA                     u2201:
  4859     04DA  0856               	movf	??___fladd+6,w
  4860     04DB  1803               	skipnc
  4861     04DC  0F56               	incfsz	??___fladd+6,w
  4862     04DD  2CDF               	goto	u2202
  4863     04DE  2CE0               	goto	u2203
  4864     04DF                     u2202:
  4865     04DF  07D2               	addwf	??___fladd+2,f
  4866     04E0                     u2203:
  4867     04E0  0857               	movf	??___fladd+7,w
  4868     04E1  1803               	skipnc
  4869     04E2  0A57               	incf	??___fladd+7,w
  4870     04E3  07D3               	addwf	??___fladd+3,f
  4871     04E4  0853               	movf	??___fladd+3,w
  4872     04E5  00CB               	movwf	___fladd@b+3
  4873     04E6  0852               	movf	??___fladd+2,w
  4874     04E7  00CA               	movwf	___fladd@b+2
  4875     04E8  0851               	movf	??___fladd+1,w
  4876     04E9  00C9               	movwf	___fladd@b+1
  4877     04EA  0850               	movf	??___fladd,w
  4878     04EB  00C8               	movwf	___fladd@b
  4879     04EC                     l1931:
  4880     04EC  3080               	movlw	128
  4881     04ED  00D0               	movwf	??___fladd
  4882     04EE  0850               	movf	??___fladd,w
  4883     04EF  06D8               	xorwf	___fladd@signs,f
  4884     04F0  09DB               	comf	___fladd@grs,f
  4885     04F1  0ADB               	incf	___fladd@grs,f
  4886     04F2                     l1933:
  4887     04F2  085B               	movf	___fladd@grs,w
  4888     04F3  1D03               	btfss	3,2
  4889     04F4  2CF6               	goto	u2211
  4890     04F5  2CF7               	goto	u2210
  4891     04F6                     u2211:
  4892     04F6  2D14               	goto	l669
  4893     04F7                     u2210:
  4894     04F7                     l1935:
  4895     04F7  3001               	movlw	1
  4896     04F8  07C8               	addwf	___fladd@b,f
  4897     04F9  3000               	movlw	0
  4898     04FA  1803               	skipnc
  4899     04FB  3001               	movlw	1
  4900     04FC  07C9               	addwf	___fladd@b+1,f
  4901     04FD  3000               	movlw	0
  4902     04FE  1803               	skipnc
  4903     04FF  3001               	movlw	1
  4904     0500  07CA               	addwf	___fladd@b+2,f
  4905     0501  3000               	movlw	0
  4906     0502  1803               	skipnc
  4907     0503  3001               	movlw	1
  4908     0504  07CB               	addwf	___fladd@b+3,f
  4909     0505  2D14               	goto	l669
  4910     0506                     l1937:
  4911     0506  084C               	movf	___fladd@a,w
  4912     0507  02C8               	subwf	___fladd@b,f
  4913     0508  084D               	movf	___fladd@a+1,w
  4914     0509  1C03               	skipc
  4915     050A  0F4D               	incfsz	___fladd@a+1,w
  4916     050B  02C9               	subwf	___fladd@b+1,f
  4917     050C  084E               	movf	___fladd@a+2,w
  4918     050D  1C03               	skipc
  4919     050E  0F4E               	incfsz	___fladd@a+2,w
  4920     050F  02CA               	subwf	___fladd@b+2,f
  4921     0510  084F               	movf	___fladd@a+3,w
  4922     0511  1C03               	skipc
  4923     0512  0F4F               	incfsz	___fladd@a+3,w
  4924     0513  02CB               	subwf	___fladd@b+3,f
  4925     0514                     l669:
  4926     0514  084B               	movf	___fladd@b+3,w
  4927     0515  044A               	iorwf	___fladd@b+2,w
  4928     0516  0449               	iorwf	___fladd@b+1,w
  4929     0517  0448               	iorwf	___fladd@b,w
  4930     0518  1D03               	skipz
  4931     0519  2D1B               	goto	u2221
  4932     051A  2D1C               	goto	u2220
  4933     051B                     u2221:
  4934     051B  2D48               	goto	l1959
  4935     051C                     u2220:
  4936     051C                     l1939:
  4937     051C  085B               	movf	___fladd@grs,w
  4938     051D  1D03               	btfss	3,2
  4939     051E  2D20               	goto	u2231
  4940     051F  2D21               	goto	u2230
  4941     0520                     u2231:
  4942     0520  2D48               	goto	l1959
  4943     0521                     u2230:
  4944     0521                     l1941:
  4945     0521  3000               	movlw	0
  4946     0522  00CB               	movwf	?___fladd+3
  4947     0523  3000               	movlw	0
  4948     0524  00CA               	movwf	?___fladd+2
  4949     0525  3000               	movlw	0
  4950     0526  00C9               	movwf	?___fladd+1
  4951     0527  3000               	movlw	0
  4952     0528  00C8               	movwf	?___fladd
  4953     0529  2DC4               	goto	l661
  4954     052A                     l1945:
  4955     052A  3001               	movlw	1
  4956     052B  00D0               	movwf	??___fladd
  4957     052C                     u2245:
  4958     052C  1003               	clrc
  4959     052D  0DC8               	rlf	___fladd@b,f
  4960     052E  0DC9               	rlf	___fladd@b+1,f
  4961     052F  0DCA               	rlf	___fladd@b+2,f
  4962     0530  0DCB               	rlf	___fladd@b+3,f
  4963     0531  0BD0               	decfsz	??___fladd,f
  4964     0532  2D2C               	goto	u2245
  4965     0533                     l1947:
  4966     0533  1FDB               	btfss	___fladd@grs,7
  4967     0534  2D36               	goto	u2251
  4968     0535  2D37               	goto	u2250
  4969     0536                     u2251:
  4970     0536  2D38               	goto	l673
  4971     0537                     u2250:
  4972     0537                     l1949:
  4973     0537  1448               	bsf	___fladd@b,0
  4974     0538                     l673:
  4975     0538  1C5B               	btfss	___fladd@grs,0
  4976     0539  2D3B               	goto	u2261
  4977     053A  2D3C               	goto	u2260
  4978     053B                     u2261:
  4979     053B  2D3F               	goto	l1953
  4980     053C                     u2260:
  4981     053C                     l1951:
  4982     053C  1403               	setc
  4983     053D  0DDB               	rlf	___fladd@grs,f
  4984     053E  2D41               	goto	l1955
  4985     053F                     l1953:
  4986     053F  1003               	clrc
  4987     0540  0DDB               	rlf	___fladd@grs,f
  4988     0541                     l1955:
  4989     0541  085A               	movf	___fladd@bexp,w
  4990     0542  1903               	btfsc	3,2
  4991     0543  2D45               	goto	u2271
  4992     0544  2D46               	goto	u2270
  4993     0545                     u2271:
  4994     0545  2D48               	goto	l1959
  4995     0546                     u2270:
  4996     0546                     l1957:
  4997     0546  3001               	movlw	1
  4998     0547  02DA               	subwf	___fladd@bexp,f
  4999     0548                     l1959:
  5000     0548  1FCA               	btfss	___fladd@b+2,7
  5001     0549  2D4B               	goto	u2281
  5002     054A  2D4C               	goto	u2280
  5003     054B                     u2281:
  5004     054B  2D2A               	goto	l1945
  5005     054C                     u2280:
  5006     054C                     l1961:
  5007     054C  01D9               	clrf	___fladd@aexp
  5008     054D                     l1963:
  5009     054D  1FDB               	btfss	___fladd@grs,7
  5010     054E  2D50               	goto	u2291
  5011     054F  2D51               	goto	u2290
  5012     0550                     u2291:
  5013     0550  2D5F               	goto	l1971
  5014     0551                     u2290:
  5015     0551                     l1965:
  5016     0551  085B               	movf	___fladd@grs,w
  5017     0552  397F               	andlw	127
  5018     0553  1903               	btfsc	3,2
  5019     0554  2D56               	goto	u2301
  5020     0555  2D57               	goto	u2300
  5021     0556                     u2301:
  5022     0556  2D5A               	goto	l679
  5023     0557                     u2300:
  5024     0557                     l1967:
  5025     0557  01D9               	clrf	___fladd@aexp
  5026     0558  0AD9               	incf	___fladd@aexp,f
  5027     0559  2D5F               	goto	l1971
  5028     055A                     l679:
  5029     055A  1C48               	btfss	___fladd@b,0
  5030     055B  2D5D               	goto	u2311
  5031     055C  2D5E               	goto	u2310
  5032     055D                     u2311:
  5033     055D  2D5F               	goto	l1971
  5034     055E                     u2310:
  5035     055E  2D57               	goto	l1967
  5036     055F                     l1971:
  5037     055F  0859               	movf	___fladd@aexp,w
  5038     0560  1903               	btfsc	3,2
  5039     0561  2D63               	goto	u2321
  5040     0562  2D64               	goto	u2320
  5041     0563                     u2321:
  5042     0563  2D98               	goto	l682
  5043     0564                     u2320:
  5044     0564                     l1973:
  5045     0564  3001               	movlw	1
  5046     0565  07C8               	addwf	___fladd@b,f
  5047     0566  3000               	movlw	0
  5048     0567  1803               	skipnc
  5049     0568  3001               	movlw	1
  5050     0569  07C9               	addwf	___fladd@b+1,f
  5051     056A  3000               	movlw	0
  5052     056B  1803               	skipnc
  5053     056C  3001               	movlw	1
  5054     056D  07CA               	addwf	___fladd@b+2,f
  5055     056E  3000               	movlw	0
  5056     056F  1803               	skipnc
  5057     0570  3001               	movlw	1
  5058     0571  07CB               	addwf	___fladd@b+3,f
  5059     0572                     l1975:
  5060     0572  1C4B               	btfss	___fladd@b+3,0
  5061     0573  2D75               	goto	u2331
  5062     0574  2D76               	goto	u2330
  5063     0575                     u2331:
  5064     0575  2D98               	goto	l682
  5065     0576                     u2330:
  5066     0576                     l1977:
  5067     0576  0848               	movf	___fladd@b,w
  5068     0577  00D0               	movwf	??___fladd
  5069     0578  0849               	movf	___fladd@b+1,w
  5070     0579  00D1               	movwf	??___fladd+1
  5071     057A  084A               	movf	___fladd@b+2,w
  5072     057B  00D2               	movwf	??___fladd+2
  5073     057C  084B               	movf	___fladd@b+3,w
  5074     057D  00D3               	movwf	??___fladd+3
  5075     057E  3001               	movlw	1
  5076     057F  00D4               	movwf	??___fladd+4
  5077     0580                     u2345:
  5078     0580  0D53               	rlf	??___fladd+3,w
  5079     0581  0CD3               	rrf	??___fladd+3,f
  5080     0582  0CD2               	rrf	??___fladd+2,f
  5081     0583  0CD1               	rrf	??___fladd+1,f
  5082     0584  0CD0               	rrf	??___fladd,f
  5083     0585                     u2340:
  5084     0585  0BD4               	decfsz	??___fladd+4,f
  5085     0586  2D80               	goto	u2345
  5086     0587  0853               	movf	??___fladd+3,w
  5087     0588  00CB               	movwf	___fladd@b+3
  5088     0589  0852               	movf	??___fladd+2,w
  5089     058A  00CA               	movwf	___fladd@b+2
  5090     058B  0851               	movf	??___fladd+1,w
  5091     058C  00C9               	movwf	___fladd@b+1
  5092     058D  0850               	movf	??___fladd,w
  5093     058E  00C8               	movwf	___fladd@b
  5094     058F  0A5A               	incf	___fladd@bexp,w
  5095     0590  1903               	btfsc	3,2
  5096     0591  2D93               	goto	u2351
  5097     0592  2D94               	goto	u2350
  5098     0593                     u2351:
  5099     0593  2D98               	goto	l682
  5100     0594                     u2350:
  5101     0594                     l1979:
  5102     0594  3001               	movlw	1
  5103     0595  00D0               	movwf	??___fladd
  5104     0596  0850               	movf	??___fladd,w
  5105     0597  07DA               	addwf	___fladd@bexp,f
  5106     0598                     l682:
  5107     0598  0A5A               	incf	___fladd@bexp,w
  5108     0599  1903               	btfsc	3,2
  5109     059A  2D9C               	goto	u2361
  5110     059B  2D9D               	goto	u2360
  5111     059C                     u2361:
  5112     059C  2DA2               	goto	l1983
  5113     059D                     u2360:
  5114     059D                     l1981:
  5115     059D  085A               	movf	___fladd@bexp,w
  5116     059E  1D03               	btfss	3,2
  5117     059F  2DA1               	goto	u2371
  5118     05A0  2DA2               	goto	u2370
  5119     05A1                     u2371:
  5120     05A1  2DB0               	goto	l1989
  5121     05A2                     u2370:
  5122     05A2                     l1983:
  5123     05A2  3000               	movlw	0
  5124     05A3  00CB               	movwf	___fladd@b+3
  5125     05A4  3000               	movlw	0
  5126     05A5  00CA               	movwf	___fladd@b+2
  5127     05A6  3000               	movlw	0
  5128     05A7  00C9               	movwf	___fladd@b+1
  5129     05A8  3000               	movlw	0
  5130     05A9  00C8               	movwf	___fladd@b
  5131     05AA                     l1985:
  5132     05AA  085A               	movf	___fladd@bexp,w
  5133     05AB  1D03               	btfss	3,2
  5134     05AC  2DAE               	goto	u2381
  5135     05AD  2DAF               	goto	u2380
  5136     05AE                     u2381:
  5137     05AE  2DB0               	goto	l1989
  5138     05AF                     u2380:
  5139     05AF                     l1987:
  5140     05AF  01D8               	clrf	___fladd@signs
  5141     05B0                     l1989:
  5142     05B0  1C5A               	btfss	___fladd@bexp,0
  5143     05B1  2DB3               	goto	u2391
  5144     05B2  2DB4               	goto	u2390
  5145     05B3                     u2391:
  5146     05B3  2DB6               	goto	l1993
  5147     05B4                     u2390:
  5148     05B4                     l1991:
  5149     05B4  17CA               	bsf	___fladd@b+2,7
  5150     05B5  2DBA               	goto	l690
  5151     05B6                     l1993:
  5152     05B6  307F               	movlw	127
  5153     05B7  00D0               	movwf	??___fladd
  5154     05B8  0850               	movf	??___fladd,w
  5155     05B9  05CA               	andwf	___fladd@b+2,f
  5156     05BA                     l690:
  5157     05BA  085A               	movf	___fladd@bexp,w
  5158     05BB  00D0               	movwf	??___fladd
  5159     05BC  1003               	clrc
  5160     05BD  0C50               	rrf	??___fladd,w
  5161     05BE  00CB               	movwf	___fladd@b+3
  5162     05BF                     l1995:
  5163     05BF  1FD8               	btfss	___fladd@signs,7
  5164     05C0  2DC2               	goto	u2401
  5165     05C1  2DC3               	goto	u2400
  5166     05C2                     u2401:
  5167     05C2  2DC4               	goto	l691
  5168     05C3                     u2400:
  5169     05C3                     l1997:
  5170     05C3  17CB               	bsf	___fladd@b+3,7
  5171     05C4                     l691:
  5172     05C4                     l661:
  5173     05C4  0008               	return
  5174     05C5                     __end_of___fladd:
  5175                           
  5176                           	psect	text17
  5177     07C7                     __ptext17:	
  5178 ;; *************** function _map *****************
  5179 ;; Defined at:
  5180 ;;		line 279 in file "main.c"
  5181 ;; Parameters:    Size  Location     Type
  5182 ;;  value           1    wreg     unsigned char 
  5183 ;;  inputmin        2   13[BANK0 ] int 
  5184 ;;  inputmax        2   15[BANK0 ] int 
  5185 ;;  outmin          2   17[BANK0 ] int 
  5186 ;;  outmax          2   19[BANK0 ] int 
  5187 ;; Auto vars:     Size  Location     Type
  5188 ;;  value           1   22[BANK0 ] unsigned char 
  5189 ;; Return value:  Size  Location     Type
  5190 ;;                  2   13[BANK0 ] unsigned int 
  5191 ;; Registers used:
  5192 ;;		wreg, status,2, status,0, pclath, cstack
  5193 ;; Tracked objects:
  5194 ;;		On entry : 0/0
  5195 ;;		On exit  : 0/0
  5196 ;;		Unchanged: 0/0
  5197 ;; Data sizes:     COMMON   BANK0   BANK1   BANK3   BANK2
  5198 ;;      Params:         0       8       0       0       0
  5199 ;;      Locals:         0       1       0       0       0
  5200 ;;      Temps:          0       1       0       0       0
  5201 ;;      Totals:         0      10       0       0       0
  5202 ;;Total ram usage:       10 bytes
  5203 ;; Hardware stack levels used: 1
  5204 ;; Hardware stack levels required when called: 3
  5205 ;; This function calls:
  5206 ;;		___awdiv
  5207 ;;		___wmul
  5208 ;; This function is called by:
  5209 ;;		_controlmotores
  5210 ;; This function uses a non-reentrant model
  5211 ;;
  5212                           
  5213     07C7                     _map:	
  5214                           ;psect for function _map
  5215                           
  5216                           
  5217                           ;incstack = 0
  5218                           ; Regs used in _map: [wreg+status,2+status,0+pclath+cstack]
  5219                           ;map@value stored from wreg
  5220     07C7  1283               	bcf	3,5	;RP0=0, select bank0
  5221     07C8  1303               	bcf	3,6	;RP1=0, select bank0
  5222     07C9  00B6               	movwf	map@value
  5223     07CA                     l2781:
  5224                           
  5225                           ;main.c: 280:     return ((value - inputmin)*(outmax-outmin)) / (inputmax-inputmin)+outm
      +                          in;
  5226     07CA  082D               	movf	map@inputmin,w
  5227     07CB  022F               	subwf	map@inputmax,w
  5228     07CC  00A4               	movwf	___awdiv@divisor
  5229     07CD  082E               	movf	map@inputmin+1,w
  5230     07CE  1C03               	skipc
  5231     07CF  0A2E               	incf	map@inputmin+1,w
  5232     07D0  0230               	subwf	map@inputmax+1,w
  5233     07D1  00A5               	movwf	___awdiv@divisor+1
  5234     07D2  0836               	movf	map@value,w
  5235     07D3  00B5               	movwf	??_map
  5236     07D4  082D               	movf	map@inputmin,w
  5237     07D5  0235               	subwf	??_map,w
  5238     07D6  00A0               	movwf	___wmul@multiplier
  5239     07D7  092E               	comf	map@inputmin+1,w
  5240     07D8  1803               	skipnc
  5241     07D9  3E01               	addlw	1
  5242     07DA  00A1               	movwf	___wmul@multiplier+1
  5243     07DB  0831               	movf	map@outmin,w
  5244     07DC  0233               	subwf	map@outmax,w
  5245     07DD  00A2               	movwf	___wmul@multiplicand
  5246     07DE  0832               	movf	map@outmin+1,w
  5247     07DF  1C03               	skipc
  5248     07E0  0A32               	incf	map@outmin+1,w
  5249     07E1  0234               	subwf	map@outmax+1,w
  5250     07E2  00A3               	movwf	___wmul@multiplicand+1
  5251     07E3  120A  158A  2427  120A  118A  	fcall	___wmul
  5252     07E8  1283               	bcf	3,5	;RP0=0, select bank0
  5253     07E9  1303               	bcf	3,6	;RP1=0, select bank0
  5254     07EA  0821               	movf	?___wmul+1,w
  5255     07EB  00A7               	movwf	___awdiv@dividend+1
  5256     07EC  0820               	movf	?___wmul,w
  5257     07ED  00A6               	movwf	___awdiv@dividend
  5258     07EE  120A  158A  2546  120A  118A  	fcall	___awdiv
  5259     07F3  1283               	bcf	3,5	;RP0=0, select bank0
  5260     07F4  1303               	bcf	3,6	;RP1=0, select bank0
  5261     07F5  0831               	movf	map@outmin,w
  5262     07F6  0724               	addwf	?___awdiv,w
  5263     07F7  00AD               	movwf	?_map
  5264     07F8  0832               	movf	map@outmin+1,w
  5265     07F9  1803               	skipnc
  5266     07FA  0A32               	incf	map@outmin+1,w
  5267     07FB  0725               	addwf	?___awdiv+1,w
  5268     07FC  00AE               	movwf	?_map+1
  5269     07FD                     l216:
  5270     07FD  0008               	return
  5271     07FE                     __end_of_map:
  5272                           
  5273                           	psect	text18
  5274     0C27                     __ptext18:	
  5275 ;; *************** function ___wmul *****************
  5276 ;; Defined at:
  5277 ;;		line 15 in file "C:\Program Files\Microchip\xc8\v2.40\pic\sources\c90\common\Umul16.c"
  5278 ;; Parameters:    Size  Location     Type
  5279 ;;  multiplier      2    0[BANK0 ] unsigned int 
  5280 ;;  multiplicand    2    2[BANK0 ] unsigned int 
  5281 ;; Auto vars:     Size  Location     Type
  5282 ;;  product         2    4[COMMON] unsigned int 
  5283 ;; Return value:  Size  Location     Type
  5284 ;;                  2    0[BANK0 ] unsigned int 
  5285 ;; Registers used:
  5286 ;;		wreg, status,2, status,0
  5287 ;; Tracked objects:
  5288 ;;		On entry : 0/0
  5289 ;;		On exit  : 0/0
  5290 ;;		Unchanged: 0/0
  5291 ;; Data sizes:     COMMON   BANK0   BANK1   BANK3   BANK2
  5292 ;;      Params:         0       4       0       0       0
  5293 ;;      Locals:         2       0       0       0       0
  5294 ;;      Temps:          0       0       0       0       0
  5295 ;;      Totals:         2       4       0       0       0
  5296 ;;Total ram usage:        6 bytes
  5297 ;; Hardware stack levels used: 1
  5298 ;; Hardware stack levels required when called: 2
  5299 ;; This function calls:
  5300 ;;		Nothing
  5301 ;; This function is called by:
  5302 ;;		_map
  5303 ;; This function uses a non-reentrant model
  5304 ;;
  5305                           
  5306     0C27                     ___wmul:	
  5307                           ;psect for function ___wmul
  5308                           
  5309     0C27                     l2547:	
  5310                           ;incstack = 0
  5311                           ; Regs used in ___wmul: [wreg+status,2+status,0]
  5312                           
  5313     0C27  01F4               	clrf	___wmul@product
  5314     0C28  01F5               	clrf	___wmul@product+1
  5315     0C29                     l2549:
  5316     0C29  1283               	bcf	3,5	;RP0=0, select bank0
  5317     0C2A  1303               	bcf	3,6	;RP1=0, select bank0
  5318     0C2B  1C20               	btfss	___wmul@multiplier,0
  5319     0C2C  2C2E               	goto	u3381
  5320     0C2D  2C2F               	goto	u3380
  5321     0C2E                     u3381:
  5322     0C2E  2C35               	goto	l355
  5323     0C2F                     u3380:
  5324     0C2F                     l2551:
  5325     0C2F  0822               	movf	___wmul@multiplicand,w
  5326     0C30  07F4               	addwf	___wmul@product,f
  5327     0C31  1803               	skipnc
  5328     0C32  0AF5               	incf	___wmul@product+1,f
  5329     0C33  0823               	movf	___wmul@multiplicand+1,w
  5330     0C34  07F5               	addwf	___wmul@product+1,f
  5331     0C35                     l355:
  5332     0C35  3001               	movlw	1
  5333     0C36                     u3395:
  5334     0C36  1003               	clrc
  5335     0C37  0DA2               	rlf	___wmul@multiplicand,f
  5336     0C38  0DA3               	rlf	___wmul@multiplicand+1,f
  5337     0C39  3EFF               	addlw	-1
  5338     0C3A  1D03               	skipz
  5339     0C3B  2C36               	goto	u3395
  5340     0C3C                     l2553:
  5341     0C3C  3001               	movlw	1
  5342     0C3D                     u3405:
  5343     0C3D  1003               	clrc
  5344     0C3E  0CA1               	rrf	___wmul@multiplier+1,f
  5345     0C3F  0CA0               	rrf	___wmul@multiplier,f
  5346     0C40  3EFF               	addlw	-1
  5347     0C41  1D03               	skipz
  5348     0C42  2C3D               	goto	u3405
  5349     0C43                     l2555:
  5350     0C43  0820               	movf	___wmul@multiplier,w
  5351     0C44  0421               	iorwf	___wmul@multiplier+1,w
  5352     0C45  1D03               	btfss	3,2
  5353     0C46  2C48               	goto	u3411
  5354     0C47  2C49               	goto	u3410
  5355     0C48                     u3411:
  5356     0C48  2C29               	goto	l2549
  5357     0C49                     u3410:
  5358     0C49                     l2557:
  5359     0C49  0875               	movf	___wmul@product+1,w
  5360     0C4A  00A1               	movwf	?___wmul+1
  5361     0C4B  0874               	movf	___wmul@product,w
  5362     0C4C  00A0               	movwf	?___wmul
  5363     0C4D                     l357:
  5364     0C4D  0008               	return
  5365     0C4E                     __end_of___wmul:
  5366                           
  5367                           	psect	text19
  5368     0D46                     __ptext19:	
  5369 ;; *************** function ___awdiv *****************
  5370 ;; Defined at:
  5371 ;;		line 5 in file "C:\Program Files\Microchip\xc8\v2.40\pic\sources\c90\common\awdiv.c"
  5372 ;; Parameters:    Size  Location     Type
  5373 ;;  divisor         2    4[BANK0 ] int 
  5374 ;;  dividend        2    6[BANK0 ] int 
  5375 ;; Auto vars:     Size  Location     Type
  5376 ;;  quotient        2   11[BANK0 ] int 
  5377 ;;  sign            1   10[BANK0 ] unsigned char 
  5378 ;;  counter         1    9[BANK0 ] unsigned char 
  5379 ;; Return value:  Size  Location     Type
  5380 ;;                  2    4[BANK0 ] int 
  5381 ;; Registers used:
  5382 ;;		wreg, status,2, status,0
  5383 ;; Tracked objects:
  5384 ;;		On entry : 0/0
  5385 ;;		On exit  : 0/0
  5386 ;;		Unchanged: 0/0
  5387 ;; Data sizes:     COMMON   BANK0   BANK1   BANK3   BANK2
  5388 ;;      Params:         0       4       0       0       0
  5389 ;;      Locals:         0       4       0       0       0
  5390 ;;      Temps:          0       1       0       0       0
  5391 ;;      Totals:         0       9       0       0       0
  5392 ;;Total ram usage:        9 bytes
  5393 ;; Hardware stack levels used: 1
  5394 ;; Hardware stack levels required when called: 2
  5395 ;; This function calls:
  5396 ;;		Nothing
  5397 ;; This function is called by:
  5398 ;;		_map
  5399 ;; This function uses a non-reentrant model
  5400 ;;
  5401                           
  5402     0D46                     ___awdiv:	
  5403                           ;psect for function ___awdiv
  5404                           
  5405     0D46                     l1725:	
  5406                           ;incstack = 0
  5407                           ; Regs used in ___awdiv: [wreg+status,2+status,0]
  5408                           
  5409     0D46  1283               	bcf	3,5	;RP0=0, select bank0
  5410     0D47  1303               	bcf	3,6	;RP1=0, select bank0
  5411     0D48  01AA               	clrf	___awdiv@sign
  5412     0D49                     l1727:
  5413     0D49  1FA5               	btfss	___awdiv@divisor+1,7
  5414     0D4A  2D4C               	goto	u1751
  5415     0D4B  2D4D               	goto	u1750
  5416     0D4C                     u1751:
  5417     0D4C  2D54               	goto	l1733
  5418     0D4D                     u1750:
  5419     0D4D                     l1729:
  5420     0D4D  09A4               	comf	___awdiv@divisor,f
  5421     0D4E  09A5               	comf	___awdiv@divisor+1,f
  5422     0D4F  0AA4               	incf	___awdiv@divisor,f
  5423     0D50  1903               	skipnz
  5424     0D51  0AA5               	incf	___awdiv@divisor+1,f
  5425     0D52                     l1731:
  5426     0D52  01AA               	clrf	___awdiv@sign
  5427     0D53  0AAA               	incf	___awdiv@sign,f
  5428     0D54                     l1733:
  5429     0D54  1FA7               	btfss	___awdiv@dividend+1,7
  5430     0D55  2D57               	goto	u1761
  5431     0D56  2D58               	goto	u1760
  5432     0D57                     u1761:
  5433     0D57  2D61               	goto	l1739
  5434     0D58                     u1760:
  5435     0D58                     l1735:
  5436     0D58  09A6               	comf	___awdiv@dividend,f
  5437     0D59  09A7               	comf	___awdiv@dividend+1,f
  5438     0D5A  0AA6               	incf	___awdiv@dividend,f
  5439     0D5B  1903               	skipnz
  5440     0D5C  0AA7               	incf	___awdiv@dividend+1,f
  5441     0D5D                     l1737:
  5442     0D5D  3001               	movlw	1
  5443     0D5E  00A8               	movwf	??___awdiv
  5444     0D5F  0828               	movf	??___awdiv,w
  5445     0D60  06AA               	xorwf	___awdiv@sign,f
  5446     0D61                     l1739:
  5447     0D61  01AB               	clrf	___awdiv@quotient
  5448     0D62  01AC               	clrf	___awdiv@quotient+1
  5449     0D63                     l1741:
  5450     0D63  0824               	movf	___awdiv@divisor,w
  5451     0D64  0425               	iorwf	___awdiv@divisor+1,w
  5452     0D65  1903               	btfsc	3,2
  5453     0D66  2D68               	goto	u1771
  5454     0D67  2D69               	goto	u1770
  5455     0D68                     u1771:
  5456     0D68  2DA0               	goto	l1761
  5457     0D69                     u1770:
  5458     0D69                     l1743:
  5459     0D69  01A9               	clrf	___awdiv@counter
  5460     0D6A  0AA9               	incf	___awdiv@counter,f
  5461     0D6B  2D77               	goto	l1749
  5462     0D6C                     l1745:
  5463     0D6C  3001               	movlw	1
  5464     0D6D                     u1785:
  5465     0D6D  1003               	clrc
  5466     0D6E  0DA4               	rlf	___awdiv@divisor,f
  5467     0D6F  0DA5               	rlf	___awdiv@divisor+1,f
  5468     0D70  3EFF               	addlw	-1
  5469     0D71  1D03               	skipz
  5470     0D72  2D6D               	goto	u1785
  5471     0D73                     l1747:
  5472     0D73  3001               	movlw	1
  5473     0D74  00A8               	movwf	??___awdiv
  5474     0D75  0828               	movf	??___awdiv,w
  5475     0D76  07A9               	addwf	___awdiv@counter,f
  5476     0D77                     l1749:
  5477     0D77  1FA5               	btfss	___awdiv@divisor+1,7
  5478     0D78  2D7A               	goto	u1791
  5479     0D79  2D7B               	goto	u1790
  5480     0D7A                     u1791:
  5481     0D7A  2D6C               	goto	l1745
  5482     0D7B                     u1790:
  5483     0D7B                     l1751:
  5484     0D7B  3001               	movlw	1
  5485     0D7C                     u1805:
  5486     0D7C  1003               	clrc
  5487     0D7D  0DAB               	rlf	___awdiv@quotient,f
  5488     0D7E  0DAC               	rlf	___awdiv@quotient+1,f
  5489     0D7F  3EFF               	addlw	-1
  5490     0D80  1D03               	skipz
  5491     0D81  2D7C               	goto	u1805
  5492     0D82  0825               	movf	___awdiv@divisor+1,w
  5493     0D83  0227               	subwf	___awdiv@dividend+1,w
  5494     0D84  1D03               	skipz
  5495     0D85  2D88               	goto	u1815
  5496     0D86  0824               	movf	___awdiv@divisor,w
  5497     0D87  0226               	subwf	___awdiv@dividend,w
  5498     0D88                     u1815:
  5499     0D88  1C03               	skipc
  5500     0D89  2D8B               	goto	u1811
  5501     0D8A  2D8C               	goto	u1810
  5502     0D8B                     u1811:
  5503     0D8B  2D93               	goto	l1757
  5504     0D8C                     u1810:
  5505     0D8C                     l1753:
  5506     0D8C  0824               	movf	___awdiv@divisor,w
  5507     0D8D  02A6               	subwf	___awdiv@dividend,f
  5508     0D8E  0825               	movf	___awdiv@divisor+1,w
  5509     0D8F  1C03               	skipc
  5510     0D90  03A7               	decf	___awdiv@dividend+1,f
  5511     0D91  02A7               	subwf	___awdiv@dividend+1,f
  5512     0D92                     l1755:
  5513     0D92  142B               	bsf	___awdiv@quotient,0
  5514     0D93                     l1757:
  5515     0D93  3001               	movlw	1
  5516     0D94                     u1825:
  5517     0D94  1003               	clrc
  5518     0D95  0CA5               	rrf	___awdiv@divisor+1,f
  5519     0D96  0CA4               	rrf	___awdiv@divisor,f
  5520     0D97  3EFF               	addlw	-1
  5521     0D98  1D03               	skipz
  5522     0D99  2D94               	goto	u1825
  5523     0D9A                     l1759:
  5524     0D9A  3001               	movlw	1
  5525     0D9B  02A9               	subwf	___awdiv@counter,f
  5526     0D9C  1D03               	btfss	3,2
  5527     0D9D  2D9F               	goto	u1831
  5528     0D9E  2DA0               	goto	u1830
  5529     0D9F                     u1831:
  5530     0D9F  2D7B               	goto	l1751
  5531     0DA0                     u1830:
  5532     0DA0                     l1761:
  5533     0DA0  082A               	movf	___awdiv@sign,w
  5534     0DA1  1903               	btfsc	3,2
  5535     0DA2  2DA4               	goto	u1841
  5536     0DA3  2DA5               	goto	u1840
  5537     0DA4                     u1841:
  5538     0DA4  2DAA               	goto	l1765
  5539     0DA5                     u1840:
  5540     0DA5                     l1763:
  5541     0DA5  09AB               	comf	___awdiv@quotient,f
  5542     0DA6  09AC               	comf	___awdiv@quotient+1,f
  5543     0DA7  0AAB               	incf	___awdiv@quotient,f
  5544     0DA8  1903               	skipnz
  5545     0DA9  0AAC               	incf	___awdiv@quotient+1,f
  5546     0DAA                     l1765:
  5547     0DAA  082C               	movf	___awdiv@quotient+1,w
  5548     0DAB  00A5               	movwf	?___awdiv+1
  5549     0DAC  082B               	movf	___awdiv@quotient,w
  5550     0DAD  00A4               	movwf	?___awdiv
  5551     0DAE                     l508:
  5552     0DAE  0008               	return
  5553     0DAF                     __end_of___awdiv:
  5554                           
  5555                           	psect	text20
  5556     0E27                     __ptext20:	
  5557 ;; *************** function _isr *****************
  5558 ;; Defined at:
  5559 ;;		line 71 in file "main.c"
  5560 ;; Parameters:    Size  Location     Type
  5561 ;;		None
  5562 ;; Auto vars:     Size  Location     Type
  5563 ;;		None
  5564 ;; Return value:  Size  Location     Type
  5565 ;;                  1    wreg      void 
  5566 ;; Registers used:
  5567 ;;		wreg, status,2, status,0, pclath, cstack
  5568 ;; Tracked objects:
  5569 ;;		On entry : 0/0
  5570 ;;		On exit  : 0/0
  5571 ;;		Unchanged: 0/0
  5572 ;; Data sizes:     COMMON   BANK0   BANK1   BANK3   BANK2
  5573 ;;      Params:         0       0       0       0       0
  5574 ;;      Locals:         0       0       0       0       0
  5575 ;;      Temps:          2       0       0       0       0
  5576 ;;      Totals:         2       0       0       0       0
  5577 ;;Total ram usage:        2 bytes
  5578 ;; Hardware stack levels used: 1
  5579 ;; Hardware stack levels required when called: 1
  5580 ;; This function calls:
  5581 ;;		_delay
  5582 ;; This function is called by:
  5583 ;;		Interrupt level 1
  5584 ;; This function uses a non-reentrant model
  5585 ;;
  5586                           
  5587     0E27                     _isr:	
  5588                           ;psect for function _isr
  5589                           
  5590     0E27                     i1l2403:
  5591                           
  5592                           ;main.c: 72:     if (INTCONbits.T0IF == 1){
  5593     0E27  1D0B               	btfss	11,2	;volatile
  5594     0E28  2E2A               	goto	u313_21
  5595     0E29  2E2B               	goto	u313_20
  5596     0E2A                     u313_21:
  5597     0E2A  2E4F               	goto	i1l2423
  5598     0E2B                     u313_20:
  5599     0E2B                     i1l2405:
  5600                           
  5601                           ;main.c: 73:         INTCONbits.T0IF = 0;
  5602     0E2B  110B               	bcf	11,2	;volatile
  5603     0E2C                     i1l2407:
  5604                           
  5605                           ;main.c: 74:         TMR0 = 99;
  5606     0E2C  3063               	movlw	99
  5607     0E2D  1283               	bcf	3,5	;RP0=0, select bank0
  5608     0E2E  1303               	bcf	3,6	;RP1=0, select bank0
  5609     0E2F  0081               	movwf	1	;volatile
  5610     0E30                     i1l2409:
  5611                           
  5612                           ;main.c: 75:         PORTCbits.RC3 = 1;
  5613     0E30  1587               	bsf	7,3	;volatile
  5614     0E31                     i1l2411:
  5615                           
  5616                           ;main.c: 76:         delay(pot);
  5617     0E31  1683               	bsf	3,5	;RP0=1, select bank1
  5618     0E32  1303               	bcf	3,6	;RP1=0, select bank1
  5619     0E33  0827               	movf	(_pot+1)^(0+128),w
  5620     0E34  00F1               	movwf	delay@micro+1
  5621     0E35  0826               	movf	_pot^(0+128),w
  5622     0E36  00F0               	movwf	delay@micro
  5623     0E37  120A  158A  23AC  120A  158A  	fcall	_delay
  5624     0E3C                     i1l2413:
  5625                           
  5626                           ;main.c: 77:         PORTCbits.RC3 = 0;
  5627     0E3C  1283               	bcf	3,5	;RP0=0, select bank0
  5628     0E3D  1303               	bcf	3,6	;RP1=0, select bank0
  5629     0E3E  1187               	bcf	7,3	;volatile
  5630     0E3F                     i1l2415:
  5631                           
  5632                           ;main.c: 78:         PORTCbits.RC0 = 1;
  5633     0E3F  1407               	bsf	7,0	;volatile
  5634     0E40                     i1l2417:
  5635                           
  5636                           ;main.c: 79:         delay(pot1);
  5637     0E40  1683               	bsf	3,5	;RP0=1, select bank1
  5638     0E41  1303               	bcf	3,6	;RP1=0, select bank1
  5639     0E42  0825               	movf	(_pot1+1)^(0+128),w
  5640     0E43  00F1               	movwf	delay@micro+1
  5641     0E44  0824               	movf	_pot1^(0+128),w
  5642     0E45  00F0               	movwf	delay@micro
  5643     0E46  120A  158A  23AC  120A  158A  	fcall	_delay
  5644     0E4B                     i1l2419:
  5645                           
  5646                           ;main.c: 80:         PORTCbits.RC0 = 0;
  5647     0E4B  1283               	bcf	3,5	;RP0=0, select bank0
  5648     0E4C  1303               	bcf	3,6	;RP1=0, select bank0
  5649     0E4D  1007               	bcf	7,0	;volatile
  5650     0E4E                     i1l2421:
  5651                           
  5652                           ;main.c: 81:         INTCONbits.T0IF = 0;
  5653     0E4E  110B               	bcf	11,2	;volatile
  5654     0E4F                     i1l2423:
  5655                           
  5656                           ;main.c: 84:     if (INTCONbits.RBIF){
  5657     0E4F  1C0B               	btfss	11,0	;volatile
  5658     0E50  2E52               	goto	u314_21
  5659     0E51  2E53               	goto	u314_20
  5660     0E52                     u314_21:
  5661     0E52  2E9C               	goto	i1l159
  5662     0E53                     u314_20:
  5663     0E53                     i1l2425:
  5664                           
  5665                           ;main.c: 85:         if (PORTBbits.RB0 == 0){
  5666     0E53  1283               	bcf	3,5	;RP0=0, select bank0
  5667     0E54  1303               	bcf	3,6	;RP1=0, select bank0
  5668     0E55  1806               	btfsc	6,0	;volatile
  5669     0E56  2E58               	goto	u315_21
  5670     0E57  2E59               	goto	u315_20
  5671     0E58                     u315_21:
  5672     0E58  2E70               	goto	i1l2437
  5673     0E59                     u315_20:
  5674     0E59                     i1l144:
  5675     0E59  1C06               	btfss	6,0	;volatile
  5676     0E5A  2E5C               	goto	u316_21
  5677     0E5B  2E5D               	goto	u316_20
  5678     0E5C                     u316_21:
  5679     0E5C  2E59               	goto	i1l144
  5680     0E5D                     u316_20:
  5681     0E5D                     i1l2429:
  5682                           
  5683                           ;main.c: 87:             if (modo < 1){
  5684     0E5D  086D               	movf	_modo,w
  5685     0E5E  046E               	iorwf	_modo+1,w
  5686     0E5F  1D03               	btfss	3,2
  5687     0E60  2E62               	goto	u317_21
  5688     0E61  2E63               	goto	u317_20
  5689     0E62                     u317_21:
  5690     0E62  2E6E               	goto	i1l2435
  5691     0E63                     u317_20:
  5692     0E63                     i1l2431:
  5693                           
  5694                           ;main.c: 88:                 position = 0;
  5695     0E63  01F8               	clrf	_position
  5696     0E64  01F9               	clrf	_position+1
  5697     0E65                     i1l2433:
  5698                           
  5699                           ;main.c: 89:                 modo = modo + 1;}
  5700     0E65  086D               	movf	_modo,w
  5701     0E66  3E01               	addlw	1
  5702     0E67  00ED               	movwf	_modo
  5703     0E68  086E               	movf	_modo+1,w
  5704     0E69  1803               	skipnc
  5705     0E6A  3E01               	addlw	1
  5706     0E6B  3E00               	addlw	0
  5707     0E6C  00EE               	movwf	_modo+1
  5708     0E6D  2E70               	goto	i1l2437
  5709     0E6E                     i1l2435:
  5710                           
  5711                           ;main.c: 91:                 modo = 0;}
  5712     0E6E  01ED               	clrf	_modo
  5713     0E6F  01EE               	clrf	_modo+1
  5714     0E70                     i1l2437:
  5715                           
  5716                           ;main.c: 93:         if(PORTBbits.RB1 == 0){
  5717     0E70  1886               	btfsc	6,1	;volatile
  5718     0E71  2E73               	goto	u318_21
  5719     0E72  2E74               	goto	u318_20
  5720     0E73                     u318_21:
  5721     0E73  2E8C               	goto	i1l2447
  5722     0E74                     u318_20:
  5723     0E74                     i1l150:
  5724     0E74  1C86               	btfss	6,1	;volatile
  5725     0E75  2E77               	goto	u319_21
  5726     0E76  2E78               	goto	u319_20
  5727     0E77                     u319_21:
  5728     0E77  2E74               	goto	i1l150
  5729     0E78                     u319_20:
  5730     0E78                     i1l2441:
  5731                           
  5732                           ;main.c: 95:             if (position < 3){
  5733     0E78  3000               	movlw	0
  5734     0E79  0279               	subwf	_position+1,w
  5735     0E7A  3003               	movlw	3
  5736     0E7B  1903               	skipnz
  5737     0E7C  0278               	subwf	_position,w
  5738     0E7D  1803               	skipnc
  5739     0E7E  2E80               	goto	u320_21
  5740     0E7F  2E81               	goto	u320_20
  5741     0E80                     u320_21:
  5742     0E80  2E8A               	goto	i1l2445
  5743     0E81                     u320_20:
  5744     0E81                     i1l2443:
  5745                           
  5746                           ;main.c: 96:                 position = position +1;}
  5747     0E81  0878               	movf	_position,w
  5748     0E82  3E01               	addlw	1
  5749     0E83  00F8               	movwf	_position
  5750     0E84  0879               	movf	_position+1,w
  5751     0E85  1803               	skipnc
  5752     0E86  3E01               	addlw	1
  5753     0E87  3E00               	addlw	0
  5754     0E88  00F9               	movwf	_position+1
  5755     0E89  2E8C               	goto	i1l2447
  5756     0E8A                     i1l2445:
  5757                           
  5758                           ;main.c: 98:                 position = 0;}
  5759     0E8A  01F8               	clrf	_position
  5760     0E8B  01F9               	clrf	_position+1
  5761     0E8C                     i1l2447:
  5762                           
  5763                           ;main.c: 100:         if(PORTBbits.RB2 == 0){
  5764     0E8C  1906               	btfsc	6,2	;volatile
  5765     0E8D  2E8F               	goto	u321_21
  5766     0E8E  2E90               	goto	u321_20
  5767     0E8F                     u321_21:
  5768     0E8F  2E9B               	goto	i1l2453
  5769     0E90                     u321_20:
  5770     0E90                     i1l156:
  5771     0E90  1D06               	btfss	6,2	;volatile
  5772     0E91  2E93               	goto	u322_21
  5773     0E92  2E94               	goto	u322_20
  5774     0E93                     u322_21:
  5775     0E93  2E90               	goto	i1l156
  5776     0E94                     u322_20:
  5777     0E94                     i1l158:
  5778                           
  5779                           ;main.c: 102:                 PORTCbits.RC5 = 1;
  5780     0E94  1687               	bsf	7,5	;volatile
  5781     0E95                     i1l2451:
  5782                           
  5783                           ;main.c: 103:                 writeread = 1;}
  5784     0E95  3001               	movlw	1
  5785     0E96  1683               	bsf	3,5	;RP0=1, select bank1
  5786     0E97  1303               	bcf	3,6	;RP1=0, select bank1
  5787     0E98  00A0               	movwf	_writeread^(0+128)
  5788     0E99  3000               	movlw	0
  5789     0E9A  00A1               	movwf	(_writeread^(0+128)+1)
  5790     0E9B                     i1l2453:
  5791                           
  5792                           ;main.c: 104:         INTCONbits.RBIF = 0;
  5793     0E9B  100B               	bcf	11,0	;volatile
  5794     0E9C                     i1l159:
  5795     0E9C  0873               	movf	??_isr+1,w
  5796     0E9D  008A               	movwf	10
  5797     0E9E  0E72               	swapf	??_isr,w
  5798     0E9F  0083               	movwf	3
  5799     0EA0  0EFE               	swapf	btemp,f
  5800     0EA1  0E7E               	swapf	btemp,w
  5801     0EA2  0009               	retfie
  5802     0EA3                     __end_of_isr:
  5803                           
  5804                           	psect	intentry
  5805     0004                     __pintentry:	
  5806                           ;incstack = 0
  5807                           ; Regs used in _isr: [wreg+status,2+status,0+pclath+cstack]
  5808                           
  5809     0004                     interrupt_function:
  5810     007E                     saved_w	set	btemp
  5811     0004  00FE               	movwf	btemp
  5812     0005  0E03               	swapf	3,w
  5813     0006  00F2               	movwf	??_isr
  5814     0007  080A               	movf	10,w
  5815     0008  00F3               	movwf	??_isr+1
  5816     0009  120A  158A  2E27   	ljmp	_isr
  5817                           
  5818                           	psect	text21
  5819     0BAC                     __ptext21:	
  5820 ;; *************** function _delay *****************
  5821 ;; Defined at:
  5822 ;;		line 271 in file "main.c"
  5823 ;; Parameters:    Size  Location     Type
  5824 ;;  micro           2    0[COMMON] unsigned int 
  5825 ;; Auto vars:     Size  Location     Type
  5826 ;;		None
  5827 ;; Return value:  Size  Location     Type
  5828 ;;                  1    wreg      void 
  5829 ;; Registers used:
  5830 ;;		wreg, status,2, status,0
  5831 ;; Tracked objects:
  5832 ;;		On entry : 0/0
  5833 ;;		On exit  : 0/0
  5834 ;;		Unchanged: 0/0
  5835 ;; Data sizes:     COMMON   BANK0   BANK1   BANK3   BANK2
  5836 ;;      Params:         2       0       0       0       0
  5837 ;;      Locals:         0       0       0       0       0
  5838 ;;      Temps:          0       0       0       0       0
  5839 ;;      Totals:         2       0       0       0       0
  5840 ;;Total ram usage:        2 bytes
  5841 ;; Hardware stack levels used: 1
  5842 ;; This function calls:
  5843 ;;		Nothing
  5844 ;; This function is called by:
  5845 ;;		_isr
  5846 ;; This function uses a non-reentrant model
  5847 ;;
  5848                           
  5849     0BAC                     _delay:	
  5850                           ;psect for function _delay
  5851                           
  5852     0BAC                     i1l2195:	
  5853                           ;incstack = 0
  5854                           ; Regs used in _delay: [wreg+status,2+status,0]
  5855                           
  5856                           
  5857                           ;main.c: 272:     while (micro > 0){
  5858     0BAC  2BB6               	goto	i1l2199
  5859     0BAD                     i1l211:
  5860                           
  5861                           ;main.c: 273:         _delay((unsigned long)((40)*(500000/4000000.0)));
  5862     0BAD  2BAE               	nop2	;2 cycle nop
  5863     0BAE  2BAF               	nop2	;2 cycle nop
  5864     0BAF  0000               	nop
  5865     0BB0                     i1l2197:
  5866                           
  5867                           ;main.c: 274:         micro--;
  5868     0BB0  3001               	movlw	1
  5869     0BB1  02F0               	subwf	delay@micro,f
  5870     0BB2  3000               	movlw	0
  5871     0BB3  1C03               	skipc
  5872     0BB4  03F1               	decf	delay@micro+1,f
  5873     0BB5  02F1               	subwf	delay@micro+1,f
  5874     0BB6                     i1l2199:
  5875                           
  5876                           ;main.c: 272:     while (micro > 0){
  5877     0BB6  0870               	movf	delay@micro,w
  5878     0BB7  0471               	iorwf	delay@micro+1,w
  5879     0BB8  1D03               	btfss	3,2
  5880     0BB9  2BBB               	goto	u293_21
  5881     0BBA  2BBC               	goto	u293_20
  5882     0BBB                     u293_21:
  5883     0BBB  2BAD               	goto	i1l211
  5884     0BBC                     u293_20:
  5885     0BBC                     i1l213:
  5886     0BBC  0008               	return
  5887     0BBD                     __end_of_delay:
  5888     007E                     btemp	set	126	;btemp
  5889     007E                     wtemp0	set	126
  5890                           
  5891                           	psect	idloc
  5892                           
  5893                           ;Config register IDLOC0 @ 0x2000
  5894                           ;	unspecified, using default values
  5895     2000                     	org	8192
  5896     2000  3FFF               	dw	16383
  5897                           
  5898                           ;Config register IDLOC1 @ 0x2001
  5899                           ;	unspecified, using default values
  5900     2001                     	org	8193
  5901     2001  3FFF               	dw	16383
  5902                           
  5903                           ;Config register IDLOC2 @ 0x2002
  5904                           ;	unspecified, using default values
  5905     2002                     	org	8194
  5906     2002  3FFF               	dw	16383
  5907                           
  5908                           ;Config register IDLOC3 @ 0x2003
  5909                           ;	unspecified, using default values
  5910     2003                     	org	8195
  5911     2003  3FFF               	dw	16383
  5912                           
  5913                           	psect	config
  5914                           
  5915                           ;Config register CONFIG1 @ 0x2007
  5916                           ;	Oscillator Selection bits
  5917                           ;	FOSC = INTRC_NOCLKOUT, INTOSCIO oscillator: I/O function on RA6/OSC2/CLKOUT pin, I/O f
      +                          unction on RA7/OSC1/CLKIN
  5918                           ;	Watchdog Timer Enable bit
  5919                           ;	WDTE = OFF, WDT disabled and can be enabled by SWDTEN bit of the WDTCON register
  5920                           ;	Power-up Timer Enable bit
  5921                           ;	PWRTE = OFF, PWRT disabled
  5922                           ;	RE3/MCLR pin function select bit
  5923                           ;	MCLRE = OFF, RE3/MCLR pin function is digital input, MCLR internally tied to VDD
  5924                           ;	Code Protection bit
  5925                           ;	CP = OFF, Program memory code protection is disabled
  5926                           ;	Data Code Protection bit
  5927                           ;	CPD = OFF, Data memory code protection is disabled
  5928                           ;	Brown Out Reset Selection bits
  5929                           ;	BOREN = OFF, BOR disabled
  5930                           ;	Internal External Switchover bit
  5931                           ;	IESO = OFF, Internal/External Switchover mode is disabled
  5932                           ;	Fail-Safe Clock Monitor Enabled bit
  5933                           ;	FCMEN = OFF, Fail-Safe Clock Monitor is disabled
  5934                           ;	Low Voltage Programming Enable bit
  5935                           ;	LVP = OFF, RB3 pin has digital I/O, HV on MCLR must be used for programming
  5936                           ;	In-Circuit Debugger Mode bit
  5937                           ;	DEBUG = 0x1, unprogramme  5938     2007                     	org	8199
  5939     2007  20D4               	dw	8404
  5940                           
  5941                           ;Config register CONFIG2 @ 0x2008
  5942                           ;	Brown-out Reset Selection bit
  5943                           ;	BOR4V = BOR40V, Brown-out Reset set to 4.0V
  5944                           ;	Flash Program Memory Self Write Enable bits
  5945                           ;	WRT = OFF, Write protection off
  5946     2008                     	org	8200
  5947     2008  3FFF               	dw	16383

Data Sizes:
    Strings     0
    Constant    0
    Data        0
    BSS         26
    Persistent  0
    Stack       0

Auto Spaces:
    Space          Size  Autos    Used
    COMMON           14      6      10
    BANK0            80     73      79
    BANK1            80      7      23
    BANK3            96      0       0
    BANK2            96      0       0

Pointer List with Targets:

    None.

Critical Paths under _main in COMMON

    ___flmul->__Umul8_16
    _map->___wmul
    ___awdiv->___wmul

Critical Paths under _isr in COMMON

    _isr->_delay

Critical Paths under _main in BANK0

    _main->_controlmotores
    _mapeo->___fltol
    ___fltol->___fladd
    ___flmul->___xxtofl
    ___fladd->___flmul
    _map->___awdiv
    ___awdiv->___wmul

Critical Paths under _isr in BANK0

    None.

Critical Paths under _main in BANK1

    _controlmotores->_mapeo

Critical Paths under _isr in BANK1

    None.

Critical Paths under _main in BANK3

    None.

Critical Paths under _isr in BANK3

    None.

Critical Paths under _main in BANK2

    None.

Critical Paths under _isr in BANK2

    None.

Call Graph Tables:

 ---------------------------------------------------------------------------------
 (Depth) Function   	        Calls       Base Space   Used Autos Params    Refs
 ---------------------------------------------------------------------------------
 (0) _main                                                 2     2      0    8857
                                              5 BANK1      2     2      0
                     _controlmotores
                         _readEEPROM
                              _setup
                           _setupADC
                        _setupINTOSC
                           _setupPWM
                          _setupPWM2
                          _setupTMR0
                           _verifpos
                        _writeEEPROM
 ---------------------------------------------------------------------------------
 (1) _writeEEPROM                                          3     2      1     456
                                              4 COMMON     1     0      1
                                              0 BANK0      2     2      0
 ---------------------------------------------------------------------------------
 (1) _verifpos                                             0     0      0       0
 ---------------------------------------------------------------------------------
 (1) _setupTMR0                                            0     0      0       0
 ---------------------------------------------------------------------------------
 (1) _setupPWM2                                            0     0      0       0
 ---------------------------------------------------------------------------------
 (1) _setupPWM                                             1     1      0       0
                                              4 COMMON     1     1      0
 ---------------------------------------------------------------------------------
 (1) _setupINTOSC                                          1     1      0      66
                                              4 COMMON     1     1      0
 ---------------------------------------------------------------------------------
 (1) _setupADC                                             1     1      0       0
                                              4 COMMON     1     1      0
 ---------------------------------------------------------------------------------
 (1) _setup                                                0     0      0       0
 ---------------------------------------------------------------------------------
 (1) _readEEPROM                                           1     1      0      22
                                              4 COMMON     1     1      0
 ---------------------------------------------------------------------------------
 (1) _controlmotores                                       3     3      0    8313
                                             70 BANK0      3     3      0
                                _map
                              _mapeo
 ---------------------------------------------------------------------------------
 (2) _mapeo                                                5     5      0    6608
                                              0 BANK1      5     5      0
                            ___fladd
                            ___flmul
                            ___fltol
                           ___xxtofl
 ---------------------------------------------------------------------------------
 (3) ___xxtofl                                            14    10      4     566
                                              0 BANK0     14    10      4
 ---------------------------------------------------------------------------------
 (3) ___fltol                                             10     6      4     427
                                             60 BANK0     10     6      4
                            ___fladd (ARG)
                            ___flmul (ARG)
                           ___xxtofl (ARG)
 ---------------------------------------------------------------------------------
 (3) ___flmul                                             26    18      8    3353
                                             14 BANK0     26    18      8
                          __Umul8_16
                           ___xxtofl (ARG)
 ---------------------------------------------------------------------------------
 (4) __Umul8_16                                            9     7      2     980
                                              4 COMMON     2     0      2
                                              0 BANK0      7     7      0
 ---------------------------------------------------------------------------------
 (3) ___fladd                                             20    12      8    2262
                                             40 BANK0     20    12      8
                            ___flmul (ARG)
                           ___xxtofl (ARG)
 ---------------------------------------------------------------------------------
 (2) _map                                                 10     2      8    1705
                                             13 BANK0     10     2      8
                            ___awdiv
                             ___wmul
 ---------------------------------------------------------------------------------
 (3) ___wmul                                               6     2      4     316
                                              4 COMMON     2     2      0
                                              0 BANK0      4     0      4
 ---------------------------------------------------------------------------------
 (3) ___awdiv                                              9     5      4     452
                                              4 BANK0      9     5      4
                             ___wmul (ARG)
 ---------------------------------------------------------------------------------
 Estimated maximum stack depth 4
 ---------------------------------------------------------------------------------
 (Depth) Function   	        Calls       Base Space   Used Autos Params    Refs
 ---------------------------------------------------------------------------------
 (5) _isr                                                  2     2      0     175
                                              2 COMMON     2     2      0
                              _delay
 ---------------------------------------------------------------------------------
 (6) _delay                                                2     0      2     175
                                              0 COMMON     2     0      2
 ---------------------------------------------------------------------------------
 Estimated maximum stack depth 6
 ---------------------------------------------------------------------------------

 Call Graph Graphs:

 _main (ROOT)
   _controlmotores
     _map
       ___awdiv
         ___wmul (ARG)
       ___wmul
     _mapeo
       ___fladd
         ___flmul (ARG)
           __Umul8_16
           ___xxtofl (ARG)
         ___xxtofl (ARG)
       ___flmul
       ___fltol
         ___fladd (ARG)
         ___flmul (ARG)
         ___xxtofl (ARG)
       ___xxtofl
   _readEEPROM
   _setup
   _setupADC
   _setupINTOSC
   _setupPWM
   _setupPWM2
   _setupTMR0
   _verifpos
   _writeEEPROM

 _isr (ROOT)
   _delay

 Address spaces:
Name               Size   Autos  Total    Cost      Usage
BITCOMMON            E      0       0       0        0.0%
EEDATA             100      0       0       0        0.0%
NULL                 0      0       0       0        0.0%
CODE                 0      0       0       0        0.0%
COMMON               E      6       A       1       71.4%
BITSFR0              0      0       0       1        0.0%
SFR0                 0      0       0       1        0.0%
BITSFR1              0      0       0       2        0.0%
SFR1                 0      0       0       2        0.0%
STACK                0      0       0       2        0.0%
ABS                  0      0      70       3        0.0%
BITBANK0            50      0       0       4        0.0%
BITSFR3              0      0       0       4        0.0%
SFR3                 0      0       0       4        0.0%
BANK0               50     49      4F       5       98.8%
BITSFR2              0      0       0       5        0.0%
SFR2                 0      0       0       5        0.0%
BITBANK1            50      0       0       6        0.0%
BANK1               50      7      17       7       28.7%
BITBANK3            60      0       0       8        0.0%
BANK3               60      0       0       9        0.0%
BITBANK2            60      0       0      10        0.0%
BANK2               60      0       0      11        0.0%
DATA                 0      0      70      12        0.0%


Microchip Technology PIC Macro Assembler V2.40 build 20220703182018 
Symbol Table                                                                                   Thu Nov 17 10:34:40 2022

            map@inputmax 002F              map@inputmin 002D                       _RD 0C60  
                     _WR 0C61             ___awdiv@sign 002A                       fsr 0004  
    ___wmul@multiplicand 0022      __Umul8_16@word_mpld 0024                      l201 0C00  
                    l203 0C04                      l204 0C07                      l230 0761  
                    l222 06F3                      l231 0799                      l207 0BAB  
                    l216 07FD                      l224 06F7                      l240 0BD3  
                    l233 079D                      l225 071F                      l234 07C6  
                    l170 0635                      l219 0F45                      l227 0723  
                    l243 0CA1                      l228 075D                      l252 0D25  
                    l180 06A9                      l237 0BBE                      l261 0D45  
                    l246 0CC9                      l166 065E                      l192 0CF6  
                    l266 0C59                      l355 0C35                      l267 0C65  
                    l195 0C1F                      l508 0DAE                      l357 0C4D  
                    l541 0E26                      l189 0BED                      l269 0C74  
                    l197 0C23                      l198 0C26                      l551 0E26  
                    l801 0FC9                      l802 0FD5                      l652 044B  
                    l548 0E11                      l661 05C4                      l654 0424  
                    l750 02DC                      l648 03C8                      l744 036C  
                    l673 0538                      l690 05BA                      l682 0598  
                    l691 05C4                      l763 0C8B                      l756 0360  
                    l669 0514                      l765 0C9D                      l790 0FFF  
                    l679 055A                      l794 0FAD                      l788 0F6A  
                    _GIE 005F                      _PR2 0092                      _map 07C7  
                    _loc 0076                      _isr 0E27                      _pot 00A6  
                    indf 0000             ___flmul@aexp 003C             ___flmul@bexp 0041  
           ___flmul@sign 003B             ___flmul@temp 0046             ___flmul@prod 0042  
           ___fltol@exp1 0065                     l2201 0BD4                     l2211 0BE6  
                   l2203 0BE0                     l2213 0BEA                     l2205 0BE1  
                   l2221 0C5F                     l2215 0BEC                     l2207 0BE4  
                   l2231 0CD0                     l2223 0C6B                     l2209 0BE5  
                   l2241 0CDF                     l2233 0CD3                     l2225 0C71  
                   l2217 0C4F                     l2251 0CEC                     l2243 0CE2  
                   l2235 0CD6                     l2227 0CCA                     l2219 0C55  
                   l2253 0CED                     l2245 0CE5                     l2237 0CD9  
                   l2229 0CCD                     l2261 0C0B                     l2341 0CF7  
                   l2255 0CEE                     l2247 0CE8                     l2239 0CDC  
                   l2263 0C11                     l2271 0BEE                     l2351 0D14  
                   l2343 0CFD                     l2601 0031                     l2257 0CF1  
                   l2249 0CE9                     l2265 0C19                     l2281 0BFD  
                   l2273 0BF1                     l2361 0D31                     l2353 0D19  
                   l2345 0D02                     l1731 0D52                     l1811 037A  
                   l2611 0048                     l2603 0035                     l2267 0C1B  
                   l2259 0C08                     l2283 0BFF                     l2275 0BF3  
                   l2363 0D37                     l2355 0D20                     l2347 0D08  
                   l1741 0D63                     l1733 0D54                     l1725 0D46  
                   l1901 0443                     l1821 038E                     l1813 037B  
                   l1805 036D                     l2541 0C94                     l2533 0C78  
                   l2701 02D9                     l2621 005F                     l2613 004A  
                   l2605 0036                     l2269 0C1E                     l2277 0BF7  
                   l2285 0B9C                     l2365 0D3B                     l2349 0D0D  
                   l2357 0D25                     l1751 0D7B                     l1743 0D69  
                   l1735 0D58                     l1727 0D49                     l2551 0C2F  
                   l1911 0474                     l1903 044F                     l1831 03A2  
                   l1815 0380                     l1823 0390                     l1807 0372  
                   l2543 0C99                     l2535 0C7A                     l2711 02F8  
                   l2631 0074                     l2623 0060                     l2615 0052  
                   l2607 003B                     l2391 0BBE                     l2279 0BFC  
                   l2287 0BA3                     l2367 0D42                     l2359 0D2D  
                   l1753 0D8C                     l1745 0D6C                     l1761 0DA0  
                   l1737 0D5D                     l1729 0D4D                     l2553 0C3C  
                   l1921 0489                     l1913 0478                     l1905 0454  
                   l1841 03B5                     l1833 03A6                     l1825 0398  
                   l1817 0385                     l1809 0376                     l2537 0C81  
                   l2721 033E                     l2713 0311                     l2705 02E1  
                   l2641 008F                     l2633 007C                     l2625 0065  
                   l2617 0057                     l2609 0040                     l2561 0DAF  
                   l2801 06FD                     l2393 0BC4                     l2289 0BA7  
                   l1763 0DA5                     l1755 0D92                     l1747 0D73  
                   l1739 0D61                     l2555 0C43                     l2547 0C27  
                   l1931 04EC                     l1923 048A                     l1915 047C  
                   l1851 03D2                     l1843 03BD                     l1835 03AA  
                   l1827 039B                     l1819 038D                     l2539 0C85  
                   l2731 035B                     l2723 0348                     l2707 02E6  
                   l2715 0317                     l2651 010B                     l2643 009D  
                   l2635 0081                     l2627 006A                     l2619 005B  
                   l2571 0DD7                     l2563 0DBA                     l2811 071C  
                   l2803 0707                     l2395 0BC8                     l1765 0DAA  
                   l1757 0D93                     l1749 0D77                     l2557 0C49  
                   l2549 0C29                     l1941 0521                     l1933 04F2  
                   l1925 0493                     l1917 0483                     l1909 045D  
                   l1861 03DE                     l1853 03D6                     l1845 03BE  
                   l1837 03AB                     l1829 03A1                     l2733 0364  
                   l2725 034A                     l2717 0324                     l2709 02F4  
                   l2661 0177                     l2653 0127                     l2645 00AA  
                   l2637 0086                     l2629 0072                     l2573 0DDF  
                   l2741 0F52                     l2821 0747                     l2813 0724  
                   l2805 0709                     l2397 0BCC                     l2901 063D  
                   l1759 0D9A                     l1951 053C                     l1935 04F7  
                   l1919 0485                     l1927 0498                     l1871 03E8  
                   l1863 03E0                     l1855 03D8                     l1839 03B0  
                   l1847 03C0                     l2727 0356                     l2719 032F  
                   l2671 0201                     l2663 0185                     l2655 0143  
                   l2647 00C5                     l2591 0E06                     l2583 0DED  
                   l2575 0DE1                     l2567 0DC3                     l2751 0F7E  
                   l2743 0F62                     l2831 0783                     l2823 074E  
                   l2815 0729                     l2807 0710                     l2399 0BCF  
                   l2911 0670                     l2903 0648                     l1953 053F  
                   l1945 052A                     l1929 04AE                     l1937 0506  
                   l1961 054C                     l1881 03F2                     l1873 03EA  
                   l1865 03E2                     l1857 03DA                     l1849 03CE  
                   l2729 035A                     l2681 0291                     l2673 020F  
                   l2665 01A2                     l2657 014C                     l2649 00E1  
                   l2593 0E16                     l2577 0DE5                     l2585 0DFF  
                   l2569 0DD6                     l2761 0FB4                     l2753 0F8B  
                   l2745 0F72                     l2737 0F49                     l2841 07BF  
                   l2833 078A                     l2825 0754                     l2817 0734  
                   l2809 0716                     l2921 0686                     l2913 0678  
                   l2905 0653                     l1971 055F                     l1963 054D  
                   l1955 0541                     l1947 0533                     l1939 051C  
                   l1891 042F                     l1875 03EC                     l1867 03E4  
                   l1859 03DC                     l1883 03F4                     l2691 02B6  
                   l2683 029F                     l2675 023A                     l2667 01B9  
                   l2659 015A                     l2595 0E1B                     l2771 0FED  
                   l2763 0FBF                     l2755 0F92                     l2739 0F4E  
                   l2835 0790                     l2827 075A                     l2819 0745  
                   l2851 0CB3                     l2843 0CA1                     l2931 06A4  
                   l2923 068C                     l2915 067A                     l2907 0665  
                   l2781 07CA                     l1981 059D                     l1973 0564  
                   l1965 0551                     l1957 0546                     l1949 0537  
                   l1893 0431                     l1885 03F5                     l1877 03EE  
                   l1869 03E6                     l2685 02A8                     l2693 02BC  
                   l2677 0260                     l2669 01D6                     l2597 0028  
                   l2773 0FF2                     l2765 0FC3                     l2757 0F96  
                   l2749 0F7B                     l2837 0796                     l2829 0762  
                   l2861 0CC1                     l2853 0CB9                     l2845 0CA7  
                   l2925 0691                     l2933 06A9                     l2917 067D  
                   l2909 066B                     l2941 06DA                     ?_map 002D  
                   l1991 05B4                     l1983 05A2                     l1975 0572  
                   l1967 0557                     l1959 0548                     l1895 0435  
                   l1887 040C                     l1879 03F0                     l2695 02C0  
                   l2687 02AC                     l2679 0288                     l2599 002D  
                   l2775 0FF6                     l2767 0FCD                     l2759 0FA4  
                   l2791 0F2D                     l2839 079E                     l2863 0CC2  
                   l2855 0CBA                     l2847 0CAF                     l2935 06B2  
                   l2927 0698                     l2919 0683                     l2871 05EA  
                   l1993 05B6                     l1985 05AA                     l1977 0576  
                   l1897 0436                     l1889 0428                     l2697 02C1  
                   l2689 02AD                     l2777 0FF7                     l2769 0FD7  
                   l2785 0EA3                     l2793 06E4                     l2857 0CBE  
                   l2849 0CB2                     l2937 06BC                     l2929 069D  
                   l2881 0606                     l2873 05F2                     l2865 05C5  
                   l1995 05BF                     l1987 05AF                     l1979 0594  
                   l1899 043F                     l2699 02C5                     l2787 0EC6  
                   l2795 06EA                     l2859 0CC0                     l2939 06CB  
                   l2891 061D                     l2883 0609                     l2875 05F7  
                   l2867 05E4                     l1997 05C3                     l1989 05B0  
                   l2789 0F21                     l2797 06F0                     l2893 0624  
                   l2885 060F                     l2877 05FC                     l2869 05E8  
                   l2799 06F8                     l2895 0629                     l2887 0612  
                   l2879 0604                     l2897 0630                     l2889 0618  
                   l2899 0635                     _ADIF 0066                     ?_isr 0070  
                   u2000 03B0                     u2001 03AF                     u2010 03B5  
                   u2011 03B4                     u2100 044B                     u2020 03CE  
                   u2101 044A                     u2021 03CD                     u2110 044F  
                   u2030 03D2                     u2111 044E                     u2031 03D1  
                   u2200 04D9                     u2120 0454                     u2040 040C  
                   u2201 04DA                     u2121 0453                     u2041 040B  
                   u2210 04F7                     u2202 04DF                     u2050 0417  
                   u2211 04F6                     u2203 04E0                     u2131 0466  
                   u2051 0415                     u2300 0557                     u2220 051C  
                   u2140 0478                     u2132 046D                     u2060 0418  
                   _IOCB 0096                     u2301 0556                     u2221 051B  
                   u2141 0477                     u2133 0474                     u2045 0408  
                   u2310 055E                     u2230 0521                     u2150 047C  
                   u2070 0428                     u3110 0BC4                     u3030 0CFD  
                   u2311 055D                     u2231 0520                     u2151 047B  
                   u2071 0427                     u3111 0BC3                     u3031 0CFC  
                   u2400 05C3                     u2320 0564                     u2160 0489  
                   u2080 0435                     u4000 0FE2                     u3120 0BC8  
                   u3040 0D08                     u2401 05C2                     u2321 0563  
                   u2161 0488                     u2081 0434                     u3121 0BC7  
                   u3041 0D07                     u2330 0576                     u2250 0537  
                   u4010 0FF2                     u3050 0D14                     u2331 0575  
                   u2251 0536                     u4011 0FF1                     u3051 0D13  
                   u2340 0585                     u2260 053C                     u2180 04AE  
                   u4020 0FF6                     u3060 0D20                     u4100 0604  
                   u2261 053B                     u2245 052C                     u2181 04AD  
                   u4021 0FF5                     u4005 0FDD                     u3061 0D1F  
                   u4101 0603                     u2350 0594                     u2270 0546  
                   u3070 0D2D                     u4110 060F                     u2351 0593  
                   u2271 0545                     u2191 04C5                     u2183 04AA  
                   u2175 048C                     u2095 0438                     u3071 0D2C  
                   u4111 060E                     u2360 059D                     u2280 054C  
                   u2192 04C6                     u4040 06F7                     u3080 0D37  
                   u4200 06A4                     u4120 0618                     u2361 059C  
                   u2345 0580                     u2281 054B                     u2193 04CB  
                   u4041 06F6                     u3081 0D36                     u4201 06A3  
                   u4121 0617                     u1810 0D8C                     u3410 0C49  
                   u2370 05A2                     u2290 0551                     u2194 04CC  
                   u4050 0723                     u3090 0D42                     u4130 0624  
                   u1811 0D8B                     u3411 0C48                     u2371 05A1  
                   u2291 0550                     u2195 04D1                     u4035 0EA8  
                   u4051 0722                     u3091 0D41                     u4131 0623  
                   u2380 05AF                     u2196 04D2                     u3500 0E16  
                   u3420 0DBA                     u4060 0761                     u4140 0630  
                   u1805 0D7C                     u3405 0C3D                     u2381 05AE  
                   u3501 0E15                     u3421 0DB9                     u4061 0760  
                   u4141 062F                     u1830 0DA0                     u1750 0D4D  
                   u2390 05B4                     u3350 0C85                     u3510 0E1B  
                   u3430 0DD1                     u4070 079D                     u4150 066B  
                   u1831 0D9F                     u1815 0D88                     u1751 0D4C  
                   u2391 05B3                     u3351 0C84                     u3511 0E1A  
                   u4071 079C                     u4151 066A                     u1840 0DA5  
                   u1760 0D58                     u3520 0035                     u3440 0DE5  
                   u4080 0CA7                     u4160 0678                     u1841 0DA4  
                   u1825 0D94                     u1761 0D57                     u3601 00D3  
                   u3521 0034                     u3441 0DE4                     u4081 0CA6  
                   u4161 0677                     u4217 0662                     u1770 0D69  
                   u3370 0C99                     u3602 00DA                     u3530 003B  
                   u3450 0DEC                     u4170 0683                     u4090 05F2  
                   u1771 0D68                     u3371 0C98                     u3611 00EF  
                   u3603 00E1                     u3531 003A                     u3451 0DEB  
                   u3435 0DCC                     u4307 0794                     u4227 06DE  
                   u4171 0682                     u4091 05F1                     u3380 0C2F  
                   u3612 00F6                     u3540 0040                     u4180 068C  
                   u3381 0C2E                     u3365 0C8C                     u3701 021E  
                   u3621 0119                     u3613 00FD                     u3541 003F  
                   u4317 07C3                     u4237 0CF3                     u4181 068B  
                   u1790 0D7B                     u1950 037A                     u3710 0246  
                   u3702 0225                     u3622 0120                     u3550 005F  
                   u3470 0DFE                     u4190 0698                     u1791 0D7A  
                   u1951 0379                     u3703 022C                     u3631 0135  
                   u3623 0127                     u3551 005E                     u3471 0DFD  
                   u4247 06EE                     u4191 0697                     u1960 0380  
                   u3800 02C5                     u3632 013C                     u3560 0065  
                   u3480 0E05                     u1785 0D6D                     u1961 037F  
                   u3801 02C4                     u3721 0252                     u3633 0143  
                   u3561 0064                     u3481 0E04                     u3465 0DEE  
                   u4257 070D                     u1970 0385                     u3810 02D9  
                   u3730 026E                     u3722 0259                     u3570 006A  
                   u3395 0C36                     u1971 0384                     u3811 02D8  
                   u3723 0260                     u3715 0241                     u3651 0169  
                   u3571 0069                     u4267 071A                     u1980 03A1  
                   u3820 02E0                     u3652 0170                     u3580 0081  
                   u3900 0F52                     u2940 0C55                     u1981 03A0  
                   u3821 02DF                     u3741 027A                     u3661 0194  
                   u3653 0177                     u3645 0145                     u3581 0080  
                   u3901 0F51                     u4277 074B                     u2941 0C54  
                   u1990 03AA                     u3830 02E6                     u3742 0281  
                   u3662 019B                     u3590 0086                     u3910 0F72  
                   u2950 0C5F                     u1991 03A9                     u3831 02E5  
                   u3743 0288                     u3735 0269                     u3663 01A2  
                   u3591 0085                     u3495 0E08                     u3911 0F71  
                   u4287 0758                     u2951 0C5E                     u3840 02F8  
                   u2960 0C6B                     u3841 02F7                     u3681 01C8  
                   u4297 0787                     u2961 0C6A                     u3850 0307  
                   u3770 02AC                     u3682 01CF                     u3930 0F91  
                   u2970 0C23                     u3771 02AB                     u3755 028A  
                   u3691 01F3                     u3683 01D6                     u3675 01A4  
                   u3931 0F90                     u2971 0C22                     u3860 0324  
                   u3692 01FA                     u2980 0C04                     u3861 0323  
                   u3765 02A1                     u3693 0201                     u3925 0F83  
                   u2981 0C03                     u3870 033E                     u3790 02C0  
                   u3950 0FB3                     u3871 033D                     u3855 0302  
                   u3791 02BF                     u3951 0FB2                     u3880 035A  
                   u3881 0359                     u3865 0320                     u3785 02AF  
                   u3945 0FA5                     u3970 0FC3                     u3890 0F4E  
                   u3875 033A                     u3971 0FC2                     u3891 0F4D  
                   u3980 0FC9                     u3981 0FC8                     u3965 0FB8  
                   u3990 0FCD                     u3991 0FCC                     _TMR0 0001  
                   _WPUB 0095                     _data 00AA                     _cont 00AC  
                   _main 05C5                     _pot1 00A4                     _modo 006D  
                   btemp 007E                     start 000C              _writeEEPROM 0C9E  
                  ??_map 0035                    ??_isr 0072            ___fltol@sign1 0064  
     writeEEPROM@address 0020          __end_of___fladd 05C5                    ?_main 0070  
        __end_of___awdiv 0DAF                    _EEADR 010D                    _EEDAT 010C  
        __end_of___flmul 036D          __end_of___fltol 0E27          ___awdiv@divisor 0024  
                  i1l211 0BAD                    i1l213 0BBC                    i1l150 0E74  
                  i1l144 0E59                    i1l156 0E90                    i1l158 0E94  
                  i1l159 0E9C          ___awdiv@counter 0029                    _PORTA 0005  
                  _PORTC 0007                    _PORTD 0008                    _TRISC 0087  
                  _TRISD 0088                    _delay 0BAC                    _mapeo 0EA3  
                  _valDC 00A8                    _micro 00A2                    _setup 0BD4  
                  pclath 000A                    status 0003                    wtemp0 007E  
        __initialization 000F             __end_of_main 06E4                   ??_main 00B5  
                 ?_delay 0070                   ?_mapeo 0070                   _ADRESH 001E  
                 _ADRESL 009E                   _CCPR1L 0015                   _CCPR2L 001B  
                 _EECON2 018D         ___awdiv@dividend 0026                   ?_setup 0070  
                 _ANSELH 0189                   i1l2411 0E31                   i1l2403 0E27  
                 i1l2421 0E4E                   i1l2413 0E3C                   i1l2405 0E2B  
                 i1l2431 0E63                   i1l2415 0E3F                   i1l2407 0E2C  
                 i1l2423 0E4F                   i1l2441 0E78                   i1l2433 0E65  
                 i1l2425 0E53                   i1l2417 0E40                   i1l2409 0E30  
                 i1l2195 0BAC                   i1l2451 0E95                   i1l2443 0E81  
                 i1l2435 0E6E                   i1l2419 0E4B                   i1l2197 0BB0  
                 i1l2453 0E9B                   i1l2445 0E8A                   i1l2429 0E5D  
                 i1l2437 0E70                   i1l2199 0BB6                   i1l2447 0E8C  
                 u320_20 0E81                   u320_21 0E80                   u321_20 0E90  
                 u313_20 0E2B                   u321_21 0E8F                   u313_21 0E2A  
                 u322_20 0E94                   u314_20 0E53                   u322_21 0E93  
                 u314_21 0E52                   u315_20 0E59                   u315_21 0E58  
                 u316_20 0E5D                   u316_21 0E5C                   u317_20 0E63  
                 u317_21 0E62                   u318_20 0E74                   u318_21 0E73  
                 u319_20 0E78                   u319_21 0E77                   u293_20 0BBC  
                 u293_21 0BBB                   _TMR2IF 0061                   _TMR2ON 0092  
       __end_of___xxtofl 1000                ??___fladd 0050                   ___wmul 0C27  
              ??___awdiv 0028                ??___flmul 0036                ??___fltol 0060  
                 _valDCH 0069                   _valDCL 006B         ___awdiv@quotient 002B  
           ?_setupINTOSC 0070         __end_of_setupADC 0CF7         __end_of_setupPWM 0C27  
                 saved_w 007E         __end_of_verifpos 0D46           _controlmotores 06E4  
           ___xxtofl@arg 002A             ___xxtofl@exp 0029             ___xxtofl@val 0020  
__end_of__initialization 0024               ___fltol@f1 005C          writeEEPROM@data 0074  
         __pcstackCOMMON 0070            __end_of_delay 0BBD            __end_of_mapeo 0F46  
          __end_of_setup 0BEE           _OPTION_REGbits 0081   __end_of_controlmotores 07C7  
                ??_delay 0072                  ??_mapeo 00B0                  ??_setup 0074  
             __pbssBANK0 0069               __pbssBANK1 00A0        __end_of__Umul8_16 0C9E  
             __pmaintext 05C5             ?_writeEEPROM 0074                  ?___wmul 0020  
             __pintentry 0004                  _CCP1CON 0017                  _ADC_RES 00AE  
              ?___xxtofl 0020          ?_controlmotores 0070     writeEEPROM@gieStatus 0021  
             _cont_sleep 00AB               _readEEPROM 0BBD                ?_setupADC 0070  
              ?_setupPWM 0070                  ___fladd 036D                  ___awdiv 0D46  
                ___flmul 0028                  ___fltol 0DAF                ?_verifpos 0070  
                _address 00AD                _ANSELbits 0188                  __ptext1 0C9E  
                __ptext2 0CF7                  __ptext3 0B9C                  __ptext4 0BEE  
                __ptext5 0C08                  __ptext6 0C4E                  __ptext7 0CCA  
                __ptext8 0BD4                  __ptext9 0BBD                _T2CONbits 0012  
             ??___xxtofl 0024               delay@micro 0070                  clrloop0 0B95  
   end_of_initialization 0024        __end_of_setupPWM2 0C08        __end_of_setupTMR0 0BAC  
             ??_setupADC 0074               ??_setupPWM 0074               ??_verifpos 0074  
              _PORTBbits 0006                _PORTCbits 0007                _PORTDbits 0008  
            ___fladd@grs 005B            ___xxtofl@sign 0028                _TRISAbits 0085  
              _TRISCbits 0087        readEEPROM@address 0074              ___flmul@grs 003D  
            _CCP1CONbits 0017              ?_readEEPROM 0070              _CCP2CONbits 001D  
         __end_of___wmul 0C4E      start_initialization 000F              __end_of_map 07FE  
            __end_of_isr 0EA3                 ??___wmul 0074                __Umul8_16 0C75  
       ??_controlmotores 0066                ___fladd@a 004C                ___fladd@b 0048  
              ___flmul@a 0032                ___flmul@b 002E              __pbssCOMMON 0076  
              ___latbits 0002            __pcstackBANK0 0020            __pcstackBANK1 00B0  
        setupINTOSC@IRCF 0074                 ?___fladd 0048                 ?___awdiv 0024  
               ?___flmul 002E                 ?___fltol 005C               ?__Umul8_16 0074  
      interrupt_function 0004           ___wmul@product 0074                clear_ram0 0B94  
               _PIE1bits 008C                 _PIR1bits 000C                _setupTMR0 0B9C  
              _setupPWM2 0BEE               _ADCON0bits 001F               _ADCON1bits 009F  
          ??_setupINTOSC 0074        ___wmul@multiplier 0020                map@outmax 0033  
              map@outmin 0031                _writeread 00A0             ??_readEEPROM 0074  
             _EECON1bits 018C               ?_setupTMR0 0070               ?_setupPWM2 0070  
            ??__Umul8_16 0020                 ___xxtofl 0F46       __end_of_readEEPROM 0BD4  
               __ptext10 06E4                 __ptext11 0EA3                 __ptext20 0E27  
               __ptext12 0F46                 __ptext21 0BAC                 __ptext13 0DAF  
               __ptext14 0028                 __ptext15 0C75                 __ptext16 036D  
               __ptext17 07C7                 __ptext18 0C27                 __ptext19 0D46  
    __end_of_setupINTOSC 0C75            ??_writeEEPROM 0075                 _setupADC 0CCA  
               _setupPWM 0C08                 _position 0078                 _verifpos 0CF7  
               map@value 0036               _INTCONbits 000B                 intlevel1 0000  
             _OSCCONbits 008F              ??_setupTMR0 0074              ??_setupPWM2 0074  
    __end_of_writeEEPROM 0CCA   __Umul8_16@multiplicand 0074              _setupINTOSC 0C4E  
          ___fladd@signs 0058             ___fladd@aexp 0059             ___fladd@bexp 005A  
   __Umul8_16@multiplier 0026        __Umul8_16@product 0022  
