

Microchip MPLAB XC8 Assembler V2.40 build 20220703182018 
                                                                                               Mon Nov 14 21:32:58 2022

Microchip MPLAB XC8 C Compiler v2.40 (Free license) build 20220703182018 Og1 
     1                           	processor	16F887
     2                           	pagewidth 120
     3                           	opt	flic
     4                           	psect	cinit,global,class=CODE,merge=1,delta=2
     5                           	psect	bssCOMMON,global,class=COMMON,space=1,delta=1,noexec
     6                           	psect	bssBANK0,global,class=BANK0,space=1,delta=1,noexec
     7                           	psect	bssBANK1,global,class=BANK1,space=1,delta=1,noexec
     8                           	psect	cstackBANK1,global,class=BANK1,space=1,delta=1,noexec
     9                           	psect	cstackCOMMON,global,class=COMMON,space=1,delta=1,noexec
    10                           	psect	cstackBANK0,global,class=BANK0,space=1,delta=1,noexec
    11                           	psect	maintext,global,class=CODE,split=1,delta=2
    12                           	psect	text1,local,class=CODE,merge=1,delta=2
    13                           	psect	text2,local,class=CODE,merge=1,delta=2
    14                           	psect	text3,local,class=CODE,merge=1,delta=2
    15                           	psect	text4,local,class=CODE,merge=1,delta=2
    16                           	psect	text5,local,class=CODE,merge=1,delta=2
    17                           	psect	text6,local,class=CODE,merge=1,delta=2
    18                           	psect	text7,local,class=CODE,merge=1,delta=2
    19                           	psect	text8,local,class=CODE,merge=1,delta=2
    20                           	psect	text9,local,class=CODE,merge=1,delta=2
    21                           	psect	text10,local,class=CODE,merge=1,delta=2,group=1
    22                           	psect	text11,local,class=CODE,merge=1,delta=2,group=1
    23                           	psect	text12,local,class=CODE,merge=1,delta=2,group=1
    24                           	psect	text13,local,class=CODE,merge=1,delta=2,group=1
    25                           	psect	text14,local,class=CODE,merge=1,delta=2,group=1
    26                           	psect	text15,local,class=CODE,merge=1,delta=2
    27                           	psect	intentry,global,class=CODE,delta=2
    28                           	psect	idloc,global,abs,ovrld,class=IDLOC,space=5,delta=2,noexec
    29                           	psect	config,global,abs,ovrld,class=CONFIG,space=4,delta=2,noexec
    30                           	dabs	1,0x7E,2
    31     0000                     
    32                           ; Version 2.40
    33                           ; Generated 17/11/2021 GMT
    34                           ; 
    35                           ; Copyright © 2021, Microchip Technology Inc. and its subsidiaries ("Microchip")
    36                           ; All rights reserved.
    37                           ; 
    38                           ; This software is developed by Microchip Technology Inc. and its subsidiaries ("Microch
      +                          ip").
    39                           ; 
    40                           ; Redistribution and use in source and binary forms, with or without modification, are
    41                           ; permitted provided that the following conditions are met:
    42                           ; 
    43                           ;     1. Redistributions of source code must retain the above copyright notice, this lis
      +                          t of
    44                           ;        conditions and the following disclaimer.
    45                           ; 
    46                           ;     2. Redistributions in binary form must reproduce the above copyright notice, this 
      +                          list
    47                           ;        of conditions and the following disclaimer in the documentation and/or other
    48                           ;        materials provided with the distribution. Publication is not required when
    49                           ;        this file is used in an embedded application.
    50                           ; 
    51                           ;     3. Microchip's name may not be used to endorse or promote products derived from th
      +                          is
    52                           ;        software without specific prior written permission.
    53                           ; 
    54                           ; THIS SOFTWARE IS PROVIDED BY MICROCHIP "AS IS" AND ANY EXPRESS OR IMPLIED WARRANTIES,
    55                           ; INCLUDING, BUT NOT LIMITED TO, THE IMPLIED WARRANTIES OF MERCHANTABILITY AND FITNESS F
      +                          OR
    56                           ; PURPOSE ARE DISCLAIMED.  IN NO EVENT SHALL MICROCHIP BE LIABLE FOR ANY DIRECT, INDIREC
      +                          T,
    57                           ; INCIDENTAL, SPECIAL, EXEMPLARY, OR CONSEQUENTIAL DAMAGES (INCLUDING BUT NOT LIMITED TO
    58                           ; PROCUREMENT OF SUBSTITUTE GOODS OR SERVICES; LOSS OF USE, DATA OR PROFITS; OR BUSINESS
    59                           ; INTERRUPTION) HOWSOEVER CAUSED AND ON ANY THEORY OF LIABILITY, WHETHER IN CONTRACT, ST
      +                          RICT
    60                           ; LIABILITY, OR TORT (INCLUDING NEGLIGENCE OR OTHERWISE) ARISING IN ANY WAY OUT OF THE U
      +                          SE OF
    61                           ; THIS SOFTWARE, EVEN IF ADVISED OF THE POSSIBILITY OF SUCH DAMAGE.
    62                           ; 
    63                           ; 
    64                           ; Code-generator required, PIC16F887 Definitions
    65                           ; 
    66                           ; SFR Addresses
    67     0000                     	;# 
    68     0001                     	;# 
    69     0002                     	;# 
    70     0003                     	;# 
    71     0004                     	;# 
    72     0005                     	;# 
    73     0006                     	;# 
    74     0007                     	;# 
    75     0008                     	;# 
    76     0009                     	;# 
    77     000A                     	;# 
    78     000B                     	;# 
    79     000C                     	;# 
    80     000D                     	;# 
    81     000E                     	;# 
    82     000E                     	;# 
    83     000F                     	;# 
    84     0010                     	;# 
    85     0011                     	;# 
    86     0012                     	;# 
    87     0013                     	;# 
    88     0014                     	;# 
    89     0015                     	;# 
    90     0015                     	;# 
    91     0016                     	;# 
    92     0017                     	;# 
    93     0018                     	;# 
    94     0019                     	;# 
    95     001A                     	;# 
    96     001B                     	;# 
    97     001B                     	;# 
    98     001C                     	;# 
    99     001D                     	;# 
   100     001E                     	;# 
   101     001F                     	;# 
   102     0081                     	;# 
   103     0085                     	;# 
   104     0086                     	;# 
   105     0087                     	;# 
   106     0088                     	;# 
   107     0089                     	;# 
   108     008C                     	;# 
   109     008D                     	;# 
   110     008E                     	;# 
   111     008F                     	;# 
   112     0090                     	;# 
   113     0091                     	;# 
   114     0092                     	;# 
   115     0093                     	;# 
   116     0093                     	;# 
   117     0093                     	;# 
   118     0094                     	;# 
   119     0095                     	;# 
   120     0096                     	;# 
   121     0097                     	;# 
   122     0098                     	;# 
   123     0099                     	;# 
   124     009A                     	;# 
   125     009B                     	;# 
   126     009C                     	;# 
   127     009D                     	;# 
   128     009E                     	;# 
   129     009F                     	;# 
   130     0105                     	;# 
   131     0107                     	;# 
   132     0108                     	;# 
   133     0109                     	;# 
   134     010C                     	;# 
   135     010C                     	;# 
   136     010D                     	;# 
   137     010E                     	;# 
   138     010F                     	;# 
   139     0185                     	;# 
   140     0187                     	;# 
   141     0188                     	;# 
   142     0189                     	;# 
   143     018C                     	;# 
   144     018D                     	;# 
   145     0000                     	;# 
   146     0001                     	;# 
   147     0002                     	;# 
   148     0003                     	;# 
   149     0004                     	;# 
   150     0005                     	;# 
   151     0006                     	;# 
   152     0007                     	;# 
   153     0008                     	;# 
   154     0009                     	;# 
   155     000A                     	;# 
   156     000B                     	;# 
   157     000C                     	;# 
   158     000D                     	;# 
   159     000E                     	;# 
   160     000E                     	;# 
   161     000F                     	;# 
   162     0010                     	;# 
   163     0011                     	;# 
   164     0012                     	;# 
   165     0013                     	;# 
   166     0014                     	;# 
   167     0015                     	;# 
   168     0015                     	;# 
   169     0016                     	;# 
   170     0017                     	;# 
   171     0018                     	;# 
   172     0019                     	;# 
   173     001A                     	;# 
   174     001B                     	;# 
   175     001B                     	;# 
   176     001C                     	;# 
   177     001D                     	;# 
   178     001E                     	;# 
   179     001F                     	;# 
   180     0081                     	;# 
   181     0085                     	;# 
   182     0086                     	;# 
   183     0087                     	;# 
   184     0088                     	;# 
   185     0089                     	;# 
   186     008C                     	;# 
   187     008D                     	;# 
   188     008E                     	;# 
   189     008F                     	;# 
   190     0090                     	;# 
   191     0091                     	;# 
   192     0092                     	;# 
   193     0093                     	;# 
   194     0093                     	;# 
   195     0093                     	;# 
   196     0094                     	;# 
   197     0095                     	;# 
   198     0096                     	;# 
   199     0097                     	;# 
   200     0098                     	;# 
   201     0099                     	;# 
   202     009A                     	;# 
   203     009B                     	;# 
   204     009C                     	;# 
   205     009D                     	;# 
   206     009E                     	;# 
   207     009F                     	;# 
   208     0105                     	;# 
   209     0107                     	;# 
   210     0108                     	;# 
   211     0109                     	;# 
   212     010C                     	;# 
   213     010C                     	;# 
   214     010D                     	;# 
   215     010E                     	;# 
   216     010F                     	;# 
   217     0185                     	;# 
   218     0187                     	;# 
   219     0188                     	;# 
   220     0189                     	;# 
   221     018C                     	;# 
   222     018D                     	;# 
   223     0000                     	;# 
   224     0001                     	;# 
   225     0002                     	;# 
   226     0003                     	;# 
   227     0004                     	;# 
   228     0005                     	;# 
   229     0006                     	;# 
   230     0007                     	;# 
   231     0008                     	;# 
   232     0009                     	;# 
   233     000A                     	;# 
   234     000B                     	;# 
   235     000C                     	;# 
   236     000D                     	;# 
   237     000E                     	;# 
   238     000E                     	;# 
   239     000F                     	;# 
   240     0010                     	;# 
   241     0011                     	;# 
   242     0012                     	;# 
   243     0013                     	;# 
   244     0014                     	;# 
   245     0015                     	;# 
   246     0015                     	;# 
   247     0016                     	;# 
   248     0017                     	;# 
   249     0018                     	;# 
   250     0019                     	;# 
   251     001A                     	;# 
   252     001B                     	;# 
   253     001B                     	;# 
   254     001C                     	;# 
   255     001D                     	;# 
   256     001E                     	;# 
   257     001F                     	;# 
   258     0081                     	;# 
   259     0085                     	;# 
   260     0086                     	;# 
   261     0087                     	;# 
   262     0088                     	;# 
   263     0089                     	;# 
   264     008C                     	;# 
   265     008D                     	;# 
   266     008E                     	;# 
   267     008F                     	;# 
   268     0090                     	;# 
   269     0091                     	;# 
   270     0092                     	;# 
   271     0093                     	;# 
   272     0093                     	;# 
   273     0093                     	;# 
   274     0094                     	;# 
   275     0095                     	;# 
   276     0096                     	;# 
   277     0097                     	;# 
   278     0098                     	;# 
   279     0099                     	;# 
   280     009A                     	;# 
   281     009B                     	;# 
   282     009C                     	;# 
   283     009D                     	;# 
   284     009E                     	;# 
   285     009F                     	;# 
   286     0105                     	;# 
   287     0107                     	;# 
   288     0108                     	;# 
   289     0109                     	;# 
   290     010C                     	;# 
   291     010C                     	;# 
   292     010D                     	;# 
   293     010E                     	;# 
   294     010F                     	;# 
   295     0185                     	;# 
   296     0187                     	;# 
   297     0188                     	;# 
   298     0189                     	;# 
   299     018C                     	;# 
   300     018D                     	;# 
   301     001E                     _ADRESH	set	30
   302     001B                     _CCPR2L	set	27
   303     001D                     _CCP2CONbits	set	29
   304     0012                     _T2CONbits	set	18
   305     0015                     _CCPR1L	set	21
   306     0017                     _CCP1CONbits	set	23
   307     0017                     _CCP1CON	set	23
   308     001F                     _ADCON0bits	set	31
   309     0007                     _PORTC	set	7
   310     0005                     _PORTA	set	5
   311     0008                     _PORTD	set	8
   312     0001                     _TMR0	set	1
   313     0007                     _PORTCbits	set	7
   314     000B                     _INTCONbits	set	11
   315     0066                     _ADIF	set	102
   316     0092                     _TMR2ON	set	146
   317     0061                     _TMR2IF	set	97
   318     008F                     _OSCCONbits	set	143
   319     009E                     _ADRESL	set	158
   320     0081                     _OPTION_REGbits	set	129
   321     0092                     _PR2	set	146
   322     0087                     _TRISCbits	set	135
   323     009F                     _ADCON1bits	set	159
   324     0085                     _TRISAbits	set	133
   325     0087                     _TRISC	set	135
   326     0088                     _TRISD	set	136
   327     0188                     _ANSELbits	set	392
   328     0189                     _ANSELH	set	393
   329                           
   330                           	psect	cinit
   331     000F                     start_initialization:	
   332                           ; #config settings
   333                           
   334     000F                     __initialization:
   335                           
   336                           ; Clear objects allocated to COMMON
   337     000F  01F9               	clrf	__pbssCOMMON& (0+127)
   338     0010  01FA               	clrf	(__pbssCOMMON+1)& (0+127)
   339                           
   340                           ; Clear objects allocated to BANK0
   341     0011  1283               	bcf	3,5	;RP0=0, select bank0
   342     0012  1303               	bcf	3,6	;RP1=0, select bank0
   343     0013  01E8               	clrf	__pbssBANK0& (0+127)
   344     0014  01E9               	clrf	(__pbssBANK0+1)& (0+127)
   345     0015  01EA               	clrf	(__pbssBANK0+2)& (0+127)
   346     0016  01EB               	clrf	(__pbssBANK0+3)& (0+127)
   347     0017  01EC               	clrf	(__pbssBANK0+4)& (0+127)
   348     0018  01ED               	clrf	(__pbssBANK0+5)& (0+127)
   349     0019  01EE               	clrf	(__pbssBANK0+6)& (0+127)
   350     001A  01EF               	clrf	(__pbssBANK0+7)& (0+127)
   351                           
   352                           ; Clear objects allocated to BANK1
   353     001B  1683               	bsf	3,5	;RP0=1, select bank1
   354     001C  1303               	bcf	3,6	;RP1=0, select bank1
   355     001D  01A0               	clrf	__pbssBANK1& (0+127)
   356     001E  01A1               	clrf	(__pbssBANK1+1)& (0+127)
   357     001F  01A2               	clrf	(__pbssBANK1+2)& (0+127)
   358     0020  01A3               	clrf	(__pbssBANK1+3)& (0+127)
   359     0021                     end_of_initialization:	
   360                           ;End of C runtime variable initialization code
   361                           
   362     0021                     __end_of__initialization:
   363     0021  0183               	clrf	3
   364     0022  120A  158A  2F50   	ljmp	_main	;jump to C main() function
   365                           
   366                           	psect	bssCOMMON
   367     0079                     __pbssCOMMON:
   368     0079                     _valDCL:
   369     0079                     	ds	2
   370                           
   371                           	psect	bssBANK0
   372     0068                     __pbssBANK0:
   373     0068                     _pulso:
   374     0068                     	ds	2
   375     006A                     _valDCH:
   376     006A                     	ds	2
   377     006C                     _valDC:
   378     006C                     	ds	2
   379     006E                     _ADC_RES:
   380     006E                     	ds	2
   381                           
   382                           	psect	bssBANK1
   383     00A0                     __pbssBANK1:
   384     00A0                     _cont:
   385     00A0                     	ds	2
   386     00A2                     _ADC_led:
   387     00A2                     	ds	2
   388                           
   389                           	psect	cstackBANK1
   390     00A4                     __pcstackBANK1:
   391     00A4                     ??_main:
   392                           
   393                           ; 1 bytes @ 0x0
   394     00A4                     	ds	1
   395                           
   396                           	psect	cstackCOMMON
   397     0070                     __pcstackCOMMON:
   398     0070                     ?_setup:
   399     0070                     ?_setupINTOSC:	
   400                           ; 1 bytes @ 0x0
   401                           
   402     0070                     ?_setupADC:	
   403                           ; 1 bytes @ 0x0
   404                           
   405     0070                     ?_setupPWM:	
   406                           ; 1 bytes @ 0x0
   407                           
   408     0070                     ?_setupPWM2:	
   409                           ; 1 bytes @ 0x0
   410                           
   411     0070                     ?_setupTMR0:	
   412                           ; 1 bytes @ 0x0
   413                           
   414     0070                     ?_controlmotores:	
   415                           ; 1 bytes @ 0x0
   416                           
   417     0070                     ?_isr:	
   418                           ; 1 bytes @ 0x0
   419                           
   420     0070                     ??_isr:	
   421                           ; 1 bytes @ 0x0
   422                           
   423     0070                     ?_main:	
   424                           ; 1 bytes @ 0x0
   425                           
   426     0070                     ?_PWM1:	
   427                           ; 1 bytes @ 0x0
   428                           
   429     0070                     ?_map:	
   430                           ; 1 bytes @ 0x0
   431                           
   432                           
   433                           ; 1 bytes @ 0x0
   434     0070                     	ds	3
   435     0073                     ??_setup:
   436     0073                     ??_setupINTOSC:	
   437                           ; 1 bytes @ 0x3
   438                           
   439     0073                     ??_setupADC:	
   440                           ; 1 bytes @ 0x3
   441                           
   442     0073                     ??_setupPWM:	
   443                           ; 1 bytes @ 0x3
   444                           
   445     0073                     ??_setupPWM2:	
   446                           ; 1 bytes @ 0x3
   447                           
   448     0073                     ??_setupTMR0:	
   449                           ; 1 bytes @ 0x3
   450                           
   451     0073                     ?__Umul8_16:	
   452                           ; 1 bytes @ 0x3
   453                           
   454     0073                     ?___xxtofl:	
   455                           ; 2 bytes @ 0x3
   456                           
   457     0073                     setupINTOSC@IRCF:	
   458                           ; 4 bytes @ 0x3
   459                           
   460     0073                     __Umul8_16@multiplicand:	
   461                           ; 1 bytes @ 0x3
   462                           
   463     0073                     ___xxtofl@val:	
   464                           ; 1 bytes @ 0x3
   465                           
   466                           
   467                           ; 4 bytes @ 0x3
   468     0073                     	ds	2
   469     0075                     ??__Umul8_16:
   470                           
   471                           ; 1 bytes @ 0x5
   472     0075                     	ds	2
   473     0077                     ___fltol@sign1:
   474                           
   475                           ; 1 bytes @ 0x7
   476     0077                     	ds	1
   477     0078                     ___fltol@exp1:
   478                           
   479                           ; 1 bytes @ 0x8
   480     0078                     	ds	1
   481                           
   482                           	psect	cstackBANK0
   483     0020                     __pcstackBANK0:
   484     0020                     ??___xxtofl:
   485     0020                     __Umul8_16@product:	
   486                           ; 1 bytes @ 0x0
   487                           
   488                           
   489                           ; 2 bytes @ 0x0
   490     0020                     	ds	2
   491     0022                     __Umul8_16@word_mpld:
   492                           
   493                           ; 2 bytes @ 0x2
   494     0022                     	ds	2
   495     0024                     __Umul8_16@multiplier:
   496     0024                     ___xxtofl@sign:	
   497                           ; 1 bytes @ 0x4
   498                           
   499                           
   500                           ; 1 bytes @ 0x4
   501     0024                     	ds	1
   502     0025                     ___xxtofl@exp:
   503                           
   504                           ; 1 bytes @ 0x5
   505     0025                     	ds	1
   506     0026                     ___xxtofl@arg:
   507                           
   508                           ; 4 bytes @ 0x6
   509     0026                     	ds	4
   510     002A                     ?___flmul:
   511     002A                     ___flmul@b:	
   512                           ; 4 bytes @ 0xA
   513                           
   514                           
   515                           ; 4 bytes @ 0xA
   516     002A                     	ds	4
   517     002E                     ___flmul@a:
   518                           
   519                           ; 4 bytes @ 0xE
   520     002E                     	ds	4
   521     0032                     ??___flmul:
   522                           
   523                           ; 1 bytes @ 0x12
   524     0032                     	ds	5
   525     0037                     ___flmul@sign:
   526                           
   527                           ; 1 bytes @ 0x17
   528     0037                     	ds	1
   529     0038                     ___flmul@grs:
   530                           
   531                           ; 4 bytes @ 0x18
   532     0038                     	ds	4
   533     003C                     ___flmul@aexp:
   534                           
   535                           ; 1 bytes @ 0x1C
   536     003C                     	ds	1
   537     003D                     ___flmul@bexp:
   538                           
   539                           ; 1 bytes @ 0x1D
   540     003D                     	ds	1
   541     003E                     ___flmul@prod:
   542                           
   543                           ; 4 bytes @ 0x1E
   544     003E                     	ds	4
   545     0042                     ___flmul@temp:
   546                           
   547                           ; 2 bytes @ 0x22
   548     0042                     	ds	2
   549     0044                     ?___fladd:
   550     0044                     ___fladd@b:	
   551                           ; 4 bytes @ 0x24
   552                           
   553                           
   554                           ; 4 bytes @ 0x24
   555     0044                     	ds	4
   556     0048                     ___fladd@a:
   557                           
   558                           ; 4 bytes @ 0x28
   559     0048                     	ds	4
   560     004C                     ??___fladd:
   561                           
   562                           ; 1 bytes @ 0x2C
   563     004C                     	ds	8
   564     0054                     ___fladd@signs:
   565                           
   566                           ; 1 bytes @ 0x34
   567     0054                     	ds	1
   568     0055                     ___fladd@aexp:
   569                           
   570                           ; 1 bytes @ 0x35
   571     0055                     	ds	1
   572     0056                     ___fladd@bexp:
   573                           
   574                           ; 1 bytes @ 0x36
   575     0056                     	ds	1
   576     0057                     ___fladd@grs:
   577                           
   578                           ; 1 bytes @ 0x37
   579     0057                     	ds	1
   580     0058                     ?___fltol:
   581     0058                     ___fltol@f1:	
   582                           ; 4 bytes @ 0x38
   583                           
   584                           
   585                           ; 4 bytes @ 0x38
   586     0058                     	ds	4
   587     005C                     ??___fltol:
   588                           
   589                           ; 1 bytes @ 0x3C
   590     005C                     	ds	4
   591     0060                     ??_PWM1:
   592     0060                     ??_map:	
   593                           ; 1 bytes @ 0x40
   594                           
   595                           
   596                           ; 1 bytes @ 0x40
   597     0060                     	ds	5
   598     0065                     ??_controlmotores:
   599                           
   600                           ; 1 bytes @ 0x45
   601     0065                     	ds	3
   602                           
   603                           	psect	maintext
   604     0F50                     __pmaintext:	
   605 ;;
   606 ;;Main: autosize = 0, tempsize = 1, incstack = 0, save=0
   607 ;;
   608 ;; *************** function _main *****************
   609 ;; Defined at:
   610 ;;		line 82 in file "main.c"
   611 ;; Parameters:    Size  Location     Type
   612 ;;		None
   613 ;; Auto vars:     Size  Location     Type
   614 ;;		None
   615 ;; Return value:  Size  Location     Type
   616 ;;                  1    wreg      void 
   617 ;; Registers used:
   618 ;;		wreg, status,2, status,0, btemp+1, pclath, cstack
   619 ;; Tracked objects:
   620 ;;		On entry : B00/0
   621 ;;		On exit  : 0/0
   622 ;;		Unchanged: 0/0
   623 ;; Data sizes:     COMMON   BANK0   BANK1   BANK3   BANK2
   624 ;;      Params:         0       0       0       0       0
   625 ;;      Locals:         0       0       0       0       0
   626 ;;      Temps:          0       0       1       0       0
   627 ;;      Totals:         0       0       1       0       0
   628 ;;Total ram usage:        1 bytes
   629 ;; Hardware stack levels required when called: 5
   630 ;; This function calls:
   631 ;;		_controlmotores
   632 ;;		_setup
   633 ;;		_setupADC
   634 ;;		_setupINTOSC
   635 ;;		_setupPWM
   636 ;;		_setupPWM2
   637 ;;		_setupTMR0
   638 ;; This function is called by:
   639 ;;		Startup code after reset
   640 ;; This function uses a non-reentrant model
   641 ;;
   642                           
   643     0F50                     _main:	
   644                           ;psect for function _main
   645                           
   646     0F50                     l2061:	
   647                           ;incstack = 0
   648                           ; Regs used in _main: [wreg+status,2+status,0+btemp+1+pclath+cstack]
   649                           
   650                           
   651                           ;main.c: 84:     setup();
   652     0F50  120A  158A  2661  120A  158A  	fcall	_setup
   653     0F55                     l2063:
   654                           
   655                           ;main.c: 85:     setupINTOSC(3);
   656     0F55  3003               	movlw	3
   657     0F56  120A  158A  26D3  120A  158A  	fcall	_setupINTOSC
   658     0F5B                     l2065:
   659                           
   660                           ;main.c: 86:     setupADC();
   661     0F5B  120A  158A  2723  120A  158A  	fcall	_setupADC
   662     0F60                     l2067:
   663                           
   664                           ;main.c: 87:     setupPWM();
   665     0F60  120A  158A  26B4  120A  158A  	fcall	_setupPWM
   666     0F65                     l2069:
   667                           
   668                           ;main.c: 88:     setupPWM2();
   669     0F65  120A  158A  267D  120A  158A  	fcall	_setupPWM2
   670     0F6A                     l2071:
   671                           
   672                           ;main.c: 89:     setupTMR0();
   673     0F6A  120A  158A  266E  120A  158A  	fcall	_setupTMR0
   674     0F6F                     l2073:
   675                           
   676                           ;main.c: 91:     cont = 0;
   677     0F6F  1683               	bsf	3,5	;RP0=1, select bank1
   678     0F70  1303               	bcf	3,6	;RP1=0, select bank1
   679     0F71  01A0               	clrf	_cont^(0+128)
   680     0F72  01A1               	clrf	(_cont+1)^(0+128)
   681     0F73                     l2075:
   682                           
   683                           ;main.c: 92:     pulso = 255;
   684     0F73  30FF               	movlw	255
   685     0F74  1283               	bcf	3,5	;RP0=0, select bank0
   686     0F75  1303               	bcf	3,6	;RP1=0, select bank0
   687     0F76  00E8               	movwf	_pulso
   688     0F77  3000               	movlw	0
   689     0F78  00E9               	movwf	_pulso+1
   690     0F79                     l2077:
   691                           
   692                           ;main.c: 95:         controlmotores();
   693     0F79  120A  118A  267C  120A  158A  	fcall	_controlmotores
   694     0F7E                     l2079:
   695                           
   696                           ;main.c: 96:         _delay((unsigned long)((100)*(500000/4000000.0)));
   697     0F7E  3003               	movlw	3
   698     0F7F  1683               	bsf	3,5	;RP0=1, select bank1
   699     0F80  1303               	bcf	3,6	;RP1=0, select bank1
   700     0F81  00A4               	movwf	??_main^(0+128)
   701     0F82                     u2747:
   702     0F82  0BA4               	decfsz	??_main^(0+128),f
   703     0F83  2F82               	goto	u2747
   704     0F84  2F79               	goto	l2077
   705     0F85  120A  118A  280C   	ljmp	start
   706     0F88                     __end_of_main:
   707                           
   708                           	psect	text1
   709     0E6E                     __ptext1:	
   710 ;; *************** function _setupTMR0 *****************
   711 ;; Defined at:
   712 ;;		line 183 in file "main.c"
   713 ;; Parameters:    Size  Location     Type
   714 ;;		None
   715 ;; Auto vars:     Size  Location     Type
   716 ;;		None
   717 ;; Return value:  Size  Location     Type
   718 ;;                  1    wreg      void 
   719 ;; Registers used:
   720 ;;		wreg, status,2, status,0
   721 ;; Tracked objects:
   722 ;;		On entry : 0/0
   723 ;;		On exit  : 0/0
   724 ;;		Unchanged: 0/0
   725 ;; Data sizes:     COMMON   BANK0   BANK1   BANK3   BANK2
   726 ;;      Params:         0       0       0       0       0
   727 ;;      Locals:         0       0       0       0       0
   728 ;;      Temps:          0       0       0       0       0
   729 ;;      Totals:         0       0       0       0       0
   730 ;;Total ram usage:        0 bytes
   731 ;; Hardware stack levels used: 1
   732 ;; Hardware stack levels required when called: 1
   733 ;; This function calls:
   734 ;;		Nothing
   735 ;; This function is called by:
   736 ;;		_main
   737 ;; This function uses a non-reentrant model
   738 ;;
   739                           
   740     0E6E                     _setupTMR0:	
   741                           ;psect for function _setupTMR0
   742                           
   743     0E6E                     l1845:	
   744                           ;incstack = 0
   745                           ; Regs used in _setupTMR0: [wreg+status,2+status,0]
   746                           
   747                           
   748                           ;main.c: 184:     INTCONbits.GIE = 1;
   749     0E6E  178B               	bsf	11,7	;volatile
   750                           
   751                           ;main.c: 185:     INTCONbits.T0IE = 1;
   752     0E6F  168B               	bsf	11,5	;volatile
   753                           
   754                           ;main.c: 186:     INTCONbits.T0IF = 0;
   755     0E70  110B               	bcf	11,2	;volatile
   756                           
   757                           ;main.c: 188:     OPTION_REGbits.T0CS = 0;
   758     0E71  1683               	bsf	3,5	;RP0=1, select bank1
   759     0E72  1303               	bcf	3,6	;RP1=0, select bank1
   760     0E73  1281               	bcf	1,5	;volatile
   761                           
   762                           ;main.c: 189:     OPTION_REGbits.PSA = 0;
   763     0E74  1181               	bcf	1,3	;volatile
   764     0E75                     l1847:
   765                           
   766                           ;main.c: 190:     OPTION_REGbits.PS = 0b011;
   767     0E75  0801               	movf	1,w	;volatile
   768     0E76  39F8               	andlw	-8
   769     0E77  3803               	iorlw	3
   770     0E78  0081               	movwf	1	;volatile
   771     0E79                     l1849:
   772                           
   773                           ;main.c: 191:     TMR0 = 0;
   774     0E79  1283               	bcf	3,5	;RP0=0, select bank0
   775     0E7A  1303               	bcf	3,6	;RP1=0, select bank0
   776     0E7B  0181               	clrf	1	;volatile
   777     0E7C                     l121:
   778     0E7C  0008               	return
   779     0E7D                     __end_of_setupTMR0:
   780                           
   781                           	psect	text2
   782     0E7D                     __ptext2:	
   783 ;; *************** function _setupPWM2 *****************
   784 ;; Defined at:
   785 ;;		line 163 in file "main.c"
   786 ;; Parameters:    Size  Location     Type
   787 ;;		None
   788 ;; Auto vars:     Size  Location     Type
   789 ;;		None
   790 ;; Return value:  Size  Location     Type
   791 ;;                  1    wreg      void 
   792 ;; Registers used:
   793 ;;		wreg, status,2, status,0
   794 ;; Tracked objects:
   795 ;;		On entry : 0/0
   796 ;;		On exit  : 0/0
   797 ;;		Unchanged: 0/0
   798 ;; Data sizes:     COMMON   BANK0   BANK1   BANK3   BANK2
   799 ;;      Params:         0       0       0       0       0
   800 ;;      Locals:         0       0       0       0       0
   801 ;;      Temps:          0       0       0       0       0
   802 ;;      Totals:         0       0       0       0       0
   803 ;;Total ram usage:        0 bytes
   804 ;; Hardware stack levels used: 1
   805 ;; Hardware stack levels required when called: 1
   806 ;; This function calls:
   807 ;;		Nothing
   808 ;; This function is called by:
   809 ;;		_main
   810 ;; This function uses a non-reentrant model
   811 ;;
   812                           
   813     0E7D                     _setupPWM2:	
   814                           ;psect for function _setupPWM2
   815                           
   816     0E7D                     l1831:	
   817                           ;incstack = 0
   818                           ; Regs used in _setupPWM2: [wreg+status,2+status,0]
   819                           
   820                           
   821                           ;main.c: 165:     TRISCbits.TRISC1 = 1;
   822     0E7D  1683               	bsf	3,5	;RP0=1, select bank1
   823     0E7E  1303               	bcf	3,6	;RP1=0, select bank1
   824     0E7F  1487               	bsf	7,1	;volatile
   825     0E80                     l1833:
   826                           
   827                           ;main.c: 167:     PR2 = 155;
   828     0E80  309B               	movlw	155
   829     0E81  0092               	movwf	18	;volatile
   830     0E82                     l1835:
   831                           
   832                           ;main.c: 169:     CCP2CONbits.CCP2M = 0b1111;
   833     0E82  300F               	movlw	15
   834     0E83  1283               	bcf	3,5	;RP0=0, select bank0
   835     0E84  1303               	bcf	3,6	;RP1=0, select bank0
   836     0E85  049D               	iorwf	29,f	;volatile
   837     0E86                     l1837:
   838                           
   839                           ;main.c: 171:     CCP2CONbits.DC2B1 = valDCL;
   840     0E86  0C79               	rrf	_valDCL,w
   841     0E87  1C03               	skipc
   842     0E88  129D               	bcf	29,5	;volatile
   843     0E89  1803               	skipnc
   844     0E8A  169D               	bsf	29,5	;volatile
   845     0E8B                     l1839:
   846                           
   847                           ;main.c: 172:     CCP2CONbits.DC2B0 = 0b1;
   848     0E8B  161D               	bsf	29,4	;volatile
   849     0E8C                     l1841:
   850                           
   851                           ;main.c: 173:     CCPR2L = valDCH;
   852     0E8C  086A               	movf	_valDCH,w
   853     0E8D  009B               	movwf	27	;volatile
   854     0E8E                     l1843:
   855                           
   856                           ;main.c: 175:     TMR2IF = 0;
   857     0E8E  108C               	bcf	12,1	;volatile
   858     0E8F                     l115:	
   859                           ;main.c: 177:     while(!TMR2IF);
   860                           
   861     0E8F  1C8C               	btfss	12,1	;volatile
   862     0E90  2E92               	goto	u2391
   863     0E91  2E93               	goto	u2390
   864     0E92                     u2391:
   865     0E92  2E8F               	goto	l115
   866     0E93                     u2390:
   867     0E93                     l117:
   868                           
   869                           ;main.c: 178:     TRISCbits.TRISC1 = 0;
   870     0E93  1683               	bsf	3,5	;RP0=1, select bank1
   871     0E94  1303               	bcf	3,6	;RP1=0, select bank1
   872     0E95  1087               	bcf	7,1	;volatile
   873     0E96                     l118:
   874     0E96  0008               	return
   875     0E97                     __end_of_setupPWM2:
   876                           
   877                           	psect	text3
   878     0EB4                     __ptext3:	
   879 ;; *************** function _setupPWM *****************
   880 ;; Defined at:
   881 ;;		line 145 in file "main.c"
   882 ;; Parameters:    Size  Location     Type
   883 ;;		None
   884 ;; Auto vars:     Size  Location     Type
   885 ;;		None
   886 ;; Return value:  Size  Location     Type
   887 ;;                  1    wreg      void 
   888 ;; Registers used:
   889 ;;		wreg, status,2, status,0
   890 ;; Tracked objects:
   891 ;;		On entry : 0/0
   892 ;;		On exit  : 0/0
   893 ;;		Unchanged: 0/0
   894 ;; Data sizes:     COMMON   BANK0   BANK1   BANK3   BANK2
   895 ;;      Params:         0       0       0       0       0
   896 ;;      Locals:         0       0       0       0       0
   897 ;;      Temps:          1       0       0       0       0
   898 ;;      Totals:         1       0       0       0       0
   899 ;;Total ram usage:        1 bytes
   900 ;; Hardware stack levels used: 1
   901 ;; Hardware stack levels required when called: 1
   902 ;; This function calls:
   903 ;;		Nothing
   904 ;; This function is called by:
   905 ;;		_main
   906 ;; This function uses a non-reentrant model
   907 ;;
   908                           
   909     0EB4                     _setupPWM:	
   910                           ;psect for function _setupPWM
   911                           
   912     0EB4                     l1819:	
   913                           ;incstack = 0
   914                           ; Regs used in _setupPWM: [wreg+status,2+status,0]
   915                           
   916                           
   917                           ;main.c: 147:     TRISCbits.TRISC2 = 1;
   918     0EB4  1683               	bsf	3,5	;RP0=1, select bank1
   919     0EB5  1303               	bcf	3,6	;RP1=0, select bank1
   920     0EB6  1507               	bsf	7,2	;volatile
   921     0EB7                     l1821:
   922                           
   923                           ;main.c: 149:     PR2 = 155;
   924     0EB7  309B               	movlw	155
   925     0EB8  0092               	movwf	18	;volatile
   926                           
   927                           ;main.c: 151:     CCP1CON = 0b00001100;
   928     0EB9  300C               	movlw	12
   929     0EBA  1283               	bcf	3,5	;RP0=0, select bank0
   930     0EBB  1303               	bcf	3,6	;RP1=0, select bank0
   931     0EBC  0097               	movwf	23	;volatile
   932     0EBD                     l1823:
   933                           
   934                           ;main.c: 153:     CCP1CONbits.DC1B = valDCL;
   935     0EBD  0879               	movf	_valDCL,w
   936     0EBE  00F3               	movwf	??_setupPWM
   937     0EBF  0EF3               	swapf	??_setupPWM,f
   938     0EC0  0817               	movf	23,w	;volatile
   939     0EC1  0673               	xorwf	??_setupPWM,w
   940     0EC2  39CF               	andlw	-49
   941     0EC3  0673               	xorwf	??_setupPWM,w
   942     0EC4  0097               	movwf	23	;volatile
   943     0EC5                     l1825:
   944                           
   945                           ;main.c: 154:     CCPR1L = valDCH ;
   946     0EC5  086A               	movf	_valDCH,w
   947     0EC6  0095               	movwf	21	;volatile
   948     0EC7                     l1827:
   949                           
   950                           ;main.c: 156:     TMR2IF = 0;
   951     0EC7  108C               	bcf	12,1	;volatile
   952                           
   953                           ;main.c: 157:     T2CONbits.T2CKPS = 0b11;
   954     0EC8  3003               	movlw	3
   955     0EC9  0492               	iorwf	18,f	;volatile
   956     0ECA                     l1829:
   957                           
   958                           ;main.c: 158:     TMR2ON = 1;
   959     0ECA  1512               	bsf	18,2	;volatile
   960     0ECB                     l109:	
   961                           ;main.c: 160:     while(!TMR2IF);
   962                           
   963     0ECB  1C8C               	btfss	12,1	;volatile
   964     0ECC  2ECE               	goto	u2381
   965     0ECD  2ECF               	goto	u2380
   966     0ECE                     u2381:
   967     0ECE  2ECB               	goto	l109
   968     0ECF                     u2380:
   969     0ECF                     l111:
   970                           
   971                           ;main.c: 161:     TRISCbits.TRISC2 = 0;
   972     0ECF  1683               	bsf	3,5	;RP0=1, select bank1
   973     0ED0  1303               	bcf	3,6	;RP1=0, select bank1
   974     0ED1  1107               	bcf	7,2	;volatile
   975     0ED2                     l112:
   976     0ED2  0008               	return
   977     0ED3                     __end_of_setupPWM:
   978                           
   979                           	psect	text4
   980     0ED3                     __ptext4:	
   981 ;; *************** function _setupINTOSC *****************
   982 ;; Defined at:
   983 ;;		line 14 in file "oscilador.c"
   984 ;; Parameters:    Size  Location     Type
   985 ;;  IRCF            1    wreg     unsigned char 
   986 ;; Auto vars:     Size  Location     Type
   987 ;;  IRCF            1    3[COMMON] unsigned char 
   988 ;; Return value:  Size  Location     Type
   989 ;;                  1    wreg      void 
   990 ;; Registers used:
   991 ;;		wreg, status,2, status,0
   992 ;; Tracked objects:
   993 ;;		On entry : 0/0
   994 ;;		On exit  : 0/0
   995 ;;		Unchanged: 0/0
   996 ;; Data sizes:     COMMON   BANK0   BANK1   BANK3   BANK2
   997 ;;      Params:         0       0       0       0       0
   998 ;;      Locals:         1       0       0       0       0
   999 ;;      Temps:          0       0       0       0       0
  1000 ;;      Totals:         1       0       0       0       0
  1001 ;;Total ram usage:        1 bytes
  1002 ;; Hardware stack levels used: 1
  1003 ;; Hardware stack levels required when called: 1
  1004 ;; This function calls:
  1005 ;;		Nothing
  1006 ;; This function is called by:
  1007 ;;		_main
  1008 ;; This function uses a non-reentrant model
  1009 ;;
  1010                           
  1011     0ED3                     _setupINTOSC:	
  1012                           ;psect for function _setupINTOSC
  1013                           
  1014                           
  1015                           ;incstack = 0
  1016                           ; Regs used in _setupINTOSC: [wreg+status,2+status,0]
  1017                           ;setupINTOSC@IRCF stored from wreg
  1018     0ED3  00F3               	movwf	setupINTOSC@IRCF
  1019     0ED4                     l1777:
  1020                           
  1021                           ;oscilador.c: 17:     if(IRCF == 7){
  1022     0ED4  3007               	movlw	7
  1023     0ED5  0673               	xorwf	setupINTOSC@IRCF,w
  1024     0ED6  1D03               	btfss	3,2
  1025     0ED7  2ED9               	goto	u2351
  1026     0ED8  2EDA               	goto	u2350
  1027     0ED9                     u2351:
  1028     0ED9  2EDE               	goto	l144
  1029     0EDA                     u2350:
  1030     0EDA                     l1779:
  1031                           
  1032                           ;oscilador.c: 18:         OSCCONbits.IRCF = 0b111;
  1033     0EDA  3070               	movlw	112
  1034     0EDB  1683               	bsf	3,5	;RP0=1, select bank1
  1035     0EDC  1303               	bcf	3,6	;RP1=0, select bank1
  1036     0EDD  048F               	iorwf	15,f	;volatile
  1037     0EDE                     l144:	
  1038                           ;oscilador.c: 19:     }
  1039                           
  1040                           
  1041                           ;oscilador.c: 20:     if(IRCF == 6){
  1042     0EDE  3006               	movlw	6
  1043     0EDF  0673               	xorwf	setupINTOSC@IRCF,w
  1044     0EE0  1D03               	btfss	3,2
  1045     0EE1  2EE3               	goto	u2361
  1046     0EE2  2EE4               	goto	u2360
  1047     0EE3                     u2361:
  1048     0EE3  2EEA               	goto	l145
  1049     0EE4                     u2360:
  1050     0EE4                     l1781:
  1051                           
  1052                           ;oscilador.c: 21:         OSCCONbits.IRCF = 0b110;
  1053     0EE4  1683               	bsf	3,5	;RP0=1, select bank1
  1054     0EE5  1303               	bcf	3,6	;RP1=0, select bank1
  1055     0EE6  080F               	movf	15,w	;volatile
  1056     0EE7  398F               	andlw	-113
  1057     0EE8  3860               	iorlw	96
  1058     0EE9  008F               	movwf	15	;volatile
  1059     0EEA                     l145:	
  1060                           ;oscilador.c: 22:     }
  1061                           
  1062                           
  1063                           ;oscilador.c: 23:     if(IRCF == 3){
  1064     0EEA  3003               	movlw	3
  1065     0EEB  0673               	xorwf	setupINTOSC@IRCF,w
  1066     0EEC  1D03               	btfss	3,2
  1067     0EED  2EEF               	goto	u2371
  1068     0EEE  2EF0               	goto	u2370
  1069     0EEF                     u2371:
  1070     0EEF  2EF6               	goto	l1785
  1071     0EF0                     u2370:
  1072     0EF0                     l1783:
  1073                           
  1074                           ;oscilador.c: 24:         OSCCONbits.IRCF = 0b011;
  1075     0EF0  1683               	bsf	3,5	;RP0=1, select bank1
  1076     0EF1  1303               	bcf	3,6	;RP1=0, select bank1
  1077     0EF2  080F               	movf	15,w	;volatile
  1078     0EF3  398F               	andlw	-113
  1079     0EF4  3830               	iorlw	48
  1080     0EF5  008F               	movwf	15	;volatile
  1081     0EF6                     l1785:
  1082                           
  1083                           ;oscilador.c: 27:     OSCCONbits.SCS = 1;
  1084     0EF6  1683               	bsf	3,5	;RP0=1, select bank1
  1085     0EF7  1303               	bcf	3,6	;RP1=0, select bank1
  1086     0EF8  140F               	bsf	15,0	;volatile
  1087     0EF9                     l147:
  1088     0EF9  0008               	return
  1089     0EFA                     __end_of_setupINTOSC:
  1090                           
  1091                           	psect	text5
  1092     0F23                     __ptext5:	
  1093 ;; *************** function _setupADC *****************
  1094 ;; Defined at:
  1095 ;;		line 115 in file "main.c"
  1096 ;; Parameters:    Size  Location     Type
  1097 ;;		None
  1098 ;; Auto vars:     Size  Location     Type
  1099 ;;		None
  1100 ;; Return value:  Size  Location     Type
  1101 ;;                  1    wreg      void 
  1102 ;; Registers used:
  1103 ;;		wreg, status,2
  1104 ;; Tracked objects:
  1105 ;;		On entry : 0/0
  1106 ;;		On exit  : 0/0
  1107 ;;		Unchanged: 0/0
  1108 ;; Data sizes:     COMMON   BANK0   BANK1   BANK3   BANK2
  1109 ;;      Params:         0       0       0       0       0
  1110 ;;      Locals:         0       0       0       0       0
  1111 ;;      Temps:          1       0       0       0       0
  1112 ;;      Totals:         1       0       0       0       0
  1113 ;;Total ram usage:        1 bytes
  1114 ;; Hardware stack levels used: 1
  1115 ;; Hardware stack levels required when called: 1
  1116 ;; This function calls:
  1117 ;;		Nothing
  1118 ;; This function is called by:
  1119 ;;		_main
  1120 ;; This function uses a non-reentrant model
  1121 ;;
  1122                           
  1123     0F23                     _setupADC:	
  1124                           ;psect for function _setupADC
  1125                           
  1126     0F23                     l1787:	
  1127                           ;incstack = 0
  1128                           ; Regs used in _setupADC: [wreg+status,2]
  1129                           
  1130                           
  1131                           ;main.c: 118:     ANSELH = 0;
  1132     0F23  1683               	bsf	3,5	;RP0=1, select bank3
  1133     0F24  1703               	bsf	3,6	;RP1=1, select bank3
  1134     0F25  0189               	clrf	9	;volatile
  1135     0F26                     l1789:
  1136                           
  1137                           ;main.c: 119:     TRISAbits.TRISA0 = 1;
  1138     0F26  1683               	bsf	3,5	;RP0=1, select bank1
  1139     0F27  1303               	bcf	3,6	;RP1=0, select bank1
  1140     0F28  1405               	bsf	5,0	;volatile
  1141     0F29                     l1791:
  1142                           
  1143                           ;main.c: 120:     ANSELbits.ANS0 = 1;
  1144     0F29  1683               	bsf	3,5	;RP0=1, select bank3
  1145     0F2A  1703               	bsf	3,6	;RP1=1, select bank3
  1146     0F2B  1408               	bsf	8,0	;volatile
  1147     0F2C                     l1793:
  1148                           
  1149                           ;main.c: 121:     TRISAbits.TRISA1 = 1;
  1150     0F2C  1683               	bsf	3,5	;RP0=1, select bank1
  1151     0F2D  1303               	bcf	3,6	;RP1=0, select bank1
  1152     0F2E  1485               	bsf	5,1	;volatile
  1153     0F2F                     l1795:
  1154                           
  1155                           ;main.c: 122:     ANSELbits.ANS1 = 1;
  1156     0F2F  1683               	bsf	3,5	;RP0=1, select bank3
  1157     0F30  1703               	bsf	3,6	;RP1=1, select bank3
  1158     0F31  1488               	bsf	8,1	;volatile
  1159     0F32                     l1797:
  1160                           
  1161                           ;main.c: 123:     TRISAbits.TRISA2 = 1;
  1162     0F32  1683               	bsf	3,5	;RP0=1, select bank1
  1163     0F33  1303               	bcf	3,6	;RP1=0, select bank1
  1164     0F34  1505               	bsf	5,2	;volatile
  1165     0F35                     l1799:
  1166                           
  1167                           ;main.c: 124:     ANSELbits.ANS2 = 1;
  1168     0F35  1683               	bsf	3,5	;RP0=1, select bank3
  1169     0F36  1703               	bsf	3,6	;RP1=1, select bank3
  1170     0F37  1508               	bsf	8,2	;volatile
  1171     0F38                     l1801:
  1172                           
  1173                           ;main.c: 125:     TRISAbits.TRISA3 = 1;
  1174     0F38  1683               	bsf	3,5	;RP0=1, select bank1
  1175     0F39  1303               	bcf	3,6	;RP1=0, select bank1
  1176     0F3A  1585               	bsf	5,3	;volatile
  1177     0F3B                     l1803:
  1178                           
  1179                           ;main.c: 126:     ANSELbits.ANS3 = 1;
  1180     0F3B  1683               	bsf	3,5	;RP0=1, select bank3
  1181     0F3C  1703               	bsf	3,6	;RP1=1, select bank3
  1182     0F3D  1588               	bsf	8,3	;volatile
  1183     0F3E                     l1805:
  1184                           
  1185                           ;main.c: 131:     ADCON0bits.ADCS1 = 0;
  1186     0F3E  1283               	bcf	3,5	;RP0=0, select bank0
  1187     0F3F  1303               	bcf	3,6	;RP1=0, select bank0
  1188     0F40  139F               	bcf	31,7	;volatile
  1189     0F41                     l1807:
  1190                           
  1191                           ;main.c: 132:     ADCON0bits.ADCS0 = 1;
  1192     0F41  171F               	bsf	31,6	;volatile
  1193     0F42                     l1809:
  1194                           
  1195                           ;main.c: 134:     ADCON1bits.VCFG1 = 0;
  1196     0F42  1683               	bsf	3,5	;RP0=1, select bank1
  1197     0F43  1303               	bcf	3,6	;RP1=0, select bank1
  1198     0F44  129F               	bcf	31,5	;volatile
  1199     0F45                     l1811:
  1200                           
  1201                           ;main.c: 135:     ADCON1bits.VCFG0 = 0;
  1202     0F45  121F               	bcf	31,4	;volatile
  1203     0F46                     l1813:
  1204                           
  1205                           ;main.c: 137:     ADCON1bits.ADFM = 0;
  1206     0F46  139F               	bcf	31,7	;volatile
  1207     0F47                     l1815:
  1208                           
  1209                           ;main.c: 139:     ADCON0bits.ADON = 1;
  1210     0F47  1283               	bcf	3,5	;RP0=0, select bank0
  1211     0F48  1303               	bcf	3,6	;RP1=0, select bank0
  1212     0F49  141F               	bsf	31,0	;volatile
  1213     0F4A                     l1817:
  1214                           
  1215                           ;main.c: 140:     _delay((unsigned long)((100)*(500000/4000000.0)));
  1216     0F4A  3003               	movlw	3
  1217     0F4B  00F3               	movwf	??_setupADC
  1218     0F4C                     u2757:
  1219     0F4C  0BF3               	decfsz	??_setupADC,f
  1220     0F4D  2F4C               	goto	u2757
  1221     0F4E  2F4F               	nop2
  1222     0F4F                     l106:
  1223     0F4F  0008               	return
  1224     0F50                     __end_of_setupADC:
  1225                           
  1226                           	psect	text6
  1227     0E61                     __ptext6:	
  1228 ;; *************** function _setup *****************
  1229 ;; Defined at:
  1230 ;;		line 102 in file "main.c"
  1231 ;; Parameters:    Size  Location     Type
  1232 ;;		None
  1233 ;; Auto vars:     Size  Location     Type
  1234 ;;		None
  1235 ;; Return value:  Size  Location     Type
  1236 ;;                  1    wreg      void 
  1237 ;; Registers used:
  1238 ;;		status,2
  1239 ;; Tracked objects:
  1240 ;;		On entry : 0/0
  1241 ;;		On exit  : 0/0
  1242 ;;		Unchanged: 0/0
  1243 ;; Data sizes:     COMMON   BANK0   BANK1   BANK3   BANK2
  1244 ;;      Params:         0       0       0       0       0
  1245 ;;      Locals:         0       0       0       0       0
  1246 ;;      Temps:          0       0       0       0       0
  1247 ;;      Totals:         0       0       0       0       0
  1248 ;;Total ram usage:        0 bytes
  1249 ;; Hardware stack levels used: 1
  1250 ;; Hardware stack levels required when called: 1
  1251 ;; This function calls:
  1252 ;;		Nothing
  1253 ;; This function is called by:
  1254 ;;		_main
  1255 ;; This function uses a non-reentrant model
  1256 ;;
  1257                           
  1258     0E61                     _setup:	
  1259                           ;psect for function _setup
  1260                           
  1261     0E61                     l1775:	
  1262                           ;incstack = 0
  1263                           ; Regs used in _setup: [status,2]
  1264                           
  1265                           
  1266                           ;main.c: 103:     ANSELH = 0;
  1267     0E61  1683               	bsf	3,5	;RP0=1, select bank3
  1268     0E62  1703               	bsf	3,6	;RP1=1, select bank3
  1269     0E63  0189               	clrf	9	;volatile
  1270                           
  1271                           ;main.c: 104:     PORTA = 0;
  1272     0E64  1283               	bcf	3,5	;RP0=0, select bank0
  1273     0E65  1303               	bcf	3,6	;RP1=0, select bank0
  1274     0E66  0185               	clrf	5	;volatile
  1275                           
  1276                           ;main.c: 105:     PORTC = 0;
  1277     0E67  0187               	clrf	7	;volatile
  1278                           
  1279                           ;main.c: 106:     PORTD = 0;
  1280     0E68  0188               	clrf	8	;volatile
  1281                           
  1282                           ;main.c: 107:     TRISD = 0;
  1283     0E69  1683               	bsf	3,5	;RP0=1, select bank1
  1284     0E6A  1303               	bcf	3,6	;RP1=0, select bank1
  1285     0E6B  0188               	clrf	8	;volatile
  1286                           
  1287                           ;main.c: 108:     TRISC = 0;
  1288     0E6C  0187               	clrf	7	;volatile
  1289     0E6D                     l103:
  1290     0E6D  0008               	return
  1291     0E6E                     __end_of_setup:
  1292                           
  1293                           	psect	text7
  1294     067C                     __ptext7:	
  1295 ;; *************** function _controlmotores *****************
  1296 ;; Defined at:
  1297 ;;		line 230 in file "main.c"
  1298 ;; Parameters:    Size  Location     Type
  1299 ;;		None
  1300 ;; Auto vars:     Size  Location     Type
  1301 ;;		None
  1302 ;; Return value:  Size  Location     Type
  1303 ;;                  1    wreg      void 
  1304 ;; Registers used:
  1305 ;;		wreg, status,2, status,0, btemp+1, pclath, cstack
  1306 ;; Tracked objects:
  1307 ;;		On entry : 0/0
  1308 ;;		On exit  : 0/0
  1309 ;;		Unchanged: 0/0
  1310 ;; Data sizes:     COMMON   BANK0   BANK1   BANK3   BANK2
  1311 ;;      Params:         0       0       0       0       0
  1312 ;;      Locals:         0       0       0       0       0
  1313 ;;      Temps:          0       3       0       0       0
  1314 ;;      Totals:         0       3       0       0       0
  1315 ;;Total ram usage:        3 bytes
  1316 ;; Hardware stack levels used: 1
  1317 ;; Hardware stack levels required when called: 4
  1318 ;; This function calls:
  1319 ;;		_PWM1
  1320 ;;		_map
  1321 ;; This function is called by:
  1322 ;;		_main
  1323 ;; This function uses a non-reentrant model
  1324 ;;
  1325                           
  1326     067C                     _controlmotores:	
  1327                           ;psect for function _controlmotores
  1328                           
  1329     067C                     l2021:	
  1330                           ;incstack = 0
  1331                           ; Regs used in _controlmotores: [wreg+status,2+status,0+btemp+1+pclath+cstack]
  1332                           
  1333                           
  1334                           ;main.c: 233:     ADCON0bits.CHS = 0b0000;
  1335     067C  30C3               	movlw	-61
  1336     067D  1283               	bcf	3,5	;RP0=0, select bank0
  1337     067E  1303               	bcf	3,6	;RP1=0, select bank0
  1338     067F  059F               	andwf	31,f	;volatile
  1339     0680                     l2023:
  1340                           
  1341                           ;main.c: 234:     _delay((unsigned long)((100)*(500000/4000000.0)));
  1342     0680  3003               	movlw	3
  1343     0681  1283               	bcf	3,5	;RP0=0, select bank0
  1344     0682  1303               	bcf	3,6	;RP1=0, select bank0
  1345     0683  00E5               	movwf	??_controlmotores
  1346     0684                     u2767:
  1347     0684  0BE5               	decfsz	??_controlmotores,f
  1348     0685  2E84               	goto	u2767
  1349     0686                     l2025:
  1350                           
  1351                           ;main.c: 235:     ADCON0bits.GO = 1;
  1352     0686  1283               	bcf	3,5	;RP0=0, select bank0
  1353     0687  1303               	bcf	3,6	;RP1=0, select bank0
  1354     0688  149F               	bsf	31,1	;volatile
  1355     0689                     l130:	
  1356                           ;main.c: 237:     while(ADCON0bits.GO == 1);
  1357                           
  1358     0689  189F               	btfsc	31,1	;volatile
  1359     068A  2E8C               	goto	u2711
  1360     068B  2E8D               	goto	u2710
  1361     068C                     u2711:
  1362     068C  2E89               	goto	l130
  1363     068D                     u2710:
  1364     068D                     l132:
  1365                           
  1366                           ;main.c: 238:     ADIF = 0;
  1367     068D  130C               	bcf	12,6	;volatile
  1368     068E                     l2027:
  1369                           
  1370                           ;main.c: 239:     map();
  1371     068E  120A  118A  2705  120A  118A  	fcall	_map
  1372     0693                     l2029:
  1373                           
  1374                           ;main.c: 240:     CCP1CONbits.DC1B = valDCL;
  1375     0693  0879               	movf	_valDCL,w
  1376     0694  1283               	bcf	3,5	;RP0=0, select bank0
  1377     0695  1303               	bcf	3,6	;RP1=0, select bank0
  1378     0696  00E5               	movwf	??_controlmotores
  1379     0697  0EE5               	swapf	??_controlmotores,f
  1380     0698  0817               	movf	23,w	;volatile
  1381     0699  0665               	xorwf	??_controlmotores,w
  1382     069A  39CF               	andlw	-49
  1383     069B  0665               	xorwf	??_controlmotores,w
  1384     069C  0097               	movwf	23	;volatile
  1385     069D                     l2031:
  1386                           
  1387                           ;main.c: 241:     CCPR1L = valDCH;
  1388     069D  086A               	movf	_valDCH,w
  1389     069E  0095               	movwf	21	;volatile
  1390     069F                     l2033:
  1391                           
  1392                           ;main.c: 242:     _delay((unsigned long)((1)*(500000/4000.0)));
  1393     069F  3028               	movlw	40
  1394     06A0  1283               	bcf	3,5	;RP0=0, select bank0
  1395     06A1  1303               	bcf	3,6	;RP1=0, select bank0
  1396     06A2  00E5               	movwf	??_controlmotores
  1397     06A3                     u2777:
  1398     06A3  0BE5               	decfsz	??_controlmotores,f
  1399     06A4  2EA3               	goto	u2777
  1400     06A5  2EA6               	nop2
  1401     06A6                     l2035:
  1402                           
  1403                           ;main.c: 246:     ADCON0bits.CHS = 0b0001;
  1404     06A6  1283               	bcf	3,5	;RP0=0, select bank0
  1405     06A7  1303               	bcf	3,6	;RP1=0, select bank0
  1406     06A8  081F               	movf	31,w	;volatile
  1407     06A9  39C3               	andlw	-61
  1408     06AA  3804               	iorlw	4
  1409     06AB  009F               	movwf	31	;volatile
  1410     06AC                     l2037:
  1411                           
  1412                           ;main.c: 247:     _delay((unsigned long)((100)*(500000/4000000.0)));
  1413     06AC  3003               	movlw	3
  1414     06AD  1283               	bcf	3,5	;RP0=0, select bank0
  1415     06AE  1303               	bcf	3,6	;RP1=0, select bank0
  1416     06AF  00E5               	movwf	??_controlmotores
  1417     06B0                     u2787:
  1418     06B0  0BE5               	decfsz	??_controlmotores,f
  1419     06B1  2EB0               	goto	u2787
  1420     06B2                     l2039:
  1421                           
  1422                           ;main.c: 248:     ADCON0bits.GO = 1;
  1423     06B2  1283               	bcf	3,5	;RP0=0, select bank0
  1424     06B3  1303               	bcf	3,6	;RP1=0, select bank0
  1425     06B4  149F               	bsf	31,1	;volatile
  1426     06B5                     l133:	
  1427                           ;main.c: 250:     while(ADCON0bits.GO == 1);
  1428                           
  1429     06B5  189F               	btfsc	31,1	;volatile
  1430     06B6  2EB8               	goto	u2721
  1431     06B7  2EB9               	goto	u2720
  1432     06B8                     u2721:
  1433     06B8  2EB5               	goto	l133
  1434     06B9                     u2720:
  1435     06B9                     l135:
  1436                           
  1437                           ;main.c: 251:     ADIF = 0;
  1438     06B9  130C               	bcf	12,6	;volatile
  1439     06BA                     l2041:
  1440                           
  1441                           ;main.c: 252:     map();
  1442     06BA  120A  118A  2705  120A  118A  	fcall	_map
  1443     06BF                     l2043:
  1444                           
  1445                           ;main.c: 253:     CCP2CONbits.DC2B0 = valDCL & 0x01;
  1446     06BF  0879               	movf	_valDCL,w
  1447     06C0  3901               	andlw	1
  1448     06C1  1283               	bcf	3,5	;RP0=0, select bank0
  1449     06C2  1303               	bcf	3,6	;RP1=0, select bank0
  1450     06C3  00E5               	movwf	??_controlmotores
  1451     06C4  0EE5               	swapf	??_controlmotores,f
  1452     06C5  081D               	movf	29,w	;volatile
  1453     06C6  0665               	xorwf	??_controlmotores,w
  1454     06C7  39EF               	andlw	-17
  1455     06C8  0665               	xorwf	??_controlmotores,w
  1456     06C9  009D               	movwf	29	;volatile
  1457     06CA                     l2045:
  1458                           
  1459                           ;main.c: 254:     CCP2CONbits.DC2B1 = (valDCL & 0x02) >> 1;
  1460     06CA  087A               	movf	_valDCL+1,w
  1461     06CB  00E6               	movwf	??_controlmotores+1
  1462     06CC  0879               	movf	_valDCL,w
  1463     06CD  00E5               	movwf	??_controlmotores
  1464     06CE  1003               	clrc
  1465     06CF  0CE6               	rrf	??_controlmotores+1,f
  1466     06D0  0CE5               	rrf	??_controlmotores,f
  1467     06D1  0865               	movf	??_controlmotores,w
  1468     06D2  3901               	andlw	1
  1469     06D3  00E7               	movwf	??_controlmotores+2
  1470     06D4  0EE7               	swapf	??_controlmotores+2,f
  1471     06D5  0DE7               	rlf	??_controlmotores+2,f
  1472     06D6  081D               	movf	29,w	;volatile
  1473     06D7  0667               	xorwf	??_controlmotores+2,w
  1474     06D8  39DF               	andlw	-33
  1475     06D9  0667               	xorwf	??_controlmotores+2,w
  1476     06DA  009D               	movwf	29	;volatile
  1477     06DB                     l2047:
  1478                           
  1479                           ;main.c: 255:     CCPR2L = valDCH;
  1480     06DB  086A               	movf	_valDCH,w
  1481     06DC  009B               	movwf	27	;volatile
  1482     06DD                     l2049:
  1483                           
  1484                           ;main.c: 256:     _delay((unsigned long)((1)*(500000/4000.0)));
  1485     06DD  3028               	movlw	40
  1486     06DE  1283               	bcf	3,5	;RP0=0, select bank0
  1487     06DF  1303               	bcf	3,6	;RP1=0, select bank0
  1488     06E0  00E5               	movwf	??_controlmotores
  1489     06E1                     u2797:
  1490     06E1  0BE5               	decfsz	??_controlmotores,f
  1491     06E2  2EE1               	goto	u2797
  1492     06E3  2EE4               	nop2
  1493     06E4                     l2051:
  1494                           
  1495                           ;main.c: 260:     ADCON0bits.CHS = 0b0010;
  1496     06E4  1283               	bcf	3,5	;RP0=0, select bank0
  1497     06E5  1303               	bcf	3,6	;RP1=0, select bank0
  1498     06E6  081F               	movf	31,w	;volatile
  1499     06E7  39C3               	andlw	-61
  1500     06E8  3808               	iorlw	8
  1501     06E9  009F               	movwf	31	;volatile
  1502     06EA                     l2053:
  1503                           
  1504                           ;main.c: 261:     _delay((unsigned long)((100)*(500000/4000000.0)));
  1505     06EA  3003               	movlw	3
  1506     06EB  1283               	bcf	3,5	;RP0=0, select bank0
  1507     06EC  1303               	bcf	3,6	;RP1=0, select bank0
  1508     06ED  00E5               	movwf	??_controlmotores
  1509     06EE                     u2807:
  1510     06EE  0BE5               	decfsz	??_controlmotores,f
  1511     06EF  2EEE               	goto	u2807
  1512     06F0                     l2055:
  1513                           
  1514                           ;main.c: 262:     ADCON0bits.GO = 1;
  1515     06F0  1283               	bcf	3,5	;RP0=0, select bank0
  1516     06F1  1303               	bcf	3,6	;RP1=0, select bank0
  1517     06F2  149F               	bsf	31,1	;volatile
  1518     06F3                     l136:	
  1519                           ;main.c: 264:     while(ADCON0bits.GO == 1);
  1520                           
  1521     06F3  189F               	btfsc	31,1	;volatile
  1522     06F4  2EF6               	goto	u2731
  1523     06F5  2EF7               	goto	u2730
  1524     06F6                     u2731:
  1525     06F6  2EF3               	goto	l136
  1526     06F7                     u2730:
  1527     06F7                     l138:
  1528                           
  1529                           ;main.c: 265:     ADIF = 0;
  1530     06F7  130C               	bcf	12,6	;volatile
  1531     06F8                     l2057:
  1532                           
  1533                           ;main.c: 266:     PWM1();
  1534     06F8  120A  118A  278C  120A  118A  	fcall	_PWM1
  1535     06FD                     l2059:
  1536                           
  1537                           ;main.c: 267:     _delay((unsigned long)((1)*(500000/4000.0)));
  1538     06FD  3028               	movlw	40
  1539     06FE  1283               	bcf	3,5	;RP0=0, select bank0
  1540     06FF  1303               	bcf	3,6	;RP1=0, select bank0
  1541     0700  00E5               	movwf	??_controlmotores
  1542     0701                     u2817:
  1543     0701  0BE5               	decfsz	??_controlmotores,f
  1544     0702  2F01               	goto	u2817
  1545     0703  2F04               	nop2
  1546     0704                     l139:
  1547     0704  0008               	return
  1548     0705                     __end_of_controlmotores:
  1549                           
  1550                           	psect	text8
  1551     0705                     __ptext8:	
  1552 ;; *************** function _map *****************
  1553 ;; Defined at:
  1554 ;;		line 221 in file "main.c"
  1555 ;; Parameters:    Size  Location     Type
  1556 ;;		None
  1557 ;; Auto vars:     Size  Location     Type
  1558 ;;		None
  1559 ;; Return value:  Size  Location     Type
  1560 ;;                  1    wreg      void 
  1561 ;; Registers used:
  1562 ;;		wreg, status,2, status,0, btemp+1, pclath, cstack
  1563 ;; Tracked objects:
  1564 ;;		On entry : 0/0
  1565 ;;		On exit  : 0/0
  1566 ;;		Unchanged: 0/0
  1567 ;; Data sizes:     COMMON   BANK0   BANK1   BANK3   BANK2
  1568 ;;      Params:         0       0       0       0       0
  1569 ;;      Locals:         0       0       0       0       0
  1570 ;;      Temps:          0       5       0       0       0
  1571 ;;      Totals:         0       5       0       0       0
  1572 ;;Total ram usage:        5 bytes
  1573 ;; Hardware stack levels used: 1
  1574 ;; Hardware stack levels required when called: 3
  1575 ;; This function calls:
  1576 ;;		___fladd
  1577 ;;		___flmul
  1578 ;;		___fltol
  1579 ;;		___xxtofl
  1580 ;; This function is called by:
  1581 ;;		_controlmotores
  1582 ;; This function uses a non-reentrant model
  1583 ;;
  1584                           
  1585     0705                     _map:	
  1586                           ;psect for function _map
  1587                           
  1588     0705                     l2013:	
  1589                           ;incstack = 0
  1590                           ; Regs used in _map: [wreg+status,2+status,0+btemp+1+pclath+cstack]
  1591                           
  1592                           
  1593                           ;main.c: 222:     ADC_RES = ((ADRESH<<2)+(ADRESL>>6));
  1594     0705  1683               	bsf	3,5	;RP0=1, select bank1
  1595     0706  1303               	bcf	3,6	;RP1=0, select bank1
  1596     0707  081E               	movf	30,w	;volatile
  1597     0708  1283               	bcf	3,5	;RP0=0, select bank0
  1598     0709  1303               	bcf	3,6	;RP1=0, select bank0
  1599     070A  00E0               	movwf	??_map
  1600     070B  3006               	movlw	6
  1601     070C                     u2705:
  1602     070C  1003               	clrc
  1603     070D  0CE0               	rrf	??_map,f
  1604     070E  3EFF               	addlw	-1
  1605     070F  1D03               	skipz
  1606     0710  2F0C               	goto	u2705
  1607     0711  081E               	movf	30,w	;volatile
  1608     0712  00E1               	movwf	??_map+1
  1609     0713  01E2               	clrf	??_map+2
  1610     0714  1003               	clrc
  1611     0715  0DE1               	rlf	??_map+1,f
  1612     0716  0DE2               	rlf	??_map+2,f
  1613     0717  1003               	clrc
  1614     0718  0DE1               	rlf	??_map+1,f
  1615     0719  0DE2               	rlf	??_map+2,f
  1616     071A  0860               	movf	??_map,w
  1617     071B  0761               	addwf	??_map+1,w
  1618     071C  00E3               	movwf	??_map+3
  1619     071D  3000               	movlw	0
  1620     071E  1803               	skipnc
  1621     071F  3001               	movlw	1
  1622     0720  0762               	addwf	??_map+2,w
  1623     0721  00E4               	movwf	??_map+4
  1624     0722  0863               	movf	??_map+3,w
  1625     0723  00EE               	movwf	_ADC_RES
  1626     0724  0864               	movf	??_map+4,w
  1627     0725  00EF               	movwf	_ADC_RES+1
  1628     0726                     l2015:
  1629                           
  1630                           ;main.c: 223:     valDC = (0.033*ADC_RES+32);
  1631     0726  086E               	movf	_ADC_RES,w
  1632     0727  00F3               	movwf	___xxtofl@val
  1633     0728  086F               	movf	_ADC_RES+1,w
  1634     0729  00F4               	movwf	___xxtofl@val+1
  1635     072A  01F5               	clrf	___xxtofl@val+2
  1636     072B  01F6               	clrf	___xxtofl@val+3
  1637     072C  3000               	movlw	0
  1638     072D  120A  118A  25C2  120A  118A  	fcall	___xxtofl
  1639     0732  0876               	movf	?___xxtofl+3,w
  1640     0733  1283               	bcf	3,5	;RP0=0, select bank0
  1641     0734  1303               	bcf	3,6	;RP1=0, select bank0
  1642     0735  00B1               	movwf	___flmul@a+3
  1643     0736  0875               	movf	?___xxtofl+2,w
  1644     0737  00B0               	movwf	___flmul@a+2
  1645     0738  0874               	movf	?___xxtofl+1,w
  1646     0739  00AF               	movwf	___flmul@a+1
  1647     073A  0873               	movf	?___xxtofl,w
  1648     073B  00AE               	movwf	___flmul@a
  1649     073C  303D               	movlw	61
  1650     073D  00AD               	movwf	___flmul@b+3
  1651     073E  3007               	movlw	7
  1652     073F  00AC               	movwf	___flmul@b+2
  1653     0740  302B               	movlw	43
  1654     0741  00AB               	movwf	___flmul@b+1
  1655     0742  3002               	movlw	2
  1656     0743  00AA               	movwf	___flmul@b
  1657     0744  120A  118A  2025  120A  118A  	fcall	___flmul
  1658     0749  1283               	bcf	3,5	;RP0=0, select bank0
  1659     074A  1303               	bcf	3,6	;RP1=0, select bank0
  1660     074B  082D               	movf	?___flmul+3,w
  1661     074C  00CB               	movwf	___fladd@a+3
  1662     074D  082C               	movf	?___flmul+2,w
  1663     074E  00CA               	movwf	___fladd@a+2
  1664     074F  082B               	movf	?___flmul+1,w
  1665     0750  00C9               	movwf	___fladd@a+1
  1666     0751  082A               	movf	?___flmul,w
  1667     0752  00C8               	movwf	___fladd@a
  1668     0753  3042               	movlw	66
  1669     0754  00C7               	movwf	___fladd@b+3
  1670     0755  3000               	movlw	0
  1671     0756  00C6               	movwf	___fladd@b+2
  1672     0757  3000               	movlw	0
  1673     0758  00C5               	movwf	___fladd@b+1
  1674     0759  3000               	movlw	0
  1675     075A  00C4               	movwf	___fladd@b
  1676     075B  120A  118A  236A  120A  118A  	fcall	___fladd
  1677     0760  1283               	bcf	3,5	;RP0=0, select bank0
  1678     0761  1303               	bcf	3,6	;RP1=0, select bank0
  1679     0762  0847               	movf	?___fladd+3,w
  1680     0763  00DB               	movwf	___fltol@f1+3
  1681     0764  0846               	movf	?___fladd+2,w
  1682     0765  00DA               	movwf	___fltol@f1+2
  1683     0766  0845               	movf	?___fladd+1,w
  1684     0767  00D9               	movwf	___fltol@f1+1
  1685     0768  0844               	movf	?___fladd,w
  1686     0769  00D8               	movwf	___fltol@f1
  1687     076A  120A  158A  2788  120A  118A  	fcall	___fltol
  1688     076F  1283               	bcf	3,5	;RP0=0, select bank0
  1689     0770  1303               	bcf	3,6	;RP1=0, select bank0
  1690     0771  0859               	movf	?___fltol+1,w
  1691     0772  00ED               	movwf	_valDC+1
  1692     0773  0858               	movf	?___fltol,w
  1693     0774  00EC               	movwf	_valDC
  1694     0775                     l2017:
  1695                           
  1696                           ;main.c: 224:     valDCL = valDC & 0x003;
  1697     0775  3003               	movlw	3
  1698     0776  056C               	andwf	_valDC,w
  1699     0777  00F9               	movwf	_valDCL
  1700     0778  3000               	movlw	0
  1701     0779  056D               	andwf	_valDC+1,w
  1702     077A  00FA               	movwf	_valDCL+1
  1703     077B                     l2019:
  1704                           
  1705                           ;main.c: 225:     valDCH = (valDC & 0x3FC) >> 2;
  1706     077B  086D               	movf	_valDC+1,w
  1707     077C  00E1               	movwf	??_map+1
  1708     077D  086C               	movf	_valDC,w
  1709     077E  00E0               	movwf	??_map
  1710     077F  1003               	clrc
  1711     0780  0CE1               	rrf	??_map+1,f
  1712     0781  0CE0               	rrf	??_map,f
  1713     0782  1003               	clrc
  1714     0783  0CE1               	rrf	??_map+1,f
  1715     0784  0CE0               	rrf	??_map,f
  1716     0785  30FF               	movlw	255
  1717     0786  0560               	andwf	??_map,w
  1718     0787  00EA               	movwf	_valDCH
  1719     0788  3000               	movlw	0
  1720     0789  0561               	andwf	??_map+1,w
  1721     078A  00EB               	movwf	_valDCH+1
  1722     078B                     l127:
  1723     078B  0008               	return
  1724     078C                     __end_of_map:
  1725                           
  1726                           	psect	text9
  1727     078C                     __ptext9:	
  1728 ;; *************** function _PWM1 *****************
  1729 ;; Defined at:
  1730 ;;		line 213 in file "main.c"
  1731 ;; Parameters:    Size  Location     Type
  1732 ;;		None
  1733 ;; Auto vars:     Size  Location     Type
  1734 ;;		None
  1735 ;; Return value:  Size  Location     Type
  1736 ;;                  1    wreg      void 
  1737 ;; Registers used:
  1738 ;;		wreg, status,2, status,0, btemp+1, pclath, cstack
  1739 ;; Tracked objects:
  1740 ;;		On entry : 0/0
  1741 ;;		On exit  : 0/0
  1742 ;;		Unchanged: 0/0
  1743 ;; Data sizes:     COMMON   BANK0   BANK1   BANK3   BANK2
  1744 ;;      Params:         0       0       0       0       0
  1745 ;;      Locals:         0       0       0       0       0
  1746 ;;      Temps:          0       5       0       0       0
  1747 ;;      Totals:         0       5       0       0       0
  1748 ;;Total ram usage:        5 bytes
  1749 ;; Hardware stack levels used: 1
  1750 ;; Hardware stack levels required when called: 3
  1751 ;; This function calls:
  1752 ;;		___fladd
  1753 ;;		___flmul
  1754 ;;		___fltol
  1755 ;;		___xxtofl
  1756 ;; This function is called by:
  1757 ;;		_controlmotores
  1758 ;; This function uses a non-reentrant model
  1759 ;;
  1760                           
  1761     078C                     _PWM1:	
  1762                           ;psect for function _PWM1
  1763                           
  1764     078C                     l2007:	
  1765                           ;incstack = 0
  1766                           ; Regs used in _PWM1: [wreg+status,2+status,0+btemp+1+pclath+cstack]
  1767                           
  1768                           
  1769                           ;main.c: 214:     valDC = ((ADRESH << 2) + (ADRESL >> 6));
  1770     078C  1683               	bsf	3,5	;RP0=1, select bank1
  1771     078D  1303               	bcf	3,6	;RP1=0, select bank1
  1772     078E  081E               	movf	30,w	;volatile
  1773     078F  1283               	bcf	3,5	;RP0=0, select bank0
  1774     0790  1303               	bcf	3,6	;RP1=0, select bank0
  1775     0791  00E0               	movwf	??_PWM1
  1776     0792  3006               	movlw	6
  1777     0793                     u2695:
  1778     0793  1003               	clrc
  1779     0794  0CE0               	rrf	??_PWM1,f
  1780     0795  3EFF               	addlw	-1
  1781     0796  1D03               	skipz
  1782     0797  2F93               	goto	u2695
  1783     0798  081E               	movf	30,w	;volatile
  1784     0799  00E1               	movwf	??_PWM1+1
  1785     079A  01E2               	clrf	??_PWM1+2
  1786     079B  1003               	clrc
  1787     079C  0DE1               	rlf	??_PWM1+1,f
  1788     079D  0DE2               	rlf	??_PWM1+2,f
  1789     079E  1003               	clrc
  1790     079F  0DE1               	rlf	??_PWM1+1,f
  1791     07A0  0DE2               	rlf	??_PWM1+2,f
  1792     07A1  0860               	movf	??_PWM1,w
  1793     07A2  0761               	addwf	??_PWM1+1,w
  1794     07A3  00E3               	movwf	??_PWM1+3
  1795     07A4  3000               	movlw	0
  1796     07A5  1803               	skipnc
  1797     07A6  3001               	movlw	1
  1798     07A7  0762               	addwf	??_PWM1+2,w
  1799     07A8  00E4               	movwf	??_PWM1+4
  1800     07A9  0863               	movf	??_PWM1+3,w
  1801     07AA  00EC               	movwf	_valDC
  1802     07AB  0864               	movf	??_PWM1+4,w
  1803     07AC  00ED               	movwf	_valDC+1
  1804     07AD                     l2009:
  1805                           
  1806                           ;main.c: 215:     pulso = (0.1524*valDC + 99);
  1807     07AD  086C               	movf	_valDC,w
  1808     07AE  00F3               	movwf	___xxtofl@val
  1809     07AF  086D               	movf	_valDC+1,w
  1810     07B0  00F4               	movwf	___xxtofl@val+1
  1811     07B1  01F5               	clrf	___xxtofl@val+2
  1812     07B2  01F6               	clrf	___xxtofl@val+3
  1813     07B3  3000               	movlw	0
  1814     07B4  120A  118A  25C2  120A  118A  	fcall	___xxtofl
  1815     07B9  0876               	movf	?___xxtofl+3,w
  1816     07BA  1283               	bcf	3,5	;RP0=0, select bank0
  1817     07BB  1303               	bcf	3,6	;RP1=0, select bank0
  1818     07BC  00B1               	movwf	___flmul@a+3
  1819     07BD  0875               	movf	?___xxtofl+2,w
  1820     07BE  00B0               	movwf	___flmul@a+2
  1821     07BF  0874               	movf	?___xxtofl+1,w
  1822     07C0  00AF               	movwf	___flmul@a+1
  1823     07C1  0873               	movf	?___xxtofl,w
  1824     07C2  00AE               	movwf	___flmul@a
  1825     07C3  303E               	movlw	62
  1826     07C4  00AD               	movwf	___flmul@b+3
  1827     07C5  301C               	movlw	28
  1828     07C6  00AC               	movwf	___flmul@b+2
  1829     07C7  300E               	movlw	14
  1830     07C8  00AB               	movwf	___flmul@b+1
  1831     07C9  30BF               	movlw	191
  1832     07CA  00AA               	movwf	___flmul@b
  1833     07CB  120A  118A  2025  120A  118A  	fcall	___flmul
  1834     07D0  1283               	bcf	3,5	;RP0=0, select bank0
  1835     07D1  1303               	bcf	3,6	;RP1=0, select bank0
  1836     07D2  082D               	movf	?___flmul+3,w
  1837     07D3  00CB               	movwf	___fladd@a+3
  1838     07D4  082C               	movf	?___flmul+2,w
  1839     07D5  00CA               	movwf	___fladd@a+2
  1840     07D6  082B               	movf	?___flmul+1,w
  1841     07D7  00C9               	movwf	___fladd@a+1
  1842     07D8  082A               	movf	?___flmul,w
  1843     07D9  00C8               	movwf	___fladd@a
  1844     07DA  3042               	movlw	66
  1845     07DB  00C7               	movwf	___fladd@b+3
  1846     07DC  30C6               	movlw	198
  1847     07DD  00C6               	movwf	___fladd@b+2
  1848     07DE  3000               	movlw	0
  1849     07DF  00C5               	movwf	___fladd@b+1
  1850     07E0  3000               	movlw	0
  1851     07E1  00C4               	movwf	___fladd@b
  1852     07E2  120A  118A  236A  120A  118A  	fcall	___fladd
  1853     07E7  1283               	bcf	3,5	;RP0=0, select bank0
  1854     07E8  1303               	bcf	3,6	;RP1=0, select bank0
  1855     07E9  0847               	movf	?___fladd+3,w
  1856     07EA  00DB               	movwf	___fltol@f1+3
  1857     07EB  0846               	movf	?___fladd+2,w
  1858     07EC  00DA               	movwf	___fltol@f1+2
  1859     07ED  0845               	movf	?___fladd+1,w
  1860     07EE  00D9               	movwf	___fltol@f1+1
  1861     07EF  0844               	movf	?___fladd,w
  1862     07F0  00D8               	movwf	___fltol@f1
  1863     07F1  120A  158A  2788  120A  118A  	fcall	___fltol
  1864     07F6  1283               	bcf	3,5	;RP0=0, select bank0
  1865     07F7  1303               	bcf	3,6	;RP1=0, select bank0
  1866     07F8  0859               	movf	?___fltol+1,w
  1867     07F9  00E9               	movwf	_pulso+1
  1868     07FA  0858               	movf	?___fltol,w
  1869     07FB  00E8               	movwf	_pulso
  1870     07FC                     l2011:
  1871                           
  1872                           ;main.c: 216:     PORTD = valDC;
  1873     07FC  086C               	movf	_valDC,w
  1874     07FD  0088               	movwf	8	;volatile
  1875     07FE                     l124:
  1876     07FE  0008               	return
  1877     07FF                     __end_of_PWM1:
  1878                           
  1879                           	psect	text10
  1880     05C2                     __ptext10:	
  1881 ;; *************** function ___xxtofl *****************
  1882 ;; Defined at:
  1883 ;;		line 10 in file "C:\Program Files\Microchip\xc8\v2.40\pic\sources\c90\common\xxtofl.c"
  1884 ;; Parameters:    Size  Location     Type
  1885 ;;  sign            1    wreg     unsigned char 
  1886 ;;  val             4    3[COMMON] long 
  1887 ;; Auto vars:     Size  Location     Type
  1888 ;;  sign            1    4[BANK0 ] unsigned char 
  1889 ;;  arg             4    6[BANK0 ] unsigned long 
  1890 ;;  exp             1    5[BANK0 ] unsigned char 
  1891 ;; Return value:  Size  Location     Type
  1892 ;;                  4    3[COMMON] unsigned char 
  1893 ;; Registers used:
  1894 ;;		wreg, status,2, status,0
  1895 ;; Tracked objects:
  1896 ;;		On entry : 0/0
  1897 ;;		On exit  : 0/0
  1898 ;;		Unchanged: 0/0
  1899 ;; Data sizes:     COMMON   BANK0   BANK1   BANK3   BANK2
  1900 ;;      Params:         4       0       0       0       0
  1901 ;;      Locals:         0       6       0       0       0
  1902 ;;      Temps:          0       4       0       0       0
  1903 ;;      Totals:         4      10       0       0       0
  1904 ;;Total ram usage:       14 bytes
  1905 ;; Hardware stack levels used: 1
  1906 ;; Hardware stack levels required when called: 1
  1907 ;; This function calls:
  1908 ;;		Nothing
  1909 ;; This function is called by:
  1910 ;;		_PWM1
  1911 ;;		_map
  1912 ;; This function uses a non-reentrant model
  1913 ;;
  1914                           
  1915     05C2                     ___xxtofl:	
  1916                           ;psect for function ___xxtofl
  1917                           
  1918                           
  1919                           ;incstack = 0
  1920                           ; Regs used in ___xxtofl: [wreg+status,2+status,0]
  1921                           ;___xxtofl@sign stored from wreg
  1922     05C2  1283               	bcf	3,5	;RP0=0, select bank0
  1923     05C3  1303               	bcf	3,6	;RP1=0, select bank0
  1924     05C4  00A4               	movwf	___xxtofl@sign
  1925     05C5                     l1963:
  1926     05C5  0824               	movf	___xxtofl@sign,w
  1927     05C6  1903               	btfsc	3,2
  1928     05C7  2DC9               	goto	u2551
  1929     05C8  2DCA               	goto	u2550
  1930     05C9                     u2551:
  1931     05C9  2DDE               	goto	l1969
  1932     05CA                     u2550:
  1933     05CA                     l1965:
  1934     05CA  1FF6               	btfss	___xxtofl@val+3,7
  1935     05CB  2DCD               	goto	u2561
  1936     05CC  2DCE               	goto	u2560
  1937     05CD                     u2561:
  1938     05CD  2DDE               	goto	l1969
  1939     05CE                     u2560:
  1940     05CE                     l1967:
  1941     05CE  0973               	comf	___xxtofl@val,w
  1942     05CF  00A6               	movwf	___xxtofl@arg
  1943     05D0  0974               	comf	___xxtofl@val+1,w
  1944     05D1  00A7               	movwf	___xxtofl@arg+1
  1945     05D2  0975               	comf	___xxtofl@val+2,w
  1946     05D3  00A8               	movwf	___xxtofl@arg+2
  1947     05D4  0976               	comf	___xxtofl@val+3,w
  1948     05D5  00A9               	movwf	___xxtofl@arg+3
  1949     05D6  0AA6               	incf	___xxtofl@arg,f
  1950     05D7  1903               	skipnz
  1951     05D8  0AA7               	incf	___xxtofl@arg+1,f
  1952     05D9  1903               	skipnz
  1953     05DA  0AA8               	incf	___xxtofl@arg+2,f
  1954     05DB  1903               	skipnz
  1955     05DC  0AA9               	incf	___xxtofl@arg+3,f
  1956     05DD  2DE6               	goto	l666
  1957     05DE                     l1969:
  1958     05DE  0876               	movf	___xxtofl@val+3,w
  1959     05DF  00A9               	movwf	___xxtofl@arg+3
  1960     05E0  0875               	movf	___xxtofl@val+2,w
  1961     05E1  00A8               	movwf	___xxtofl@arg+2
  1962     05E2  0874               	movf	___xxtofl@val+1,w
  1963     05E3  00A7               	movwf	___xxtofl@arg+1
  1964     05E4  0873               	movf	___xxtofl@val,w
  1965     05E5  00A6               	movwf	___xxtofl@arg
  1966     05E6                     l666:
  1967     05E6  0876               	movf	___xxtofl@val+3,w
  1968     05E7  0475               	iorwf	___xxtofl@val+2,w
  1969     05E8  0474               	iorwf	___xxtofl@val+1,w
  1970     05E9  0473               	iorwf	___xxtofl@val,w
  1971     05EA  1D03               	skipz
  1972     05EB  2DED               	goto	u2571
  1973     05EC  2DEE               	goto	u2570
  1974     05ED                     u2571:
  1975     05ED  2DF7               	goto	l1975
  1976     05EE                     u2570:
  1977     05EE                     l1971:
  1978     05EE  3000               	movlw	0
  1979     05EF  00F6               	movwf	?___xxtofl+3
  1980     05F0  3000               	movlw	0
  1981     05F1  00F5               	movwf	?___xxtofl+2
  1982     05F2  3000               	movlw	0
  1983     05F3  00F4               	movwf	?___xxtofl+1
  1984     05F4  3000               	movlw	0
  1985     05F5  00F3               	movwf	?___xxtofl
  1986     05F6  2E7B               	goto	l668
  1987     05F7                     l1975:
  1988     05F7  3096               	movlw	150
  1989     05F8  00A5               	movwf	___xxtofl@exp
  1990     05F9  2E07               	goto	l1979
  1991     05FA                     l1977:
  1992     05FA  3001               	movlw	1
  1993     05FB  00A0               	movwf	??___xxtofl
  1994     05FC  0820               	movf	??___xxtofl,w
  1995     05FD  07A5               	addwf	___xxtofl@exp,f
  1996     05FE  3001               	movlw	1
  1997     05FF                     u2585:
  1998     05FF  1003               	clrc
  1999     0600  0CA9               	rrf	___xxtofl@arg+3,f
  2000     0601  0CA8               	rrf	___xxtofl@arg+2,f
  2001     0602  0CA7               	rrf	___xxtofl@arg+1,f
  2002     0603  0CA6               	rrf	___xxtofl@arg,f
  2003     0604  3EFF               	addlw	-1
  2004     0605  1D03               	skipz
  2005     0606  2DFF               	goto	u2585
  2006     0607                     l1979:
  2007     0607  30FE               	movlw	254
  2008     0608  0529               	andwf	___xxtofl@arg+3,w
  2009     0609  1D03               	btfss	3,2
  2010     060A  2E0C               	goto	u2591
  2011     060B  2E0D               	goto	u2590
  2012     060C                     u2591:
  2013     060C  2DFA               	goto	l1977
  2014     060D                     u2590:
  2015     060D  2E29               	goto	l672
  2016     060E                     l1981:
  2017     060E  3001               	movlw	1
  2018     060F  00A0               	movwf	??___xxtofl
  2019     0610  0820               	movf	??___xxtofl,w
  2020     0611  07A5               	addwf	___xxtofl@exp,f
  2021     0612                     l1983:
  2022     0612  3001               	movlw	1
  2023     0613  07A6               	addwf	___xxtofl@arg,f
  2024     0614  3000               	movlw	0
  2025     0615  1803               	skipnc
  2026     0616  3001               	movlw	1
  2027     0617  07A7               	addwf	___xxtofl@arg+1,f
  2028     0618  3000               	movlw	0
  2029     0619  1803               	skipnc
  2030     061A  3001               	movlw	1
  2031     061B  07A8               	addwf	___xxtofl@arg+2,f
  2032     061C  3000               	movlw	0
  2033     061D  1803               	skipnc
  2034     061E  3001               	movlw	1
  2035     061F  07A9               	addwf	___xxtofl@arg+3,f
  2036     0620                     l1985:
  2037     0620  3001               	movlw	1
  2038     0621                     u2605:
  2039     0621  1003               	clrc
  2040     0622  0CA9               	rrf	___xxtofl@arg+3,f
  2041     0623  0CA8               	rrf	___xxtofl@arg+2,f
  2042     0624  0CA7               	rrf	___xxtofl@arg+1,f
  2043     0625  0CA6               	rrf	___xxtofl@arg,f
  2044     0626  3EFF               	addlw	-1
  2045     0627  1D03               	skipz
  2046     0628  2E21               	goto	u2605
  2047     0629                     l672:
  2048     0629  30FF               	movlw	255
  2049     062A  0529               	andwf	___xxtofl@arg+3,w
  2050     062B  1D03               	btfss	3,2
  2051     062C  2E2E               	goto	u2611
  2052     062D  2E2F               	goto	u2610
  2053     062E                     u2611:
  2054     062E  2E0E               	goto	l1981
  2055     062F                     u2610:
  2056     062F  2E3B               	goto	l1989
  2057     0630                     l1987:
  2058     0630  3001               	movlw	1
  2059     0631  02A5               	subwf	___xxtofl@exp,f
  2060     0632  3001               	movlw	1
  2061     0633  00A0               	movwf	??___xxtofl
  2062     0634                     u2625:
  2063     0634  1003               	clrc
  2064     0635  0DA6               	rlf	___xxtofl@arg,f
  2065     0636  0DA7               	rlf	___xxtofl@arg+1,f
  2066     0637  0DA8               	rlf	___xxtofl@arg+2,f
  2067     0638  0DA9               	rlf	___xxtofl@arg+3,f
  2068     0639  0BA0               	decfsz	??___xxtofl,f
  2069     063A  2E34               	goto	u2625
  2070     063B                     l1989:
  2071     063B  1BA8               	btfsc	___xxtofl@arg+2,7
  2072     063C  2E3E               	goto	u2631
  2073     063D  2E3F               	goto	u2630
  2074     063E                     u2631:
  2075     063E  2E45               	goto	l679
  2076     063F                     u2630:
  2077     063F                     l1991:
  2078     063F  3002               	movlw	2
  2079     0640  0225               	subwf	___xxtofl@exp,w
  2080     0641  1803               	skipnc
  2081     0642  2E44               	goto	u2641
  2082     0643  2E45               	goto	u2640
  2083     0644                     u2641:
  2084     0644  2E30               	goto	l1987
  2085     0645                     u2640:
  2086     0645                     l679:
  2087     0645  1825               	btfsc	___xxtofl@exp,0
  2088     0646  2E48               	goto	u2651
  2089     0647  2E49               	goto	u2650
  2090     0648                     u2651:
  2091     0648  2E51               	goto	l680
  2092     0649                     u2650:
  2093     0649                     l1993:
  2094     0649  30FF               	movlw	255
  2095     064A  05A6               	andwf	___xxtofl@arg,f
  2096     064B  30FF               	movlw	255
  2097     064C  05A7               	andwf	___xxtofl@arg+1,f
  2098     064D  307F               	movlw	127
  2099     064E  05A8               	andwf	___xxtofl@arg+2,f
  2100     064F  30FF               	movlw	255
  2101     0650  05A9               	andwf	___xxtofl@arg+3,f
  2102     0651                     l680:
  2103     0651  1003               	clrc
  2104     0652  0CA5               	rrf	___xxtofl@exp,f
  2105     0653                     l1995:
  2106     0653  0825               	movf	___xxtofl@exp,w
  2107     0654  00A0               	movwf	??___xxtofl
  2108     0655  01A1               	clrf	??___xxtofl+1
  2109     0656  01A2               	clrf	??___xxtofl+2
  2110     0657  01A3               	clrf	??___xxtofl+3
  2111     0658  3018               	movlw	24
  2112     0659                     u2665:
  2113     0659  1003               	clrc
  2114     065A  0DA0               	rlf	??___xxtofl,f
  2115     065B  0DA1               	rlf	??___xxtofl+1,f
  2116     065C  0DA2               	rlf	??___xxtofl+2,f
  2117     065D  0DA3               	rlf	??___xxtofl+3,f
  2118     065E                     u2660:
  2119     065E  3EFF               	addlw	-1
  2120     065F  1D03               	skipz
  2121     0660  2E59               	goto	u2665
  2122     0661  0820               	movf	??___xxtofl,w
  2123     0662  04A6               	iorwf	___xxtofl@arg,f
  2124     0663  0821               	movf	??___xxtofl+1,w
  2125     0664  04A7               	iorwf	___xxtofl@arg+1,f
  2126     0665  0822               	movf	??___xxtofl+2,w
  2127     0666  04A8               	iorwf	___xxtofl@arg+2,f
  2128     0667  0823               	movf	??___xxtofl+3,w
  2129     0668  04A9               	iorwf	___xxtofl@arg+3,f
  2130     0669                     l1997:
  2131     0669  0824               	movf	___xxtofl@sign,w
  2132     066A  1903               	btfsc	3,2
  2133     066B  2E6D               	goto	u2671
  2134     066C  2E6E               	goto	u2670
  2135     066D                     u2671:
  2136     066D  2E73               	goto	l2003
  2137     066E                     u2670:
  2138     066E                     l1999:
  2139     066E  1FF6               	btfss	___xxtofl@val+3,7
  2140     066F  2E71               	goto	u2681
  2141     0670  2E72               	goto	u2680
  2142     0671                     u2681:
  2143     0671  2E73               	goto	l2003
  2144     0672                     u2680:
  2145     0672                     l2001:
  2146     0672  17A9               	bsf	___xxtofl@arg+3,7
  2147     0673                     l2003:
  2148     0673  0829               	movf	___xxtofl@arg+3,w
  2149     0674  00F6               	movwf	?___xxtofl+3
  2150     0675  0828               	movf	___xxtofl@arg+2,w
  2151     0676  00F5               	movwf	?___xxtofl+2
  2152     0677  0827               	movf	___xxtofl@arg+1,w
  2153     0678  00F4               	movwf	?___xxtofl+1
  2154     0679  0826               	movf	___xxtofl@arg,w
  2155     067A  00F3               	movwf	?___xxtofl
  2156     067B                     l668:
  2157     067B  0008               	return
  2158     067C                     __end_of___xxtofl:
  2159                           
  2160                           	psect	text11
  2161     0F88                     __ptext11:	
  2162 ;; *************** function ___fltol *****************
  2163 ;; Defined at:
  2164 ;;		line 43 in file "C:\Program Files\Microchip\xc8\v2.40\pic\sources\c90\common\fltol.c"
  2165 ;; Parameters:    Size  Location     Type
  2166 ;;  f1              4   56[BANK0 ] unsigned char 
  2167 ;; Auto vars:     Size  Location     Type
  2168 ;;  exp1            1    8[COMMON] unsigned char 
  2169 ;;  sign1           1    7[COMMON] unsigned char 
  2170 ;; Return value:  Size  Location     Type
  2171 ;;                  4   56[BANK0 ] long 
  2172 ;; Registers used:
  2173 ;;		wreg, status,2, status,0
  2174 ;; Tracked objects:
  2175 ;;		On entry : 0/0
  2176 ;;		On exit  : 0/0
  2177 ;;		Unchanged: 0/0
  2178 ;; Data sizes:     COMMON   BANK0   BANK1   BANK3   BANK2
  2179 ;;      Params:         0       4       0       0       0
  2180 ;;      Locals:         2       0       0       0       0
  2181 ;;      Temps:          0       4       0       0       0
  2182 ;;      Totals:         2       8       0       0       0
  2183 ;;Total ram usage:       10 bytes
  2184 ;; Hardware stack levels used: 1
  2185 ;; Hardware stack levels required when called: 1
  2186 ;; This function calls:
  2187 ;;		Nothing
  2188 ;; This function is called by:
  2189 ;;		_PWM1
  2190 ;;		_map
  2191 ;; This function uses a non-reentrant model
  2192 ;;
  2193                           
  2194     0F88                     ___fltol:	
  2195                           ;psect for function ___fltol
  2196                           
  2197     0F88                     l1927:	
  2198                           ;incstack = 0
  2199                           ; Regs used in ___fltol: [wreg+status,2+status,0]
  2200                           
  2201     0F88  1003               	clrc
  2202     0F89  1283               	bcf	3,5	;RP0=0, select bank0
  2203     0F8A  1303               	bcf	3,6	;RP1=0, select bank0
  2204     0F8B  0D5A               	rlf	___fltol@f1+2,w
  2205     0F8C  0D5B               	rlf	___fltol@f1+3,w
  2206     0F8D  00F8               	movwf	___fltol@exp1
  2207     0F8E  0878               	movf	___fltol@exp1,w
  2208     0F8F  1D03               	btfss	3,2
  2209     0F90  2F92               	goto	u2451
  2210     0F91  2F93               	goto	u2450
  2211     0F92                     u2451:
  2212     0F92  2F9C               	goto	l1933
  2213     0F93                     u2450:
  2214     0F93                     l1929:
  2215     0F93  3000               	movlw	0
  2216     0F94  00DB               	movwf	?___fltol+3
  2217     0F95  3000               	movlw	0
  2218     0F96  00DA               	movwf	?___fltol+2
  2219     0F97  3000               	movlw	0
  2220     0F98  00D9               	movwf	?___fltol+1
  2221     0F99  3000               	movlw	0
  2222     0F9A  00D8               	movwf	?___fltol
  2223     0F9B  2FFF               	goto	l419
  2224     0F9C                     l1933:
  2225     0F9C  0858               	movf	___fltol@f1,w
  2226     0F9D  00DC               	movwf	??___fltol
  2227     0F9E  0859               	movf	___fltol@f1+1,w
  2228     0F9F  00DD               	movwf	??___fltol+1
  2229     0FA0  085A               	movf	___fltol@f1+2,w
  2230     0FA1  00DE               	movwf	??___fltol+2
  2231     0FA2  085B               	movf	___fltol@f1+3,w
  2232     0FA3  00DF               	movwf	??___fltol+3
  2233     0FA4  301F               	movlw	31
  2234     0FA5                     u2465:
  2235     0FA5  1003               	clrc
  2236     0FA6  0CDF               	rrf	??___fltol+3,f
  2237     0FA7  0CDE               	rrf	??___fltol+2,f
  2238     0FA8  0CDD               	rrf	??___fltol+1,f
  2239     0FA9  0CDC               	rrf	??___fltol,f
  2240     0FAA                     u2460:
  2241     0FAA  3EFF               	addlw	-1
  2242     0FAB  1D03               	skipz
  2243     0FAC  2FA5               	goto	u2465
  2244     0FAD  085C               	movf	??___fltol,w
  2245     0FAE  00F7               	movwf	___fltol@sign1
  2246     0FAF                     l1935:
  2247     0FAF  17DA               	bsf	___fltol@f1+2,7
  2248     0FB0                     l1937:
  2249     0FB0  30FF               	movlw	255
  2250     0FB1  05D8               	andwf	___fltol@f1,f
  2251     0FB2  30FF               	movlw	255
  2252     0FB3  05D9               	andwf	___fltol@f1+1,f
  2253     0FB4  30FF               	movlw	255
  2254     0FB5  05DA               	andwf	___fltol@f1+2,f
  2255     0FB6  3000               	movlw	0
  2256     0FB7  05DB               	andwf	___fltol@f1+3,f
  2257     0FB8                     l1939:
  2258     0FB8  3096               	movlw	150
  2259     0FB9  02F8               	subwf	___fltol@exp1,f
  2260     0FBA                     l1941:
  2261     0FBA  1FF8               	btfss	___fltol@exp1,7
  2262     0FBB  2FBD               	goto	u2471
  2263     0FBC  2FBE               	goto	u2470
  2264     0FBD                     u2471:
  2265     0FBD  2FD8               	goto	l1951
  2266     0FBE                     u2470:
  2267     0FBE                     l1943:
  2268     0FBE  0878               	movf	___fltol@exp1,w
  2269     0FBF  3A80               	xorlw	128
  2270     0FC0  3E97               	addlw	151
  2271     0FC1  1803               	skipnc
  2272     0FC2  2FC4               	goto	u2481
  2273     0FC3  2FC5               	goto	u2480
  2274     0FC4                     u2481:
  2275     0FC4  2FC6               	goto	l1949
  2276     0FC5                     u2480:
  2277     0FC5  2F93               	goto	l1929
  2278     0FC6                     l1949:
  2279     0FC6  3001               	movlw	1
  2280     0FC7                     u2495:
  2281     0FC7  1003               	clrc
  2282     0FC8  0CDB               	rrf	___fltol@f1+3,f
  2283     0FC9  0CDA               	rrf	___fltol@f1+2,f
  2284     0FCA  0CD9               	rrf	___fltol@f1+1,f
  2285     0FCB  0CD8               	rrf	___fltol@f1,f
  2286     0FCC  3EFF               	addlw	-1
  2287     0FCD  1D03               	skipz
  2288     0FCE  2FC7               	goto	u2495
  2289     0FCF  3001               	movlw	1
  2290     0FD0  00DC               	movwf	??___fltol
  2291     0FD1  085C               	movf	??___fltol,w
  2292     0FD2  07F8               	addwf	___fltol@exp1,f
  2293     0FD3  1D03               	btfss	3,2
  2294     0FD4  2FD6               	goto	u2501
  2295     0FD5  2FD7               	goto	u2500
  2296     0FD6                     u2501:
  2297     0FD6  2FC6               	goto	l1949
  2298     0FD7                     u2500:
  2299     0FD7  2FEF               	goto	l1959
  2300     0FD8                     l1951:
  2301     0FD8  3020               	movlw	32
  2302     0FD9  0278               	subwf	___fltol@exp1,w
  2303     0FDA  1C03               	skipc
  2304     0FDB  2FDD               	goto	u2511
  2305     0FDC  2FDE               	goto	u2510
  2306     0FDD                     u2511:
  2307     0FDD  2FEA               	goto	l426
  2308     0FDE                     u2510:
  2309     0FDE  2F93               	goto	l1929
  2310     0FDF                     l1957:
  2311     0FDF  3001               	movlw	1
  2312     0FE0  00DC               	movwf	??___fltol
  2313     0FE1                     u2525:
  2314     0FE1  1003               	clrc
  2315     0FE2  0DD8               	rlf	___fltol@f1,f
  2316     0FE3  0DD9               	rlf	___fltol@f1+1,f
  2317     0FE4  0DDA               	rlf	___fltol@f1+2,f
  2318     0FE5  0DDB               	rlf	___fltol@f1+3,f
  2319     0FE6  0BDC               	decfsz	??___fltol,f
  2320     0FE7  2FE1               	goto	u2525
  2321     0FE8  3001               	movlw	1
  2322     0FE9  02F8               	subwf	___fltol@exp1,f
  2323     0FEA                     l426:
  2324     0FEA  0878               	movf	___fltol@exp1,w
  2325     0FEB  1D03               	btfss	3,2
  2326     0FEC  2FEE               	goto	u2531
  2327     0FED  2FEF               	goto	u2530
  2328     0FEE                     u2531:
  2329     0FEE  2FDF               	goto	l1957
  2330     0FEF                     u2530:
  2331     0FEF                     l1959:
  2332     0FEF  0877               	movf	___fltol@sign1,w
  2333     0FF0  1903               	btfsc	3,2
  2334     0FF1  2FF3               	goto	u2541
  2335     0FF2  2FF4               	goto	u2540
  2336     0FF3                     u2541:
  2337     0FF3  2FFF               	goto	l429
  2338     0FF4                     u2540:
  2339     0FF4                     l1961:
  2340     0FF4  09D8               	comf	___fltol@f1,f
  2341     0FF5  09D9               	comf	___fltol@f1+1,f
  2342     0FF6  09DA               	comf	___fltol@f1+2,f
  2343     0FF7  09DB               	comf	___fltol@f1+3,f
  2344     0FF8  0AD8               	incf	___fltol@f1,f
  2345     0FF9  1903               	skipnz
  2346     0FFA  0AD9               	incf	___fltol@f1+1,f
  2347     0FFB  1903               	skipnz
  2348     0FFC  0ADA               	incf	___fltol@f1+2,f
  2349     0FFD  1903               	skipnz
  2350     0FFE  0ADB               	incf	___fltol@f1+3,f
  2351     0FFF                     l429:
  2352     0FFF                     l419:
  2353     0FFF  0008               	return
  2354     1000                     __end_of___fltol:
  2355                           
  2356                           	psect	text12
  2357     0025                     __ptext12:	
  2358 ;; *************** function ___flmul *****************
  2359 ;; Defined at:
  2360 ;;		line 8 in file "C:\Program Files\Microchip\xc8\v2.40\pic\sources\c90\common\sprcmul.c"
  2361 ;; Parameters:    Size  Location     Type
  2362 ;;  b               4   10[BANK0 ] long 
  2363 ;;  a               4   14[BANK0 ] long 
  2364 ;; Auto vars:     Size  Location     Type
  2365 ;;  prod            4   30[BANK0 ] struct .
  2366 ;;  grs             4   24[BANK0 ] unsigned long 
  2367 ;;  temp            2   34[BANK0 ] struct .
  2368 ;;  bexp            1   29[BANK0 ] unsigned char 
  2369 ;;  aexp            1   28[BANK0 ] unsigned char 
  2370 ;;  sign            1   23[BANK0 ] unsigned char 
  2371 ;; Return value:  Size  Location     Type
  2372 ;;                  4   10[BANK0 ] unsigned char 
  2373 ;; Registers used:
  2374 ;;		wreg, status,2, status,0, btemp+1, pclath, cstack
  2375 ;; Tracked objects:
  2376 ;;		On entry : 0/0
  2377 ;;		On exit  : 0/0
  2378 ;;		Unchanged: 0/0
  2379 ;; Data sizes:     COMMON   BANK0   BANK1   BANK3   BANK2
  2380 ;;      Params:         0       8       0       0       0
  2381 ;;      Locals:         0      13       0       0       0
  2382 ;;      Temps:          0       5       0       0       0
  2383 ;;      Totals:         0      26       0       0       0
  2384 ;;Total ram usage:       26 bytes
  2385 ;; Hardware stack levels used: 1
  2386 ;; Hardware stack levels required when called: 2
  2387 ;; This function calls:
  2388 ;;		__Umul8_16
  2389 ;; This function is called by:
  2390 ;;		_PWM1
  2391 ;;		_map
  2392 ;; This function uses a non-reentrant model
  2393 ;;
  2394                           
  2395     0025                     ___flmul:	
  2396                           ;psect for function ___flmul
  2397                           
  2398     0025                     l1577:	
  2399                           ;incstack = 0
  2400                           ; Regs used in ___flmul: [wreg+status,2+status,0+btemp+1+pclath+cstack]
  2401                           
  2402     0025  1283               	bcf	3,5	;RP0=0, select bank0
  2403     0026  1303               	bcf	3,6	;RP1=0, select bank0
  2404     0027  082D               	movf	___flmul@b+3,w
  2405     0028  3980               	andlw	128
  2406     0029  00B7               	movwf	___flmul@sign
  2407     002A                     l1579:
  2408     002A  082D               	movf	___flmul@b+3,w
  2409     002B  00B2               	movwf	??___flmul
  2410     002C  0732               	addwf	??___flmul,w
  2411     002D  00BD               	movwf	___flmul@bexp
  2412     002E                     l1581:
  2413     002E  1FAC               	btfss	___flmul@b+2,7
  2414     002F  2831               	goto	u1821
  2415     0030  2832               	goto	u1820
  2416     0031                     u1821:
  2417     0031  2833               	goto	l1585
  2418     0032                     u1820:
  2419     0032                     l1583:
  2420     0032  143D               	bsf	___flmul@bexp,0
  2421     0033                     l1585:
  2422     0033  083D               	movf	___flmul@bexp,w
  2423     0034  1903               	btfsc	3,2
  2424     0035  2837               	goto	u1831
  2425     0036  2838               	goto	u1830
  2426     0037                     u1831:
  2427     0037  2847               	goto	l1593
  2428     0038                     u1830:
  2429     0038                     l1587:
  2430     0038  0A3D               	incf	___flmul@bexp,w
  2431     0039  1D03               	btfss	3,2
  2432     003A  283C               	goto	u1841
  2433     003B  283D               	goto	u1840
  2434     003C                     u1841:
  2435     003C  2845               	goto	l1591
  2436     003D                     u1840:
  2437     003D                     l1589:
  2438     003D  3000               	movlw	0
  2439     003E  00AD               	movwf	___flmul@b+3
  2440     003F  3000               	movlw	0
  2441     0040  00AC               	movwf	___flmul@b+2
  2442     0041  3000               	movlw	0
  2443     0042  00AB               	movwf	___flmul@b+1
  2444     0043  3000               	movlw	0
  2445     0044  00AA               	movwf	___flmul@b
  2446     0045                     l1591:
  2447     0045  17AC               	bsf	___flmul@b+2,7
  2448     0046  284F               	goto	l1595
  2449     0047                     l1593:
  2450     0047  3000               	movlw	0
  2451     0048  00AD               	movwf	___flmul@b+3
  2452     0049  3000               	movlw	0
  2453     004A  00AC               	movwf	___flmul@b+2
  2454     004B  3000               	movlw	0
  2455     004C  00AB               	movwf	___flmul@b+1
  2456     004D  3000               	movlw	0
  2457     004E  00AA               	movwf	___flmul@b
  2458     004F                     l1595:
  2459     004F  0831               	movf	___flmul@a+3,w
  2460     0050  3980               	andlw	128
  2461     0051  00B2               	movwf	??___flmul
  2462     0052  0832               	movf	??___flmul,w
  2463     0053  06B7               	xorwf	___flmul@sign,f
  2464     0054                     l1597:
  2465     0054  0831               	movf	___flmul@a+3,w
  2466     0055  00B2               	movwf	??___flmul
  2467     0056  0732               	addwf	??___flmul,w
  2468     0057  00BC               	movwf	___flmul@aexp
  2469     0058                     l1599:
  2470     0058  1FB0               	btfss	___flmul@a+2,7
  2471     0059  285B               	goto	u1851
  2472     005A  285C               	goto	u1850
  2473     005B                     u1851:
  2474     005B  285D               	goto	l1603
  2475     005C                     u1850:
  2476     005C                     l1601:
  2477     005C  143C               	bsf	___flmul@aexp,0
  2478     005D                     l1603:
  2479     005D  083C               	movf	___flmul@aexp,w
  2480     005E  1903               	btfsc	3,2
  2481     005F  2861               	goto	u1861
  2482     0060  2862               	goto	u1860
  2483     0061                     u1861:
  2484     0061  2871               	goto	l1611
  2485     0062                     u1860:
  2486     0062                     l1605:
  2487     0062  0A3C               	incf	___flmul@aexp,w
  2488     0063  1D03               	btfss	3,2
  2489     0064  2866               	goto	u1871
  2490     0065  2867               	goto	u1870
  2491     0066                     u1871:
  2492     0066  286F               	goto	l1609
  2493     0067                     u1870:
  2494     0067                     l1607:
  2495     0067  3000               	movlw	0
  2496     0068  00B1               	movwf	___flmul@a+3
  2497     0069  3000               	movlw	0
  2498     006A  00B0               	movwf	___flmul@a+2
  2499     006B  3000               	movlw	0
  2500     006C  00AF               	movwf	___flmul@a+1
  2501     006D  3000               	movlw	0
  2502     006E  00AE               	movwf	___flmul@a
  2503     006F                     l1609:
  2504     006F  17B0               	bsf	___flmul@a+2,7
  2505     0070  2879               	goto	l1613
  2506     0071                     l1611:
  2507     0071  3000               	movlw	0
  2508     0072  00B1               	movwf	___flmul@a+3
  2509     0073  3000               	movlw	0
  2510     0074  00B0               	movwf	___flmul@a+2
  2511     0075  3000               	movlw	0
  2512     0076  00AF               	movwf	___flmul@a+1
  2513     0077  3000               	movlw	0
  2514     0078  00AE               	movwf	___flmul@a
  2515     0079                     l1613:
  2516     0079  083C               	movf	___flmul@aexp,w
  2517     007A  1903               	btfsc	3,2
  2518     007B  287D               	goto	u1881
  2519     007C  287E               	goto	u1880
  2520     007D                     u1881:
  2521     007D  2883               	goto	l1617
  2522     007E                     u1880:
  2523     007E                     l1615:
  2524     007E  083D               	movf	___flmul@bexp,w
  2525     007F  1D03               	btfss	3,2
  2526     0080  2882               	goto	u1891
  2527     0081  2883               	goto	u1890
  2528     0082                     u1891:
  2529     0082  288C               	goto	l1621
  2530     0083                     u1890:
  2531     0083                     l1617:
  2532     0083  3000               	movlw	0
  2533     0084  00AD               	movwf	?___flmul+3
  2534     0085  3000               	movlw	0
  2535     0086  00AC               	movwf	?___flmul+2
  2536     0087  3000               	movlw	0
  2537     0088  00AB               	movwf	?___flmul+1
  2538     0089  3000               	movlw	0
  2539     008A  00AA               	movwf	?___flmul
  2540     008B  2B69               	goto	l622
  2541     008C                     l1621:
  2542     008C  082A               	movf	___flmul@b,w
  2543     008D  00F3               	movwf	__Umul8_16@multiplicand
  2544     008E  0830               	movf	___flmul@a+2,w
  2545     008F  120A  158A  26FA  120A  118A  	fcall	__Umul8_16
  2546     0094  0874               	movf	?__Umul8_16+1,w
  2547     0095  1283               	bcf	3,5	;RP0=0, select bank0
  2548     0096  1303               	bcf	3,6	;RP1=0, select bank0
  2549     0097  00C3               	movwf	___flmul@temp+1
  2550     0098  0873               	movf	?__Umul8_16,w
  2551     0099  00C2               	movwf	___flmul@temp
  2552     009A                     l1623:
  2553     009A  0842               	movf	___flmul@temp,w
  2554     009B  00B2               	movwf	??___flmul
  2555     009C  01B3               	clrf	??___flmul+1
  2556     009D  01B4               	clrf	??___flmul+2
  2557     009E  01B5               	clrf	??___flmul+3
  2558     009F  0835               	movf	??___flmul+3,w
  2559     00A0  00BB               	movwf	___flmul@grs+3
  2560     00A1  0834               	movf	??___flmul+2,w
  2561     00A2  00BA               	movwf	___flmul@grs+2
  2562     00A3  0833               	movf	??___flmul+1,w
  2563     00A4  00B9               	movwf	___flmul@grs+1
  2564     00A5  0832               	movf	??___flmul,w
  2565     00A6  00B8               	movwf	___flmul@grs
  2566     00A7                     l1625:
  2567     00A7  0843               	movf	___flmul@temp+1,w
  2568     00A8  00B2               	movwf	??___flmul
  2569     00A9  01B3               	clrf	??___flmul+1
  2570     00AA  01B4               	clrf	??___flmul+2
  2571     00AB  01B5               	clrf	??___flmul+3
  2572     00AC  0835               	movf	??___flmul+3,w
  2573     00AD  00C1               	movwf	___flmul@prod+3
  2574     00AE  0834               	movf	??___flmul+2,w
  2575     00AF  00C0               	movwf	___flmul@prod+2
  2576     00B0  0833               	movf	??___flmul+1,w
  2577     00B1  00BF               	movwf	___flmul@prod+1
  2578     00B2  0832               	movf	??___flmul,w
  2579     00B3  00BE               	movwf	___flmul@prod
  2580     00B4  082B               	movf	___flmul@b+1,w
  2581     00B5  00F3               	movwf	__Umul8_16@multiplicand
  2582     00B6  082F               	movf	___flmul@a+1,w
  2583     00B7  120A  158A  26FA  120A  118A  	fcall	__Umul8_16
  2584     00BC  0874               	movf	?__Umul8_16+1,w
  2585     00BD  1283               	bcf	3,5	;RP0=0, select bank0
  2586     00BE  1303               	bcf	3,6	;RP1=0, select bank0
  2587     00BF  00C3               	movwf	___flmul@temp+1
  2588     00C0  0873               	movf	?__Umul8_16,w
  2589     00C1  00C2               	movwf	___flmul@temp
  2590     00C2                     l1627:
  2591     00C2  0842               	movf	___flmul@temp,w
  2592     00C3  00B2               	movwf	??___flmul
  2593     00C4  01B3               	clrf	??___flmul+1
  2594     00C5  01B4               	clrf	??___flmul+2
  2595     00C6  01B5               	clrf	??___flmul+3
  2596     00C7  0832               	movf	??___flmul,w
  2597     00C8  07B8               	addwf	___flmul@grs,f
  2598     00C9  0833               	movf	??___flmul+1,w
  2599     00CA  1103               	clrz
  2600     00CB  1803               	skipnc
  2601     00CC  3E01               	addlw	1
  2602     00CD  1903               	skipnz
  2603     00CE  28D0               	goto	u1901
  2604     00CF  07B9               	addwf	___flmul@grs+1,f
  2605     00D0                     u1901:
  2606     00D0  0834               	movf	??___flmul+2,w
  2607     00D1  1103               	clrz
  2608     00D2  1803               	skipnc
  2609     00D3  3E01               	addlw	1
  2610     00D4  1903               	skipnz
  2611     00D5  28D7               	goto	u1902
  2612     00D6  07BA               	addwf	___flmul@grs+2,f
  2613     00D7                     u1902:
  2614     00D7  0835               	movf	??___flmul+3,w
  2615     00D8  1103               	clrz
  2616     00D9  1803               	skipnc
  2617     00DA  3E01               	addlw	1
  2618     00DB  1903               	skipnz
  2619     00DC  28DE               	goto	u1903
  2620     00DD  07BB               	addwf	___flmul@grs+3,f
  2621     00DE                     u1903:
  2622     00DE                     l1629:
  2623     00DE  0843               	movf	___flmul@temp+1,w
  2624     00DF  00B2               	movwf	??___flmul
  2625     00E0  01B3               	clrf	??___flmul+1
  2626     00E1  01B4               	clrf	??___flmul+2
  2627     00E2  01B5               	clrf	??___flmul+3
  2628     00E3  0832               	movf	??___flmul,w
  2629     00E4  07BE               	addwf	___flmul@prod,f
  2630     00E5  0833               	movf	??___flmul+1,w
  2631     00E6  1103               	clrz
  2632     00E7  1803               	skipnc
  2633     00E8  3E01               	addlw	1
  2634     00E9  1903               	skipnz
  2635     00EA  28EC               	goto	u1911
  2636     00EB  07BF               	addwf	___flmul@prod+1,f
  2637     00EC                     u1911:
  2638     00EC  0834               	movf	??___flmul+2,w
  2639     00ED  1103               	clrz
  2640     00EE  1803               	skipnc
  2641     00EF  3E01               	addlw	1
  2642     00F0  1903               	skipnz
  2643     00F1  28F3               	goto	u1912
  2644     00F2  07C0               	addwf	___flmul@prod+2,f
  2645     00F3                     u1912:
  2646     00F3  0835               	movf	??___flmul+3,w
  2647     00F4  1103               	clrz
  2648     00F5  1803               	skipnc
  2649     00F6  3E01               	addlw	1
  2650     00F7  1903               	skipnz
  2651     00F8  28FA               	goto	u1913
  2652     00F9  07C1               	addwf	___flmul@prod+3,f
  2653     00FA                     u1913:
  2654     00FA  082C               	movf	___flmul@b+2,w
  2655     00FB  00F3               	movwf	__Umul8_16@multiplicand
  2656     00FC  082E               	movf	___flmul@a,w
  2657     00FD  120A  158A  26FA  120A  118A  	fcall	__Umul8_16
  2658     0102  0874               	movf	?__Umul8_16+1,w
  2659     0103  1283               	bcf	3,5	;RP0=0, select bank0
  2660     0104  1303               	bcf	3,6	;RP1=0, select bank0
  2661     0105  00C3               	movwf	___flmul@temp+1
  2662     0106  0873               	movf	?__Umul8_16,w
  2663     0107  00C2               	movwf	___flmul@temp
  2664     0108                     l1631:
  2665     0108  0842               	movf	___flmul@temp,w
  2666     0109  00B2               	movwf	??___flmul
  2667     010A  01B3               	clrf	??___flmul+1
  2668     010B  01B4               	clrf	??___flmul+2
  2669     010C  01B5               	clrf	??___flmul+3
  2670     010D  0832               	movf	??___flmul,w
  2671     010E  07B8               	addwf	___flmul@grs,f
  2672     010F  0833               	movf	??___flmul+1,w
  2673     0110  1103               	clrz
  2674     0111  1803               	skipnc
  2675     0112  3E01               	addlw	1
  2676     0113  1903               	skipnz
  2677     0114  2916               	goto	u1921
  2678     0115  07B9               	addwf	___flmul@grs+1,f
  2679     0116                     u1921:
  2680     0116  0834               	movf	??___flmul+2,w
  2681     0117  1103               	clrz
  2682     0118  1803               	skipnc
  2683     0119  3E01               	addlw	1
  2684     011A  1903               	skipnz
  2685     011B  291D               	goto	u1922
  2686     011C  07BA               	addwf	___flmul@grs+2,f
  2687     011D                     u1922:
  2688     011D  0835               	movf	??___flmul+3,w
  2689     011E  1103               	clrz
  2690     011F  1803               	skipnc
  2691     0120  3E01               	addlw	1
  2692     0121  1903               	skipnz
  2693     0122  2924               	goto	u1923
  2694     0123  07BB               	addwf	___flmul@grs+3,f
  2695     0124                     u1923:
  2696     0124                     l1633:
  2697     0124  0843               	movf	___flmul@temp+1,w
  2698     0125  00B2               	movwf	??___flmul
  2699     0126  01B3               	clrf	??___flmul+1
  2700     0127  01B4               	clrf	??___flmul+2
  2701     0128  01B5               	clrf	??___flmul+3
  2702     0129  0832               	movf	??___flmul,w
  2703     012A  07BE               	addwf	___flmul@prod,f
  2704     012B  0833               	movf	??___flmul+1,w
  2705     012C  1103               	clrz
  2706     012D  1803               	skipnc
  2707     012E  3E01               	addlw	1
  2708     012F  1903               	skipnz
  2709     0130  2932               	goto	u1931
  2710     0131  07BF               	addwf	___flmul@prod+1,f
  2711     0132                     u1931:
  2712     0132  0834               	movf	??___flmul+2,w
  2713     0133  1103               	clrz
  2714     0134  1803               	skipnc
  2715     0135  3E01               	addlw	1
  2716     0136  1903               	skipnz
  2717     0137  2939               	goto	u1932
  2718     0138  07C0               	addwf	___flmul@prod+2,f
  2719     0139                     u1932:
  2720     0139  0835               	movf	??___flmul+3,w
  2721     013A  1103               	clrz
  2722     013B  1803               	skipnc
  2723     013C  3E01               	addlw	1
  2724     013D  1903               	skipnz
  2725     013E  2940               	goto	u1933
  2726     013F  07C1               	addwf	___flmul@prod+3,f
  2727     0140                     u1933:
  2728     0140                     l1635:
  2729     0140  3008               	movlw	8
  2730     0141  00B2               	movwf	??___flmul
  2731     0142                     u1945:
  2732     0142  1003               	clrc
  2733     0143  0DB8               	rlf	___flmul@grs,f
  2734     0144  0DB9               	rlf	___flmul@grs+1,f
  2735     0145  0DBA               	rlf	___flmul@grs+2,f
  2736     0146  0DBB               	rlf	___flmul@grs+3,f
  2737     0147  0BB2               	decfsz	??___flmul,f
  2738     0148  2942               	goto	u1945
  2739     0149                     l1637:
  2740     0149  082B               	movf	___flmul@b+1,w
  2741     014A  00F3               	movwf	__Umul8_16@multiplicand
  2742     014B  082E               	movf	___flmul@a,w
  2743     014C  120A  158A  26FA  120A  118A  	fcall	__Umul8_16
  2744     0151  0874               	movf	?__Umul8_16+1,w
  2745     0152  1283               	bcf	3,5	;RP0=0, select bank0
  2746     0153  1303               	bcf	3,6	;RP1=0, select bank0
  2747     0154  00C3               	movwf	___flmul@temp+1
  2748     0155  0873               	movf	?__Umul8_16,w
  2749     0156  00C2               	movwf	___flmul@temp
  2750     0157                     l1639:
  2751     0157  0842               	movf	___flmul@temp,w
  2752     0158  00B2               	movwf	??___flmul
  2753     0159  0843               	movf	___flmul@temp+1,w
  2754     015A  00B3               	movwf	??___flmul+1
  2755     015B  01B4               	clrf	??___flmul+2
  2756     015C  01B5               	clrf	??___flmul+3
  2757     015D  0832               	movf	??___flmul,w
  2758     015E  07B8               	addwf	___flmul@grs,f
  2759     015F  0833               	movf	??___flmul+1,w
  2760     0160  1103               	clrz
  2761     0161  1803               	skipnc
  2762     0162  3E01               	addlw	1
  2763     0163  1903               	skipnz
  2764     0164  2966               	goto	u1951
  2765     0165  07B9               	addwf	___flmul@grs+1,f
  2766     0166                     u1951:
  2767     0166  0834               	movf	??___flmul+2,w
  2768     0167  1103               	clrz
  2769     0168  1803               	skipnc
  2770     0169  3E01               	addlw	1
  2771     016A  1903               	skipnz
  2772     016B  296D               	goto	u1952
  2773     016C  07BA               	addwf	___flmul@grs+2,f
  2774     016D                     u1952:
  2775     016D  0835               	movf	??___flmul+3,w
  2776     016E  1103               	clrz
  2777     016F  1803               	skipnc
  2778     0170  3E01               	addlw	1
  2779     0171  1903               	skipnz
  2780     0172  2974               	goto	u1953
  2781     0173  07BB               	addwf	___flmul@grs+3,f
  2782     0174                     u1953:
  2783     0174                     l1641:
  2784     0174  082A               	movf	___flmul@b,w
  2785     0175  00F3               	movwf	__Umul8_16@multiplicand
  2786     0176  082F               	movf	___flmul@a+1,w
  2787     0177  120A  158A  26FA  120A  118A  	fcall	__Umul8_16
  2788     017C  0874               	movf	?__Umul8_16+1,w
  2789     017D  1283               	bcf	3,5	;RP0=0, select bank0
  2790     017E  1303               	bcf	3,6	;RP1=0, select bank0
  2791     017F  00C3               	movwf	___flmul@temp+1
  2792     0180  0873               	movf	?__Umul8_16,w
  2793     0181  00C2               	movwf	___flmul@temp
  2794     0182                     l1643:
  2795     0182  0842               	movf	___flmul@temp,w
  2796     0183  00B2               	movwf	??___flmul
  2797     0184  0843               	movf	___flmul@temp+1,w
  2798     0185  00B3               	movwf	??___flmul+1
  2799     0186  01B4               	clrf	??___flmul+2
  2800     0187  01B5               	clrf	??___flmul+3
  2801     0188  0832               	movf	??___flmul,w
  2802     0189  07B8               	addwf	___flmul@grs,f
  2803     018A  0833               	movf	??___flmul+1,w
  2804     018B  1103               	clrz
  2805     018C  1803               	skipnc
  2806     018D  3E01               	addlw	1
  2807     018E  1903               	skipnz
  2808     018F  2991               	goto	u1961
  2809     0190  07B9               	addwf	___flmul@grs+1,f
  2810     0191                     u1961:
  2811     0191  0834               	movf	??___flmul+2,w
  2812     0192  1103               	clrz
  2813     0193  1803               	skipnc
  2814     0194  3E01               	addlw	1
  2815     0195  1903               	skipnz
  2816     0196  2998               	goto	u1962
  2817     0197  07BA               	addwf	___flmul@grs+2,f
  2818     0198                     u1962:
  2819     0198  0835               	movf	??___flmul+3,w
  2820     0199  1103               	clrz
  2821     019A  1803               	skipnc
  2822     019B  3E01               	addlw	1
  2823     019C  1903               	skipnz
  2824     019D  299F               	goto	u1963
  2825     019E  07BB               	addwf	___flmul@grs+3,f
  2826     019F                     u1963:
  2827     019F                     l1645:
  2828     019F  3008               	movlw	8
  2829     01A0  00B2               	movwf	??___flmul
  2830     01A1                     u1975:
  2831     01A1  1003               	clrc
  2832     01A2  0DB8               	rlf	___flmul@grs,f
  2833     01A3  0DB9               	rlf	___flmul@grs+1,f
  2834     01A4  0DBA               	rlf	___flmul@grs+2,f
  2835     01A5  0DBB               	rlf	___flmul@grs+3,f
  2836     01A6  0BB2               	decfsz	??___flmul,f
  2837     01A7  29A1               	goto	u1975
  2838     01A8  082A               	movf	___flmul@b,w
  2839     01A9  00F3               	movwf	__Umul8_16@multiplicand
  2840     01AA  082E               	movf	___flmul@a,w
  2841     01AB  120A  158A  26FA  120A  118A  	fcall	__Umul8_16
  2842     01B0  0874               	movf	?__Umul8_16+1,w
  2843     01B1  1283               	bcf	3,5	;RP0=0, select bank0
  2844     01B2  1303               	bcf	3,6	;RP1=0, select bank0
  2845     01B3  00C3               	movwf	___flmul@temp+1
  2846     01B4  0873               	movf	?__Umul8_16,w
  2847     01B5  00C2               	movwf	___flmul@temp
  2848     01B6                     l1647:
  2849     01B6  0842               	movf	___flmul@temp,w
  2850     01B7  00B2               	movwf	??___flmul
  2851     01B8  0843               	movf	___flmul@temp+1,w
  2852     01B9  00B3               	movwf	??___flmul+1
  2853     01BA  01B4               	clrf	??___flmul+2
  2854     01BB  01B5               	clrf	??___flmul+3
  2855     01BC  0832               	movf	??___flmul,w
  2856     01BD  07B8               	addwf	___flmul@grs,f
  2857     01BE  0833               	movf	??___flmul+1,w
  2858     01BF  1103               	clrz
  2859     01C0  1803               	skipnc
  2860     01C1  3E01               	addlw	1
  2861     01C2  1903               	skipnz
  2862     01C3  29C5               	goto	u1981
  2863     01C4  07B9               	addwf	___flmul@grs+1,f
  2864     01C5                     u1981:
  2865     01C5  0834               	movf	??___flmul+2,w
  2866     01C6  1103               	clrz
  2867     01C7  1803               	skipnc
  2868     01C8  3E01               	addlw	1
  2869     01C9  1903               	skipnz
  2870     01CA  29CC               	goto	u1982
  2871     01CB  07BA               	addwf	___flmul@grs+2,f
  2872     01CC                     u1982:
  2873     01CC  0835               	movf	??___flmul+3,w
  2874     01CD  1103               	clrz
  2875     01CE  1803               	skipnc
  2876     01CF  3E01               	addlw	1
  2877     01D0  1903               	skipnz
  2878     01D1  29D3               	goto	u1983
  2879     01D2  07BB               	addwf	___flmul@grs+3,f
  2880     01D3                     u1983:
  2881     01D3                     l1649:
  2882     01D3  082B               	movf	___flmul@b+1,w
  2883     01D4  00F3               	movwf	__Umul8_16@multiplicand
  2884     01D5  0830               	movf	___flmul@a+2,w
  2885     01D6  120A  158A  26FA  120A  118A  	fcall	__Umul8_16
  2886     01DB  0874               	movf	?__Umul8_16+1,w
  2887     01DC  1283               	bcf	3,5	;RP0=0, select bank0
  2888     01DD  1303               	bcf	3,6	;RP1=0, select bank0
  2889     01DE  00C3               	movwf	___flmul@temp+1
  2890     01DF  0873               	movf	?__Umul8_16,w
  2891     01E0  00C2               	movwf	___flmul@temp
  2892     01E1  0842               	movf	___flmul@temp,w
  2893     01E2  00B2               	movwf	??___flmul
  2894     01E3  0843               	movf	___flmul@temp+1,w
  2895     01E4  00B3               	movwf	??___flmul+1
  2896     01E5  01B4               	clrf	??___flmul+2
  2897     01E6  01B5               	clrf	??___flmul+3
  2898     01E7  0832               	movf	??___flmul,w
  2899     01E8  07BE               	addwf	___flmul@prod,f
  2900     01E9  0833               	movf	??___flmul+1,w
  2901     01EA  1103               	clrz
  2902     01EB  1803               	skipnc
  2903     01EC  3E01               	addlw	1
  2904     01ED  1903               	skipnz
  2905     01EE  29F0               	goto	u1991
  2906     01EF  07BF               	addwf	___flmul@prod+1,f
  2907     01F0                     u1991:
  2908     01F0  0834               	movf	??___flmul+2,w
  2909     01F1  1103               	clrz
  2910     01F2  1803               	skipnc
  2911     01F3  3E01               	addlw	1
  2912     01F4  1903               	skipnz
  2913     01F5  29F7               	goto	u1992
  2914     01F6  07C0               	addwf	___flmul@prod+2,f
  2915     01F7                     u1992:
  2916     01F7  0835               	movf	??___flmul+3,w
  2917     01F8  1103               	clrz
  2918     01F9  1803               	skipnc
  2919     01FA  3E01               	addlw	1
  2920     01FB  1903               	skipnz
  2921     01FC  29FE               	goto	u1993
  2922     01FD  07C1               	addwf	___flmul@prod+3,f
  2923     01FE                     u1993:
  2924     01FE                     l1651:
  2925     01FE  082C               	movf	___flmul@b+2,w
  2926     01FF  00F3               	movwf	__Umul8_16@multiplicand
  2927     0200  082F               	movf	___flmul@a+1,w
  2928     0201  120A  158A  26FA  120A  118A  	fcall	__Umul8_16
  2929     0206  0874               	movf	?__Umul8_16+1,w
  2930     0207  1283               	bcf	3,5	;RP0=0, select bank0
  2931     0208  1303               	bcf	3,6	;RP1=0, select bank0
  2932     0209  00C3               	movwf	___flmul@temp+1
  2933     020A  0873               	movf	?__Umul8_16,w
  2934     020B  00C2               	movwf	___flmul@temp
  2935     020C                     l1653:
  2936     020C  0842               	movf	___flmul@temp,w
  2937     020D  00B2               	movwf	??___flmul
  2938     020E  0843               	movf	___flmul@temp+1,w
  2939     020F  00B3               	movwf	??___flmul+1
  2940     0210  01B4               	clrf	??___flmul+2
  2941     0211  01B5               	clrf	??___flmul+3
  2942     0212  0832               	movf	??___flmul,w
  2943     0213  07BE               	addwf	___flmul@prod,f
  2944     0214  0833               	movf	??___flmul+1,w
  2945     0215  1103               	clrz
  2946     0216  1803               	skipnc
  2947     0217  3E01               	addlw	1
  2948     0218  1903               	skipnz
  2949     0219  2A1B               	goto	u2001
  2950     021A  07BF               	addwf	___flmul@prod+1,f
  2951     021B                     u2001:
  2952     021B  0834               	movf	??___flmul+2,w
  2953     021C  1103               	clrz
  2954     021D  1803               	skipnc
  2955     021E  3E01               	addlw	1
  2956     021F  1903               	skipnz
  2957     0220  2A22               	goto	u2002
  2958     0221  07C0               	addwf	___flmul@prod+2,f
  2959     0222                     u2002:
  2960     0222  0835               	movf	??___flmul+3,w
  2961     0223  1103               	clrz
  2962     0224  1803               	skipnc
  2963     0225  3E01               	addlw	1
  2964     0226  1903               	skipnz
  2965     0227  2A29               	goto	u2003
  2966     0228  07C1               	addwf	___flmul@prod+3,f
  2967     0229                     u2003:
  2968     0229  082C               	movf	___flmul@b+2,w
  2969     022A  00F3               	movwf	__Umul8_16@multiplicand
  2970     022B  0830               	movf	___flmul@a+2,w
  2971     022C  120A  158A  26FA  120A  118A  	fcall	__Umul8_16
  2972     0231  0874               	movf	?__Umul8_16+1,w
  2973     0232  1283               	bcf	3,5	;RP0=0, select bank0
  2974     0233  1303               	bcf	3,6	;RP1=0, select bank0
  2975     0234  00C3               	movwf	___flmul@temp+1
  2976     0235  0873               	movf	?__Umul8_16,w
  2977     0236  00C2               	movwf	___flmul@temp
  2978     0237                     l1655:
  2979     0237  0842               	movf	___flmul@temp,w
  2980     0238  00B2               	movwf	??___flmul
  2981     0239  0843               	movf	___flmul@temp+1,w
  2982     023A  00B3               	movwf	??___flmul+1
  2983     023B  01B4               	clrf	??___flmul+2
  2984     023C  01B5               	clrf	??___flmul+3
  2985     023D  3008               	movlw	8
  2986     023E                     u2015:
  2987     023E  1003               	clrc
  2988     023F  0DB2               	rlf	??___flmul,f
  2989     0240  0DB3               	rlf	??___flmul+1,f
  2990     0241  0DB4               	rlf	??___flmul+2,f
  2991     0242  0DB5               	rlf	??___flmul+3,f
  2992     0243                     u2010:
  2993     0243  3EFF               	addlw	-1
  2994     0244  1D03               	skipz
  2995     0245  2A3E               	goto	u2015
  2996     0246  0832               	movf	??___flmul,w
  2997     0247  07BE               	addwf	___flmul@prod,f
  2998     0248  0833               	movf	??___flmul+1,w
  2999     0249  1103               	clrz
  3000     024A  1803               	skipnc
  3001     024B  3E01               	addlw	1
  3002     024C  1903               	skipnz
  3003     024D  2A4F               	goto	u2021
  3004     024E  07BF               	addwf	___flmul@prod+1,f
  3005     024F                     u2021:
  3006     024F  0834               	movf	??___flmul+2,w
  3007     0250  1103               	clrz
  3008     0251  1803               	skipnc
  3009     0252  3E01               	addlw	1
  3010     0253  1903               	skipnz
  3011     0254  2A56               	goto	u2022
  3012     0255  07C0               	addwf	___flmul@prod+2,f
  3013     0256                     u2022:
  3014     0256  0835               	movf	??___flmul+3,w
  3015     0257  1103               	clrz
  3016     0258  1803               	skipnc
  3017     0259  3E01               	addlw	1
  3018     025A  1903               	skipnz
  3019     025B  2A5D               	goto	u2023
  3020     025C  07C1               	addwf	___flmul@prod+3,f
  3021     025D                     u2023:
  3022     025D                     l1657:
  3023     025D  0838               	movf	___flmul@grs,w
  3024     025E  00B2               	movwf	??___flmul
  3025     025F  0839               	movf	___flmul@grs+1,w
  3026     0260  00B3               	movwf	??___flmul+1
  3027     0261  083A               	movf	___flmul@grs+2,w
  3028     0262  00B4               	movwf	??___flmul+2
  3029     0263  083B               	movf	___flmul@grs+3,w
  3030     0264  00B5               	movwf	??___flmul+3
  3031     0265  3018               	movlw	24
  3032     0266                     u2035:
  3033     0266  1003               	clrc
  3034     0267  0CB5               	rrf	??___flmul+3,f
  3035     0268  0CB4               	rrf	??___flmul+2,f
  3036     0269  0CB3               	rrf	??___flmul+1,f
  3037     026A  0CB2               	rrf	??___flmul,f
  3038     026B                     u2030:
  3039     026B  3EFF               	addlw	-1
  3040     026C  1D03               	skipz
  3041     026D  2A66               	goto	u2035
  3042     026E  0832               	movf	??___flmul,w
  3043     026F  07BE               	addwf	___flmul@prod,f
  3044     0270  0833               	movf	??___flmul+1,w
  3045     0271  1103               	clrz
  3046     0272  1803               	skipnc
  3047     0273  3E01               	addlw	1
  3048     0274  1903               	skipnz
  3049     0275  2A77               	goto	u2041
  3050     0276  07BF               	addwf	___flmul@prod+1,f
  3051     0277                     u2041:
  3052     0277  0834               	movf	??___flmul+2,w
  3053     0278  1103               	clrz
  3054     0279  1803               	skipnc
  3055     027A  3E01               	addlw	1
  3056     027B  1903               	skipnz
  3057     027C  2A7E               	goto	u2042
  3058     027D  07C0               	addwf	___flmul@prod+2,f
  3059     027E                     u2042:
  3060     027E  0835               	movf	??___flmul+3,w
  3061     027F  1103               	clrz
  3062     0280  1803               	skipnc
  3063     0281  3E01               	addlw	1
  3064     0282  1903               	skipnz
  3065     0283  2A85               	goto	u2043
  3066     0284  07C1               	addwf	___flmul@prod+3,f
  3067     0285                     u2043:
  3068     0285                     l1659:
  3069     0285  3008               	movlw	8
  3070     0286  00B2               	movwf	??___flmul
  3071     0287                     u2055:
  3072     0287  1003               	clrc
  3073     0288  0DB8               	rlf	___flmul@grs,f
  3074     0289  0DB9               	rlf	___flmul@grs+1,f
  3075     028A  0DBA               	rlf	___flmul@grs+2,f
  3076     028B  0DBB               	rlf	___flmul@grs+3,f
  3077     028C  0BB2               	decfsz	??___flmul,f
  3078     028D  2A87               	goto	u2055
  3079     028E                     l1661:
  3080     028E  083D               	movf	___flmul@bexp,w
  3081     028F  073C               	addwf	___flmul@aexp,w
  3082     0290  00B2               	movwf	??___flmul
  3083     0291  01B3               	clrf	??___flmul+1
  3084     0292  0DB3               	rlf	??___flmul+1,f
  3085     0293  0832               	movf	??___flmul,w
  3086     0294  3E82               	addlw	130
  3087     0295  00C2               	movwf	___flmul@temp
  3088     0296  0833               	movf	??___flmul+1,w
  3089     0297  1803               	skipnc
  3090     0298  3E01               	addlw	1
  3091     0299  3EFF               	addlw	255
  3092     029A  00C3               	movwf	___flmul@temp+1
  3093     029B  2AB9               	goto	l1673
  3094     029C                     l1663:
  3095     029C  3001               	movlw	1
  3096     029D  00B2               	movwf	??___flmul
  3097     029E                     u2065:
  3098     029E  1003               	clrc
  3099     029F  0DBE               	rlf	___flmul@prod,f
  3100     02A0  0DBF               	rlf	___flmul@prod+1,f
  3101     02A1  0DC0               	rlf	___flmul@prod+2,f
  3102     02A2  0DC1               	rlf	___flmul@prod+3,f
  3103     02A3  0BB2               	decfsz	??___flmul,f
  3104     02A4  2A9E               	goto	u2065
  3105     02A5                     l1665:
  3106     02A5  1FBB               	btfss	___flmul@grs+3,7
  3107     02A6  2AA8               	goto	u2071
  3108     02A7  2AA9               	goto	u2070
  3109     02A8                     u2071:
  3110     02A8  2AAA               	goto	l1669
  3111     02A9                     u2070:
  3112     02A9                     l1667:
  3113     02A9  143E               	bsf	___flmul@prod,0
  3114     02AA                     l1669:
  3115     02AA  3001               	movlw	1
  3116     02AB  00B2               	movwf	??___flmul
  3117     02AC                     u2085:
  3118     02AC  1003               	clrc
  3119     02AD  0DB8               	rlf	___flmul@grs,f
  3120     02AE  0DB9               	rlf	___flmul@grs+1,f
  3121     02AF  0DBA               	rlf	___flmul@grs+2,f
  3122     02B0  0DBB               	rlf	___flmul@grs+3,f
  3123     02B1  0BB2               	decfsz	??___flmul,f
  3124     02B2  2AAC               	goto	u2085
  3125     02B3                     l1671:
  3126     02B3  30FF               	movlw	255
  3127     02B4  07C2               	addwf	___flmul@temp,f
  3128     02B5  1803               	skipnc
  3129     02B6  0AC3               	incf	___flmul@temp+1,f
  3130     02B7  30FF               	movlw	255
  3131     02B8  07C3               	addwf	___flmul@temp+1,f
  3132     02B9                     l1673:
  3133     02B9  1FC0               	btfss	___flmul@prod+2,7
  3134     02BA  2ABC               	goto	u2091
  3135     02BB  2ABD               	goto	u2090
  3136     02BC                     u2091:
  3137     02BC  2A9C               	goto	l1663
  3138     02BD                     u2090:
  3139     02BD                     l1675:
  3140     02BD  01BC               	clrf	___flmul@aexp
  3141     02BE                     l1677:
  3142     02BE  1FBB               	btfss	___flmul@grs+3,7
  3143     02BF  2AC1               	goto	u2101
  3144     02C0  2AC2               	goto	u2100
  3145     02C1                     u2101:
  3146     02C1  2ADE               	goto	l1685
  3147     02C2                     u2100:
  3148     02C2                     l1679:
  3149     02C2  30FF               	movlw	255
  3150     02C3  0538               	andwf	___flmul@grs,w
  3151     02C4  00B2               	movwf	??___flmul
  3152     02C5  30FF               	movlw	255
  3153     02C6  0539               	andwf	___flmul@grs+1,w
  3154     02C7  00B3               	movwf	??___flmul+1
  3155     02C8  30FF               	movlw	255
  3156     02C9  053A               	andwf	___flmul@grs+2,w
  3157     02CA  00B4               	movwf	??___flmul+2
  3158     02CB  307F               	movlw	127
  3159     02CC  053B               	andwf	___flmul@grs+3,w
  3160     02CD  00B5               	movwf	??___flmul+3
  3161     02CE  0835               	movf	??___flmul+3,w
  3162     02CF  0434               	iorwf	??___flmul+2,w
  3163     02D0  0433               	iorwf	??___flmul+1,w
  3164     02D1  0432               	iorwf	??___flmul,w
  3165     02D2  1903               	skipnz
  3166     02D3  2AD5               	goto	u2111
  3167     02D4  2AD6               	goto	u2110
  3168     02D5                     u2111:
  3169     02D5  2AD9               	goto	l628
  3170     02D6                     u2110:
  3171     02D6                     l1681:
  3172     02D6  01BC               	clrf	___flmul@aexp
  3173     02D7  0ABC               	incf	___flmul@aexp,f
  3174     02D8  2ADE               	goto	l1685
  3175     02D9                     l628:
  3176     02D9  1C3E               	btfss	___flmul@prod,0
  3177     02DA  2ADC               	goto	u2121
  3178     02DB  2ADD               	goto	u2120
  3179     02DC                     u2121:
  3180     02DC  2ADE               	goto	l1685
  3181     02DD                     u2120:
  3182     02DD  2AD6               	goto	l1681
  3183     02DE                     l1685:
  3184     02DE  083C               	movf	___flmul@aexp,w
  3185     02DF  1903               	btfsc	3,2
  3186     02E0  2AE2               	goto	u2131
  3187     02E1  2AE3               	goto	u2130
  3188     02E2                     u2131:
  3189     02E2  2B14               	goto	l1695
  3190     02E3                     u2130:
  3191     02E3                     l1687:
  3192     02E3  3001               	movlw	1
  3193     02E4  07BE               	addwf	___flmul@prod,f
  3194     02E5  3000               	movlw	0
  3195     02E6  1803               	skipnc
  3196     02E7  3001               	movlw	1
  3197     02E8  07BF               	addwf	___flmul@prod+1,f
  3198     02E9  3000               	movlw	0
  3199     02EA  1803               	skipnc
  3200     02EB  3001               	movlw	1
  3201     02EC  07C0               	addwf	___flmul@prod+2,f
  3202     02ED  3000               	movlw	0
  3203     02EE  1803               	skipnc
  3204     02EF  3001               	movlw	1
  3205     02F0  07C1               	addwf	___flmul@prod+3,f
  3206     02F1                     l1689:
  3207     02F1  1C41               	btfss	___flmul@prod+3,0
  3208     02F2  2AF4               	goto	u2141
  3209     02F3  2AF5               	goto	u2140
  3210     02F4                     u2141:
  3211     02F4  2B14               	goto	l1695
  3212     02F5                     u2140:
  3213     02F5                     l1691:
  3214     02F5  083E               	movf	___flmul@prod,w
  3215     02F6  00B2               	movwf	??___flmul
  3216     02F7  083F               	movf	___flmul@prod+1,w
  3217     02F8  00B3               	movwf	??___flmul+1
  3218     02F9  0840               	movf	___flmul@prod+2,w
  3219     02FA  00B4               	movwf	??___flmul+2
  3220     02FB  0841               	movf	___flmul@prod+3,w
  3221     02FC  00B5               	movwf	??___flmul+3
  3222     02FD  3001               	movlw	1
  3223     02FE  00B6               	movwf	??___flmul+4
  3224     02FF                     u2155:
  3225     02FF  0D35               	rlf	??___flmul+3,w
  3226     0300  0CB5               	rrf	??___flmul+3,f
  3227     0301  0CB4               	rrf	??___flmul+2,f
  3228     0302  0CB3               	rrf	??___flmul+1,f
  3229     0303  0CB2               	rrf	??___flmul,f
  3230     0304                     u2150:
  3231     0304  0BB6               	decfsz	??___flmul+4,f
  3232     0305  2AFF               	goto	u2155
  3233     0306  0835               	movf	??___flmul+3,w
  3234     0307  00C1               	movwf	___flmul@prod+3
  3235     0308  0834               	movf	??___flmul+2,w
  3236     0309  00C0               	movwf	___flmul@prod+2
  3237     030A  0833               	movf	??___flmul+1,w
  3238     030B  00BF               	movwf	___flmul@prod+1
  3239     030C  0832               	movf	??___flmul,w
  3240     030D  00BE               	movwf	___flmul@prod
  3241     030E                     l1693:
  3242     030E  3001               	movlw	1
  3243     030F  07C2               	addwf	___flmul@temp,f
  3244     0310  1803               	skipnc
  3245     0311  0AC3               	incf	___flmul@temp+1,f
  3246     0312  3000               	movlw	0
  3247     0313  07C3               	addwf	___flmul@temp+1,f
  3248     0314                     l1695:
  3249     0314  0843               	movf	___flmul@temp+1,w
  3250     0315  3A80               	xorlw	128
  3251     0316  00FF               	movwf	btemp+1
  3252     0317  3080               	movlw	128
  3253     0318  027F               	subwf	btemp+1,w
  3254     0319  1D03               	skipz
  3255     031A  2B1D               	goto	u2165
  3256     031B  30FF               	movlw	255
  3257     031C  0242               	subwf	___flmul@temp,w
  3258     031D                     u2165:
  3259     031D  1C03               	skipc
  3260     031E  2B20               	goto	u2161
  3261     031F  2B21               	goto	u2160
  3262     0320                     u2161:
  3263     0320  2B2C               	goto	l1699
  3264     0321                     u2160:
  3265     0321                     l1697:
  3266     0321  307F               	movlw	127
  3267     0322  1283               	bcf	3,5	;RP0=0, select bank0
  3268     0323  1303               	bcf	3,6	;RP1=0, select bank0
  3269     0324  00C1               	movwf	___flmul@prod+3
  3270     0325  3080               	movlw	128
  3271     0326  00C0               	movwf	___flmul@prod+2
  3272     0327  3000               	movlw	0
  3273     0328  00BF               	movwf	___flmul@prod+1
  3274     0329  3000               	movlw	0
  3275     032A  00BE               	movwf	___flmul@prod
  3276     032B  2B5D               	goto	l634
  3277     032C                     l1699:
  3278     032C  1283               	bcf	3,5	;RP0=0, select bank0
  3279     032D  1303               	bcf	3,6	;RP1=0, select bank0
  3280     032E  0843               	movf	___flmul@temp+1,w
  3281     032F  3A80               	xorlw	128
  3282     0330  00FF               	movwf	btemp+1
  3283     0331  3080               	movlw	128
  3284     0332  027F               	subwf	btemp+1,w
  3285     0333  1D03               	skipz
  3286     0334  2B37               	goto	u2175
  3287     0335  3001               	movlw	1
  3288     0336  0242               	subwf	___flmul@temp,w
  3289     0337                     u2175:
  3290     0337  1803               	skipnc
  3291     0338  2B3A               	goto	u2171
  3292     0339  2B3B               	goto	u2170
  3293     033A                     u2171:
  3294     033A  2B47               	goto	l1705
  3295     033B                     u2170:
  3296     033B                     l1701:
  3297     033B  3000               	movlw	0
  3298     033C  1283               	bcf	3,5	;RP0=0, select bank0
  3299     033D  1303               	bcf	3,6	;RP1=0, select bank0
  3300     033E  00C1               	movwf	___flmul@prod+3
  3301     033F  3000               	movlw	0
  3302     0340  00C0               	movwf	___flmul@prod+2
  3303     0341  3000               	movlw	0
  3304     0342  00BF               	movwf	___flmul@prod+1
  3305     0343  3000               	movlw	0
  3306     0344  00BE               	movwf	___flmul@prod
  3307     0345                     l1703:
  3308     0345  01B7               	clrf	___flmul@sign
  3309     0346  2B5D               	goto	l634
  3310     0347                     l1705:
  3311     0347  1283               	bcf	3,5	;RP0=0, select bank0
  3312     0348  1303               	bcf	3,6	;RP1=0, select bank0
  3313     0349  0842               	movf	___flmul@temp,w
  3314     034A  00BD               	movwf	___flmul@bexp
  3315     034B  30FF               	movlw	255
  3316     034C  05BE               	andwf	___flmul@prod,f
  3317     034D  30FF               	movlw	255
  3318     034E  05BF               	andwf	___flmul@prod+1,f
  3319     034F  307F               	movlw	127
  3320     0350  05C0               	andwf	___flmul@prod+2,f
  3321     0351  3000               	movlw	0
  3322     0352  05C1               	andwf	___flmul@prod+3,f
  3323     0353                     l1707:
  3324     0353  1C3D               	btfss	___flmul@bexp,0
  3325     0354  2B56               	goto	u2181
  3326     0355  2B57               	goto	u2180
  3327     0356                     u2181:
  3328     0356  2B58               	goto	l1711
  3329     0357                     u2180:
  3330     0357                     l1709:
  3331     0357  17C0               	bsf	___flmul@prod+2,7
  3332     0358                     l1711:
  3333     0358  083D               	movf	___flmul@bexp,w
  3334     0359  00B2               	movwf	??___flmul
  3335     035A  1003               	clrc
  3336     035B  0C32               	rrf	??___flmul,w
  3337     035C  00C1               	movwf	___flmul@prod+3
  3338     035D                     l634:
  3339     035D  0837               	movf	___flmul@sign,w
  3340     035E  00B2               	movwf	??___flmul
  3341     035F  0832               	movf	??___flmul,w
  3342     0360  04C1               	iorwf	___flmul@prod+3,f
  3343     0361                     l1713:
  3344     0361  0841               	movf	___flmul@prod+3,w
  3345     0362  00AD               	movwf	?___flmul+3
  3346     0363  0840               	movf	___flmul@prod+2,w
  3347     0364  00AC               	movwf	?___flmul+2
  3348     0365  083F               	movf	___flmul@prod+1,w
  3349     0366  00AB               	movwf	?___flmul+1
  3350     0367  083E               	movf	___flmul@prod,w
  3351     0368  00AA               	movwf	?___flmul
  3352     0369                     l622:
  3353     0369  0008               	return
  3354     036A                     __end_of___flmul:
  3355                           
  3356                           	psect	text13
  3357     0EFA                     __ptext13:	
  3358 ;; *************** function __Umul8_16 *****************
  3359 ;; Defined at:
  3360 ;;		line 4 in file "C:\Program Files\Microchip\xc8\v2.40\pic\sources\c90\common\Umul8_16.c"
  3361 ;; Parameters:    Size  Location     Type
  3362 ;;  multiplier      1    wreg     unsigned char 
  3363 ;;  multiplicand    1    3[COMMON] unsigned char 
  3364 ;; Auto vars:     Size  Location     Type
  3365 ;;  multiplier      1    4[BANK0 ] unsigned char 
  3366 ;;  word_mpld       2    2[BANK0 ] unsigned int 
  3367 ;;  product         2    0[BANK0 ] unsigned int 
  3368 ;; Return value:  Size  Location     Type
  3369 ;;                  2    3[COMMON] unsigned int 
  3370 ;; Registers used:
  3371 ;;		wreg, status,2, status,0
  3372 ;; Tracked objects:
  3373 ;;		On entry : 0/0
  3374 ;;		On exit  : 0/0
  3375 ;;		Unchanged: 0/0
  3376 ;; Data sizes:     COMMON   BANK0   BANK1   BANK3   BANK2
  3377 ;;      Params:         2       0       0       0       0
  3378 ;;      Locals:         0       5       0       0       0
  3379 ;;      Temps:          2       0       0       0       0
  3380 ;;      Totals:         4       5       0       0       0
  3381 ;;Total ram usage:        9 bytes
  3382 ;; Hardware stack levels used: 1
  3383 ;; Hardware stack levels required when called: 1
  3384 ;; This function calls:
  3385 ;;		Nothing
  3386 ;; This function is called by:
  3387 ;;		___flmul
  3388 ;; This function uses a non-reentrant model
  3389 ;;
  3390                           
  3391     0EFA                     __Umul8_16:	
  3392                           ;psect for function __Umul8_16
  3393                           
  3394                           
  3395                           ;incstack = 0
  3396                           ; Regs used in __Umul8_16: [wreg+status,2+status,0]
  3397                           ;__Umul8_16@multiplier stored from wreg
  3398     0EFA  1283               	bcf	3,5	;RP0=0, select bank0
  3399     0EFB  1303               	bcf	3,6	;RP1=0, select bank0
  3400     0EFC  00A4               	movwf	__Umul8_16@multiplier
  3401     0EFD                     l1333:
  3402     0EFD  01A0               	clrf	__Umul8_16@product
  3403     0EFE  01A1               	clrf	__Umul8_16@product+1
  3404     0EFF                     l1335:
  3405     0EFF  0873               	movf	__Umul8_16@multiplicand,w
  3406     0F00  00F5               	movwf	??__Umul8_16
  3407     0F01  01F6               	clrf	??__Umul8_16+1
  3408     0F02  0875               	movf	??__Umul8_16,w
  3409     0F03  00A2               	movwf	__Umul8_16@word_mpld
  3410     0F04  0876               	movf	??__Umul8_16+1,w
  3411     0F05  00A3               	movwf	__Umul8_16@word_mpld+1
  3412     0F06                     l1337:
  3413     0F06  1C24               	btfss	__Umul8_16@multiplier,0
  3414     0F07  2F09               	goto	u1231
  3415     0F08  2F0A               	goto	u1230
  3416     0F09                     u1231:
  3417     0F09  2F10               	goto	l641
  3418     0F0A                     u1230:
  3419     0F0A                     l1339:
  3420     0F0A  0822               	movf	__Umul8_16@word_mpld,w
  3421     0F0B  07A0               	addwf	__Umul8_16@product,f
  3422     0F0C  1803               	skipnc
  3423     0F0D  0AA1               	incf	__Umul8_16@product+1,f
  3424     0F0E  0823               	movf	__Umul8_16@word_mpld+1,w
  3425     0F0F  07A1               	addwf	__Umul8_16@product+1,f
  3426     0F10                     l641:
  3427     0F10  3001               	movlw	1
  3428     0F11                     u1245:
  3429     0F11  1003               	clrc
  3430     0F12  0DA2               	rlf	__Umul8_16@word_mpld,f
  3431     0F13  0DA3               	rlf	__Umul8_16@word_mpld+1,f
  3432     0F14  3EFF               	addlw	-1
  3433     0F15  1D03               	skipz
  3434     0F16  2F11               	goto	u1245
  3435     0F17  1003               	clrc
  3436     0F18  0CA4               	rrf	__Umul8_16@multiplier,f
  3437     0F19                     l1341:
  3438     0F19  0824               	movf	__Umul8_16@multiplier,w
  3439     0F1A  1D03               	btfss	3,2
  3440     0F1B  2F1D               	goto	u1251
  3441     0F1C  2F1E               	goto	u1250
  3442     0F1D                     u1251:
  3443     0F1D  2F06               	goto	l1337
  3444     0F1E                     u1250:
  3445     0F1E                     l1343:
  3446     0F1E  0821               	movf	__Umul8_16@product+1,w
  3447     0F1F  00F4               	movwf	?__Umul8_16+1
  3448     0F20  0820               	movf	__Umul8_16@product,w
  3449     0F21  00F3               	movwf	?__Umul8_16
  3450     0F22                     l643:
  3451     0F22  0008               	return
  3452     0F23                     __end_of__Umul8_16:
  3453                           
  3454                           	psect	text14
  3455     036A                     __ptext14:	
  3456 ;; *************** function ___fladd *****************
  3457 ;; Defined at:
  3458 ;;		line 10 in file "C:\Program Files\Microchip\xc8\v2.40\pic\sources\c90\common\sprcadd.c"
  3459 ;; Parameters:    Size  Location     Type
  3460 ;;  b               4   36[BANK0 ] unsigned int 
  3461 ;;  a               4   40[BANK0 ] unsigned int 
  3462 ;; Auto vars:     Size  Location     Type
  3463 ;;  grs             1   55[BANK0 ] unsigned char 
  3464 ;;  bexp            1   54[BANK0 ] unsigned char 
  3465 ;;  aexp            1   53[BANK0 ] unsigned char 
  3466 ;;  signs           1   52[BANK0 ] unsigned char 
  3467 ;; Return value:  Size  Location     Type
  3468 ;;                  4   36[BANK0 ] unsigned char 
  3469 ;; Registers used:
  3470 ;;		wreg, status,2, status,0, btemp+1
  3471 ;; Tracked objects:
  3472 ;;		On entry : 0/0
  3473 ;;		On exit  : 0/0
  3474 ;;		Unchanged: 0/0
  3475 ;; Data sizes:     COMMON   BANK0   BANK1   BANK3   BANK2
  3476 ;;      Params:         0       8       0       0       0
  3477 ;;      Locals:         0       4       0       0       0
  3478 ;;      Temps:          0       8       0       0       0
  3479 ;;      Totals:         0      20       0       0       0
  3480 ;;Total ram usage:       20 bytes
  3481 ;; Hardware stack levels used: 1
  3482 ;; Hardware stack levels required when called: 1
  3483 ;; This function calls:
  3484 ;;		Nothing
  3485 ;; This function is called by:
  3486 ;;		_PWM1
  3487 ;;		_map
  3488 ;; This function uses a non-reentrant model
  3489 ;;
  3490                           
  3491     036A                     ___fladd:	
  3492                           ;psect for function ___fladd
  3493                           
  3494     036A                     l1383:	
  3495                           ;incstack = 0
  3496                           ; Regs used in ___fladd: [wreg+status,2+status,0+btemp+1]
  3497                           
  3498     036A  1283               	bcf	3,5	;RP0=0, select bank0
  3499     036B  1303               	bcf	3,6	;RP1=0, select bank0
  3500     036C  0847               	movf	___fladd@b+3,w
  3501     036D  3980               	andlw	128
  3502     036E  00D4               	movwf	___fladd@signs
  3503     036F                     l1385:
  3504     036F  0847               	movf	___fladd@b+3,w
  3505     0370  00CC               	movwf	??___fladd
  3506     0371  074C               	addwf	??___fladd,w
  3507     0372  00D6               	movwf	___fladd@bexp
  3508     0373                     l1387:
  3509     0373  1FC6               	btfss	___fladd@b+2,7
  3510     0374  2B76               	goto	u1361
  3511     0375  2B77               	goto	u1360
  3512     0376                     u1361:
  3513     0376  2B78               	goto	l1391
  3514     0377                     u1360:
  3515     0377                     l1389:
  3516     0377  1456               	bsf	___fladd@bexp,0
  3517     0378                     l1391:
  3518     0378  0856               	movf	___fladd@bexp,w
  3519     0379  1903               	btfsc	3,2
  3520     037A  2B7C               	goto	u1371
  3521     037B  2B7D               	goto	u1370
  3522     037C                     u1371:
  3523     037C  2B8D               	goto	l1401
  3524     037D                     u1370:
  3525     037D                     l1393:
  3526     037D  0A56               	incf	___fladd@bexp,w
  3527     037E  1D03               	btfss	3,2
  3528     037F  2B81               	goto	u1381
  3529     0380  2B82               	goto	u1380
  3530     0381                     u1381:
  3531     0381  2B8A               	goto	l1397
  3532     0382                     u1380:
  3533     0382                     l1395:
  3534     0382  3000               	movlw	0
  3535     0383  00C7               	movwf	___fladd@b+3
  3536     0384  3000               	movlw	0
  3537     0385  00C6               	movwf	___fladd@b+2
  3538     0386  3000               	movlw	0
  3539     0387  00C5               	movwf	___fladd@b+1
  3540     0388  3000               	movlw	0
  3541     0389  00C4               	movwf	___fladd@b
  3542     038A                     l1397:
  3543     038A  17C6               	bsf	___fladd@b+2,7
  3544     038B                     l1399:
  3545     038B  01C7               	clrf	___fladd@b+3
  3546     038C  2B95               	goto	l1403
  3547     038D                     l1401:
  3548     038D  3000               	movlw	0
  3549     038E  00C7               	movwf	___fladd@b+3
  3550     038F  3000               	movlw	0
  3551     0390  00C6               	movwf	___fladd@b+2
  3552     0391  3000               	movlw	0
  3553     0392  00C5               	movwf	___fladd@b+1
  3554     0393  3000               	movlw	0
  3555     0394  00C4               	movwf	___fladd@b
  3556     0395                     l1403:
  3557     0395  084B               	movf	___fladd@a+3,w
  3558     0396  3980               	andlw	128
  3559     0397  00D5               	movwf	___fladd@aexp
  3560     0398                     l1405:
  3561     0398  0855               	movf	___fladd@aexp,w
  3562     0399  0654               	xorwf	___fladd@signs,w
  3563     039A  1903               	skipnz
  3564     039B  2B9D               	goto	u1391
  3565     039C  2B9E               	goto	u1390
  3566     039D                     u1391:
  3567     039D  2B9F               	goto	l1409
  3568     039E                     u1390:
  3569     039E                     l1407:
  3570     039E  1754               	bsf	___fladd@signs,6
  3571     039F                     l1409:
  3572     039F  084B               	movf	___fladd@a+3,w
  3573     03A0  00CC               	movwf	??___fladd
  3574     03A1  074C               	addwf	??___fladd,w
  3575     03A2  00D5               	movwf	___fladd@aexp
  3576     03A3                     l1411:
  3577     03A3  1FCA               	btfss	___fladd@a+2,7
  3578     03A4  2BA6               	goto	u1401
  3579     03A5  2BA7               	goto	u1400
  3580     03A6                     u1401:
  3581     03A6  2BA8               	goto	l1415
  3582     03A7                     u1400:
  3583     03A7                     l1413:
  3584     03A7  1455               	bsf	___fladd@aexp,0
  3585     03A8                     l1415:
  3586     03A8  0855               	movf	___fladd@aexp,w
  3587     03A9  1903               	btfsc	3,2
  3588     03AA  2BAC               	goto	u1411
  3589     03AB  2BAD               	goto	u1410
  3590     03AC                     u1411:
  3591     03AC  2BBD               	goto	l1425
  3592     03AD                     u1410:
  3593     03AD                     l1417:
  3594     03AD  0A55               	incf	___fladd@aexp,w
  3595     03AE  1D03               	btfss	3,2
  3596     03AF  2BB1               	goto	u1421
  3597     03B0  2BB2               	goto	u1420
  3598     03B1                     u1421:
  3599     03B1  2BBA               	goto	l1421
  3600     03B2                     u1420:
  3601     03B2                     l1419:
  3602     03B2  3000               	movlw	0
  3603     03B3  00CB               	movwf	___fladd@a+3
  3604     03B4  3000               	movlw	0
  3605     03B5  00CA               	movwf	___fladd@a+2
  3606     03B6  3000               	movlw	0
  3607     03B7  00C9               	movwf	___fladd@a+1
  3608     03B8  3000               	movlw	0
  3609     03B9  00C8               	movwf	___fladd@a
  3610     03BA                     l1421:
  3611     03BA  17CA               	bsf	___fladd@a+2,7
  3612     03BB                     l1423:
  3613     03BB  01CB               	clrf	___fladd@a+3
  3614     03BC  2BC5               	goto	l526
  3615     03BD                     l1425:
  3616     03BD  3000               	movlw	0
  3617     03BE  00CB               	movwf	___fladd@a+3
  3618     03BF  3000               	movlw	0
  3619     03C0  00CA               	movwf	___fladd@a+2
  3620     03C1  3000               	movlw	0
  3621     03C2  00C9               	movwf	___fladd@a+1
  3622     03C3  3000               	movlw	0
  3623     03C4  00C8               	movwf	___fladd@a
  3624     03C5                     l526:
  3625     03C5  0856               	movf	___fladd@bexp,w
  3626     03C6  0255               	subwf	___fladd@aexp,w
  3627     03C7  1803               	skipnc
  3628     03C8  2BCA               	goto	u1431
  3629     03C9  2BCB               	goto	u1430
  3630     03CA                     u1431:
  3631     03CA  2BF1               	goto	l1461
  3632     03CB                     u1430:
  3633     03CB                     l1427:
  3634     03CB  1F54               	btfss	___fladd@signs,6
  3635     03CC  2BCE               	goto	u1441
  3636     03CD  2BCF               	goto	u1440
  3637     03CE                     u1441:
  3638     03CE  2BD3               	goto	l1431
  3639     03CF                     u1440:
  3640     03CF                     l1429:
  3641     03CF  3080               	movlw	128
  3642     03D0  00CC               	movwf	??___fladd
  3643     03D1  084C               	movf	??___fladd,w
  3644     03D2  06D4               	xorwf	___fladd@signs,f
  3645     03D3                     l1431:
  3646     03D3  0856               	movf	___fladd@bexp,w
  3647     03D4  00D7               	movwf	___fladd@grs
  3648     03D5                     l1433:
  3649     03D5  0855               	movf	___fladd@aexp,w
  3650     03D6  00D6               	movwf	___fladd@bexp
  3651     03D7                     l1435:
  3652     03D7  0857               	movf	___fladd@grs,w
  3653     03D8  00D5               	movwf	___fladd@aexp
  3654     03D9                     l1437:
  3655     03D9  0844               	movf	___fladd@b,w
  3656     03DA  00D7               	movwf	___fladd@grs
  3657     03DB                     l1439:
  3658     03DB  0848               	movf	___fladd@a,w
  3659     03DC  00C4               	movwf	___fladd@b
  3660     03DD                     l1441:
  3661     03DD  0857               	movf	___fladd@grs,w
  3662     03DE  00C8               	movwf	___fladd@a
  3663     03DF                     l1443:
  3664     03DF  0845               	movf	___fladd@b+1,w
  3665     03E0  00D7               	movwf	___fladd@grs
  3666     03E1                     l1445:
  3667     03E1  0849               	movf	___fladd@a+1,w
  3668     03E2  00C5               	movwf	___fladd@b+1
  3669     03E3                     l1447:
  3670     03E3  0857               	movf	___fladd@grs,w
  3671     03E4  00C9               	movwf	___fladd@a+1
  3672     03E5                     l1449:
  3673     03E5  0846               	movf	___fladd@b+2,w
  3674     03E6  00D7               	movwf	___fladd@grs
  3675     03E7                     l1451:
  3676     03E7  084A               	movf	___fladd@a+2,w
  3677     03E8  00C6               	movwf	___fladd@b+2
  3678     03E9                     l1453:
  3679     03E9  0857               	movf	___fladd@grs,w
  3680     03EA  00CA               	movwf	___fladd@a+2
  3681     03EB                     l1455:
  3682     03EB  0847               	movf	___fladd@b+3,w
  3683     03EC  00D7               	movwf	___fladd@grs
  3684     03ED                     l1457:
  3685     03ED  084B               	movf	___fladd@a+3,w
  3686     03EE  00C7               	movwf	___fladd@b+3
  3687     03EF                     l1459:
  3688     03EF  0857               	movf	___fladd@grs,w
  3689     03F0  00CB               	movwf	___fladd@a+3
  3690     03F1                     l1461:
  3691     03F1  01D7               	clrf	___fladd@grs
  3692     03F2                     l1463:
  3693     03F2  0855               	movf	___fladd@aexp,w
  3694     03F3  00CC               	movwf	??___fladd
  3695     03F4  01CD               	clrf	??___fladd+1
  3696     03F5  084D               	movf	??___fladd+1,w
  3697     03F6  00CF               	movwf	??___fladd+3
  3698     03F7  0856               	movf	___fladd@bexp,w
  3699     03F8  024C               	subwf	??___fladd,w
  3700     03F9  00CE               	movwf	??___fladd+2
  3701     03FA  1C03               	skipc
  3702     03FB  03CF               	decf	??___fladd+3,f
  3703     03FC  084F               	movf	??___fladd+3,w
  3704     03FD  3A80               	xorlw	128
  3705     03FE  00FF               	movwf	btemp+1
  3706     03FF  3080               	movlw	128
  3707     0400  027F               	subwf	btemp+1,w
  3708     0401  1D03               	skipz
  3709     0402  2C05               	goto	u1455
  3710     0403  301A               	movlw	26
  3711     0404  024E               	subwf	??___fladd+2,w
  3712     0405                     u1455:
  3713     0405  1C03               	skipc
  3714     0406  2C08               	goto	u1451
  3715     0407  2C09               	goto	u1450
  3716     0408                     u1451:
  3717     0408  2C40               	goto	l1479
  3718     0409                     u1450:
  3719     0409                     l1465:
  3720     0409  1283               	bcf	3,5	;RP0=0, select bank0
  3721     040A  1303               	bcf	3,6	;RP1=0, select bank0
  3722     040B  0847               	movf	___fladd@b+3,w
  3723     040C  0446               	iorwf	___fladd@b+2,w
  3724     040D  0445               	iorwf	___fladd@b+1,w
  3725     040E  0444               	iorwf	___fladd@b,w
  3726     040F  1D03               	skipz
  3727     0410  2C12               	goto	u1461
  3728     0411  2C14               	goto	u1460
  3729     0412                     u1461:
  3730     0412  3001               	movlw	1
  3731     0413  2C15               	goto	u1470
  3732     0414                     u1460:
  3733     0414  3000               	movlw	0
  3734     0415                     u1470:
  3735     0415  00D7               	movwf	___fladd@grs
  3736     0416  3000               	movlw	0
  3737     0417  00C7               	movwf	___fladd@b+3
  3738     0418  3000               	movlw	0
  3739     0419  00C6               	movwf	___fladd@b+2
  3740     041A  3000               	movlw	0
  3741     041B  00C5               	movwf	___fladd@b+1
  3742     041C  3000               	movlw	0
  3743     041D  00C4               	movwf	___fladd@b
  3744     041E  0855               	movf	___fladd@aexp,w
  3745     041F  00D6               	movwf	___fladd@bexp
  3746     0420  2C48               	goto	l530
  3747     0421                     l532:
  3748     0421  1C57               	btfss	___fladd@grs,0
  3749     0422  2C24               	goto	u1481
  3750     0423  2C25               	goto	u1480
  3751     0424                     u1481:
  3752     0424  2C2C               	goto	l1469
  3753     0425                     u1480:
  3754     0425                     l1467:
  3755     0425  0857               	movf	___fladd@grs,w
  3756     0426  00CC               	movwf	??___fladd
  3757     0427  1003               	clrc
  3758     0428  0C4C               	rrf	??___fladd,w
  3759     0429  3801               	iorlw	1
  3760     042A  00D7               	movwf	___fladd@grs
  3761     042B  2C2E               	goto	l1471
  3762     042C                     l1469:
  3763     042C  1003               	clrc
  3764     042D  0CD7               	rrf	___fladd@grs,f
  3765     042E                     l1471:
  3766     042E  1C44               	btfss	___fladd@b,0
  3767     042F  2C31               	goto	u1491
  3768     0430  2C32               	goto	u1490
  3769     0431                     u1491:
  3770     0431  2C33               	goto	l1475
  3771     0432                     u1490:
  3772     0432                     l1473:
  3773     0432  17D7               	bsf	___fladd@grs,7
  3774     0433                     l1475:
  3775     0433  3001               	movlw	1
  3776     0434  00CC               	movwf	??___fladd
  3777     0435                     u1505:
  3778     0435  0D47               	rlf	___fladd@b+3,w
  3779     0436  0CC7               	rrf	___fladd@b+3,f
  3780     0437  0CC6               	rrf	___fladd@b+2,f
  3781     0438  0CC5               	rrf	___fladd@b+1,f
  3782     0439  0CC4               	rrf	___fladd@b,f
  3783     043A  0BCC               	decfsz	??___fladd& (0+127),f
  3784     043B  2C35               	goto	u1505
  3785     043C                     l1477:
  3786     043C  3001               	movlw	1
  3787     043D  00CC               	movwf	??___fladd
  3788     043E  084C               	movf	??___fladd,w
  3789     043F  07D6               	addwf	___fladd@bexp,f
  3790     0440                     l1479:
  3791     0440  1283               	bcf	3,5	;RP0=0, select bank0
  3792     0441  1303               	bcf	3,6	;RP1=0, select bank0
  3793     0442  0855               	movf	___fladd@aexp,w
  3794     0443  0256               	subwf	___fladd@bexp,w
  3795     0444  1C03               	skipc
  3796     0445  2C47               	goto	u1511
  3797     0446  2C48               	goto	u1510
  3798     0447                     u1511:
  3799     0447  2C21               	goto	l532
  3800     0448                     u1510:
  3801     0448                     l530:
  3802     0448  1B54               	btfsc	___fladd@signs,6
  3803     0449  2C4B               	goto	u1521
  3804     044A  2C4C               	goto	u1520
  3805     044B                     u1521:
  3806     044B  2C95               	goto	l1505
  3807     044C                     u1520:
  3808     044C                     l1481:
  3809     044C  0856               	movf	___fladd@bexp,w
  3810     044D  1D03               	btfss	3,2
  3811     044E  2C50               	goto	u1531
  3812     044F  2C51               	goto	u1530
  3813     0450                     u1531:
  3814     0450  2C5A               	goto	l1487
  3815     0451                     u1530:
  3816     0451                     l1483:
  3817     0451  3000               	movlw	0
  3818     0452  00C7               	movwf	?___fladd+3
  3819     0453  3000               	movlw	0
  3820     0454  00C6               	movwf	?___fladd+2
  3821     0455  3000               	movlw	0
  3822     0456  00C5               	movwf	?___fladd+1
  3823     0457  3000               	movlw	0
  3824     0458  00C4               	movwf	?___fladd
  3825     0459  2DC1               	goto	l539
  3826     045A                     l1487:
  3827     045A  0848               	movf	___fladd@a,w
  3828     045B  07C4               	addwf	___fladd@b,f
  3829     045C  0849               	movf	___fladd@a+1,w
  3830     045D  1103               	clrz
  3831     045E  1803               	skipnc
  3832     045F  3E01               	addlw	1
  3833     0460  1903               	skipnz
  3834     0461  2C63               	goto	u1541
  3835     0462  07C5               	addwf	___fladd@b+1,f
  3836     0463                     u1541:
  3837     0463  084A               	movf	___fladd@a+2,w
  3838     0464  1103               	clrz
  3839     0465  1803               	skipnc
  3840     0466  3E01               	addlw	1
  3841     0467  1903               	skipnz
  3842     0468  2C6A               	goto	u1542
  3843     0469  07C6               	addwf	___fladd@b+2,f
  3844     046A                     u1542:
  3845     046A  084B               	movf	___fladd@a+3,w
  3846     046B  1103               	clrz
  3847     046C  1803               	skipnc
  3848     046D  3E01               	addlw	1
  3849     046E  1903               	skipnz
  3850     046F  2C71               	goto	u1543
  3851     0470  07C7               	addwf	___fladd@b+3,f
  3852     0471                     u1543:
  3853     0471                     l1489:
  3854     0471  1C47               	btfss	___fladd@b+3,0
  3855     0472  2C74               	goto	u1551
  3856     0473  2C75               	goto	u1550
  3857     0474                     u1551:
  3858     0474  2D49               	goto	l1539
  3859     0475                     u1550:
  3860     0475                     l1491:
  3861     0475  1C57               	btfss	___fladd@grs,0
  3862     0476  2C78               	goto	u1561
  3863     0477  2C79               	goto	u1560
  3864     0478                     u1561:
  3865     0478  2C80               	goto	l1495
  3866     0479                     u1560:
  3867     0479                     l1493:
  3868     0479  0857               	movf	___fladd@grs,w
  3869     047A  00CC               	movwf	??___fladd
  3870     047B  1003               	clrc
  3871     047C  0C4C               	rrf	??___fladd,w
  3872     047D  3801               	iorlw	1
  3873     047E  00D7               	movwf	___fladd@grs
  3874     047F  2C82               	goto	l1497
  3875     0480                     l1495:
  3876     0480  1003               	clrc
  3877     0481  0CD7               	rrf	___fladd@grs,f
  3878     0482                     l1497:
  3879     0482  1C44               	btfss	___fladd@b,0
  3880     0483  2C85               	goto	u1571
  3881     0484  2C86               	goto	u1570
  3882     0485                     u1571:
  3883     0485  2C87               	goto	l1501
  3884     0486                     u1570:
  3885     0486                     l1499:
  3886     0486  17D7               	bsf	___fladd@grs,7
  3887     0487                     l1501:
  3888     0487  3001               	movlw	1
  3889     0488  00CC               	movwf	??___fladd
  3890     0489                     u1585:
  3891     0489  0D47               	rlf	___fladd@b+3,w
  3892     048A  0CC7               	rrf	___fladd@b+3,f
  3893     048B  0CC6               	rrf	___fladd@b+2,f
  3894     048C  0CC5               	rrf	___fladd@b+1,f
  3895     048D  0CC4               	rrf	___fladd@b,f
  3896     048E  0BCC               	decfsz	??___fladd& (0+127),f
  3897     048F  2C89               	goto	u1585
  3898     0490                     l1503:
  3899     0490  3001               	movlw	1
  3900     0491  00CC               	movwf	??___fladd
  3901     0492  084C               	movf	??___fladd,w
  3902     0493  07D6               	addwf	___fladd@bexp,f
  3903     0494  2D49               	goto	l1539
  3904     0495                     l1505:
  3905     0495  0847               	movf	___fladd@b+3,w
  3906     0496  3A80               	xorlw	128
  3907     0497  00FF               	movwf	btemp+1
  3908     0498  084B               	movf	___fladd@a+3,w
  3909     0499  3A80               	xorlw	128
  3910     049A  027F               	subwf	btemp+1,w
  3911     049B  1D03               	skipz
  3912     049C  2CA7               	goto	u1593
  3913     049D  084A               	movf	___fladd@a+2,w
  3914     049E  0246               	subwf	___fladd@b+2,w
  3915     049F  1D03               	skipz
  3916     04A0  2CA7               	goto	u1593
  3917     04A1  0849               	movf	___fladd@a+1,w
  3918     04A2  0245               	subwf	___fladd@b+1,w
  3919     04A3  1D03               	skipz
  3920     04A4  2CA7               	goto	u1593
  3921     04A5  0848               	movf	___fladd@a,w
  3922     04A6  0244               	subwf	___fladd@b,w
  3923     04A7                     u1593:
  3924     04A7  1803               	skipnc
  3925     04A8  2CAA               	goto	u1591
  3926     04A9  2CAB               	goto	u1590
  3927     04AA                     u1591:
  3928     04AA  2D03               	goto	l1515
  3929     04AB                     u1590:
  3930     04AB                     l1507:
  3931     04AB  30FF               	movlw	255
  3932     04AC  00CC               	movwf	??___fladd
  3933     04AD  30FF               	movlw	255
  3934     04AE  00CD               	movwf	??___fladd+1
  3935     04AF  30FF               	movlw	255
  3936     04B0  00CE               	movwf	??___fladd+2
  3937     04B1  30FF               	movlw	255
  3938     04B2  00CF               	movwf	??___fladd+3
  3939     04B3  0848               	movf	___fladd@a,w
  3940     04B4  00D0               	movwf	??___fladd+4
  3941     04B5  0849               	movf	___fladd@a+1,w
  3942     04B6  00D1               	movwf	??___fladd+5
  3943     04B7  084A               	movf	___fladd@a+2,w
  3944     04B8  00D2               	movwf	??___fladd+6
  3945     04B9  084B               	movf	___fladd@a+3,w
  3946     04BA  00D3               	movwf	??___fladd+7
  3947     04BB  0844               	movf	___fladd@b,w
  3948     04BC  02D0               	subwf	??___fladd+4,f
  3949     04BD  0845               	movf	___fladd@b+1,w
  3950     04BE  1C03               	skipc
  3951     04BF  0F45               	incfsz	___fladd@b+1,w
  3952     04C0  2CC2               	goto	u1601
  3953     04C1  2CC3               	goto	u1602
  3954     04C2                     u1601:
  3955     04C2  02D1               	subwf	??___fladd+5,f
  3956     04C3                     u1602:
  3957     04C3  0846               	movf	___fladd@b+2,w
  3958     04C4  1C03               	skipc
  3959     04C5  0F46               	incfsz	___fladd@b+2,w
  3960     04C6  2CC8               	goto	u1603
  3961     04C7  2CC9               	goto	u1604
  3962     04C8                     u1603:
  3963     04C8  02D2               	subwf	??___fladd+6,f
  3964     04C9                     u1604:
  3965     04C9  0847               	movf	___fladd@b+3,w
  3966     04CA  1C03               	skipc
  3967     04CB  0F47               	incfsz	___fladd@b+3,w
  3968     04CC  2CCE               	goto	u1605
  3969     04CD  2CCF               	goto	u1606
  3970     04CE                     u1605:
  3971     04CE  02D3               	subwf	??___fladd+7,f
  3972     04CF                     u1606:
  3973     04CF  0850               	movf	??___fladd+4,w
  3974     04D0  07CC               	addwf	??___fladd,f
  3975     04D1  0851               	movf	??___fladd+5,w
  3976     04D2  1803               	skipnc
  3977     04D3  0F51               	incfsz	??___fladd+5,w
  3978     04D4  2CD6               	goto	u1610
  3979     04D5  2CD7               	goto	u1611
  3980     04D6                     u1610:
  3981     04D6  07CD               	addwf	??___fladd+1,f
  3982     04D7                     u1611:
  3983     04D7  0852               	movf	??___fladd+6,w
  3984     04D8  1803               	skipnc
  3985     04D9  0F52               	incfsz	??___fladd+6,w
  3986     04DA  2CDC               	goto	u1612
  3987     04DB  2CDD               	goto	u1613
  3988     04DC                     u1612:
  3989     04DC  07CE               	addwf	??___fladd+2,f
  3990     04DD                     u1613:
  3991     04DD  0853               	movf	??___fladd+7,w
  3992     04DE  1803               	skipnc
  3993     04DF  0A53               	incf	??___fladd+7,w
  3994     04E0  07CF               	addwf	??___fladd+3,f
  3995     04E1  084F               	movf	??___fladd+3,w
  3996     04E2  00C7               	movwf	___fladd@b+3
  3997     04E3  084E               	movf	??___fladd+2,w
  3998     04E4  00C6               	movwf	___fladd@b+2
  3999     04E5  084D               	movf	??___fladd+1,w
  4000     04E6  00C5               	movwf	___fladd@b+1
  4001     04E7  084C               	movf	??___fladd,w
  4002     04E8  00C4               	movwf	___fladd@b
  4003     04E9                     l1509:
  4004     04E9  3080               	movlw	128
  4005     04EA  00CC               	movwf	??___fladd
  4006     04EB  084C               	movf	??___fladd,w
  4007     04EC  06D4               	xorwf	___fladd@signs,f
  4008     04ED  09D7               	comf	___fladd@grs,f
  4009     04EE  0AD7               	incf	___fladd@grs,f
  4010     04EF                     l1511:
  4011     04EF  0857               	movf	___fladd@grs,w
  4012     04F0  1D03               	btfss	3,2
  4013     04F1  2CF3               	goto	u1621
  4014     04F2  2CF4               	goto	u1620
  4015     04F3                     u1621:
  4016     04F3  2D11               	goto	l547
  4017     04F4                     u1620:
  4018     04F4                     l1513:
  4019     04F4  3001               	movlw	1
  4020     04F5  07C4               	addwf	___fladd@b,f
  4021     04F6  3000               	movlw	0
  4022     04F7  1803               	skipnc
  4023     04F8  3001               	movlw	1
  4024     04F9  07C5               	addwf	___fladd@b+1,f
  4025     04FA  3000               	movlw	0
  4026     04FB  1803               	skipnc
  4027     04FC  3001               	movlw	1
  4028     04FD  07C6               	addwf	___fladd@b+2,f
  4029     04FE  3000               	movlw	0
  4030     04FF  1803               	skipnc
  4031     0500  3001               	movlw	1
  4032     0501  07C7               	addwf	___fladd@b+3,f
  4033     0502  2D11               	goto	l547
  4034     0503                     l1515:
  4035     0503  0848               	movf	___fladd@a,w
  4036     0504  02C4               	subwf	___fladd@b,f
  4037     0505  0849               	movf	___fladd@a+1,w
  4038     0506  1C03               	skipc
  4039     0507  0F49               	incfsz	___fladd@a+1,w
  4040     0508  02C5               	subwf	___fladd@b+1,f
  4041     0509  084A               	movf	___fladd@a+2,w
  4042     050A  1C03               	skipc
  4043     050B  0F4A               	incfsz	___fladd@a+2,w
  4044     050C  02C6               	subwf	___fladd@b+2,f
  4045     050D  084B               	movf	___fladd@a+3,w
  4046     050E  1C03               	skipc
  4047     050F  0F4B               	incfsz	___fladd@a+3,w
  4048     0510  02C7               	subwf	___fladd@b+3,f
  4049     0511                     l547:
  4050     0511  0847               	movf	___fladd@b+3,w
  4051     0512  0446               	iorwf	___fladd@b+2,w
  4052     0513  0445               	iorwf	___fladd@b+1,w
  4053     0514  0444               	iorwf	___fladd@b,w
  4054     0515  1D03               	skipz
  4055     0516  2D18               	goto	u1631
  4056     0517  2D19               	goto	u1630
  4057     0518                     u1631:
  4058     0518  2D45               	goto	l1537
  4059     0519                     u1630:
  4060     0519                     l1517:
  4061     0519  0857               	movf	___fladd@grs,w
  4062     051A  1D03               	btfss	3,2
  4063     051B  2D1D               	goto	u1641
  4064     051C  2D1E               	goto	u1640
  4065     051D                     u1641:
  4066     051D  2D45               	goto	l1537
  4067     051E                     u1640:
  4068     051E                     l1519:
  4069     051E  3000               	movlw	0
  4070     051F  00C7               	movwf	?___fladd+3
  4071     0520  3000               	movlw	0
  4072     0521  00C6               	movwf	?___fladd+2
  4073     0522  3000               	movlw	0
  4074     0523  00C5               	movwf	?___fladd+1
  4075     0524  3000               	movlw	0
  4076     0525  00C4               	movwf	?___fladd
  4077     0526  2DC1               	goto	l539
  4078     0527                     l1523:
  4079     0527  3001               	movlw	1
  4080     0528  00CC               	movwf	??___fladd
  4081     0529                     u1655:
  4082     0529  1003               	clrc
  4083     052A  0DC4               	rlf	___fladd@b,f
  4084     052B  0DC5               	rlf	___fladd@b+1,f
  4085     052C  0DC6               	rlf	___fladd@b+2,f
  4086     052D  0DC7               	rlf	___fladd@b+3,f
  4087     052E  0BCC               	decfsz	??___fladd,f
  4088     052F  2D29               	goto	u1655
  4089     0530                     l1525:
  4090     0530  1FD7               	btfss	___fladd@grs,7
  4091     0531  2D33               	goto	u1661
  4092     0532  2D34               	goto	u1660
  4093     0533                     u1661:
  4094     0533  2D35               	goto	l551
  4095     0534                     u1660:
  4096     0534                     l1527:
  4097     0534  1444               	bsf	___fladd@b,0
  4098     0535                     l551:
  4099     0535  1C57               	btfss	___fladd@grs,0
  4100     0536  2D38               	goto	u1671
  4101     0537  2D39               	goto	u1670
  4102     0538                     u1671:
  4103     0538  2D3C               	goto	l1531
  4104     0539                     u1670:
  4105     0539                     l1529:
  4106     0539  1403               	setc
  4107     053A  0DD7               	rlf	___fladd@grs,f
  4108     053B  2D3E               	goto	l1533
  4109     053C                     l1531:
  4110     053C  1003               	clrc
  4111     053D  0DD7               	rlf	___fladd@grs,f
  4112     053E                     l1533:
  4113     053E  0856               	movf	___fladd@bexp,w
  4114     053F  1903               	btfsc	3,2
  4115     0540  2D42               	goto	u1681
  4116     0541  2D43               	goto	u1680
  4117     0542                     u1681:
  4118     0542  2D45               	goto	l1537
  4119     0543                     u1680:
  4120     0543                     l1535:
  4121     0543  3001               	movlw	1
  4122     0544  02D6               	subwf	___fladd@bexp,f
  4123     0545                     l1537:
  4124     0545  1FC6               	btfss	___fladd@b+2,7
  4125     0546  2D48               	goto	u1691
  4126     0547  2D49               	goto	u1690
  4127     0548                     u1691:
  4128     0548  2D27               	goto	l1523
  4129     0549                     u1690:
  4130     0549                     l1539:
  4131     0549  01D5               	clrf	___fladd@aexp
  4132     054A                     l1541:
  4133     054A  1FD7               	btfss	___fladd@grs,7
  4134     054B  2D4D               	goto	u1701
  4135     054C  2D4E               	goto	u1700
  4136     054D                     u1701:
  4137     054D  2D5C               	goto	l1549
  4138     054E                     u1700:
  4139     054E                     l1543:
  4140     054E  0857               	movf	___fladd@grs,w
  4141     054F  397F               	andlw	127
  4142     0550  1903               	btfsc	3,2
  4143     0551  2D53               	goto	u1711
  4144     0552  2D54               	goto	u1710
  4145     0553                     u1711:
  4146     0553  2D57               	goto	l557
  4147     0554                     u1710:
  4148     0554                     l1545:
  4149     0554  01D5               	clrf	___fladd@aexp
  4150     0555  0AD5               	incf	___fladd@aexp,f
  4151     0556  2D5C               	goto	l1549
  4152     0557                     l557:
  4153     0557  1C44               	btfss	___fladd@b,0
  4154     0558  2D5A               	goto	u1721
  4155     0559  2D5B               	goto	u1720
  4156     055A                     u1721:
  4157     055A  2D5C               	goto	l1549
  4158     055B                     u1720:
  4159     055B  2D54               	goto	l1545
  4160     055C                     l1549:
  4161     055C  0855               	movf	___fladd@aexp,w
  4162     055D  1903               	btfsc	3,2
  4163     055E  2D60               	goto	u1731
  4164     055F  2D61               	goto	u1730
  4165     0560                     u1731:
  4166     0560  2D95               	goto	l560
  4167     0561                     u1730:
  4168     0561                     l1551:
  4169     0561  3001               	movlw	1
  4170     0562  07C4               	addwf	___fladd@b,f
  4171     0563  3000               	movlw	0
  4172     0564  1803               	skipnc
  4173     0565  3001               	movlw	1
  4174     0566  07C5               	addwf	___fladd@b+1,f
  4175     0567  3000               	movlw	0
  4176     0568  1803               	skipnc
  4177     0569  3001               	movlw	1
  4178     056A  07C6               	addwf	___fladd@b+2,f
  4179     056B  3000               	movlw	0
  4180     056C  1803               	skipnc
  4181     056D  3001               	movlw	1
  4182     056E  07C7               	addwf	___fladd@b+3,f
  4183     056F                     l1553:
  4184     056F  1C47               	btfss	___fladd@b+3,0
  4185     0570  2D72               	goto	u1741
  4186     0571  2D73               	goto	u1740
  4187     0572                     u1741:
  4188     0572  2D95               	goto	l560
  4189     0573                     u1740:
  4190     0573                     l1555:
  4191     0573  0844               	movf	___fladd@b,w
  4192     0574  00CC               	movwf	??___fladd
  4193     0575  0845               	movf	___fladd@b+1,w
  4194     0576  00CD               	movwf	??___fladd+1
  4195     0577  0846               	movf	___fladd@b+2,w
  4196     0578  00CE               	movwf	??___fladd+2
  4197     0579  0847               	movf	___fladd@b+3,w
  4198     057A  00CF               	movwf	??___fladd+3
  4199     057B  3001               	movlw	1
  4200     057C  00D0               	movwf	??___fladd+4
  4201     057D                     u1755:
  4202     057D  0D4F               	rlf	??___fladd+3,w
  4203     057E  0CCF               	rrf	??___fladd+3,f
  4204     057F  0CCE               	rrf	??___fladd+2,f
  4205     0580  0CCD               	rrf	??___fladd+1,f
  4206     0581  0CCC               	rrf	??___fladd,f
  4207     0582                     u1750:
  4208     0582  0BD0               	decfsz	??___fladd+4,f
  4209     0583  2D7D               	goto	u1755
  4210     0584  084F               	movf	??___fladd+3,w
  4211     0585  00C7               	movwf	___fladd@b+3
  4212     0586  084E               	movf	??___fladd+2,w
  4213     0587  00C6               	movwf	___fladd@b+2
  4214     0588  084D               	movf	??___fladd+1,w
  4215     0589  00C5               	movwf	___fladd@b+1
  4216     058A  084C               	movf	??___fladd,w
  4217     058B  00C4               	movwf	___fladd@b
  4218     058C  0A56               	incf	___fladd@bexp,w
  4219     058D  1903               	btfsc	3,2
  4220     058E  2D90               	goto	u1761
  4221     058F  2D91               	goto	u1760
  4222     0590                     u1761:
  4223     0590  2D95               	goto	l560
  4224     0591                     u1760:
  4225     0591                     l1557:
  4226     0591  3001               	movlw	1
  4227     0592  00CC               	movwf	??___fladd
  4228     0593  084C               	movf	??___fladd,w
  4229     0594  07D6               	addwf	___fladd@bexp,f
  4230     0595                     l560:
  4231     0595  0A56               	incf	___fladd@bexp,w
  4232     0596  1903               	btfsc	3,2
  4233     0597  2D99               	goto	u1771
  4234     0598  2D9A               	goto	u1770
  4235     0599                     u1771:
  4236     0599  2D9F               	goto	l1561
  4237     059A                     u1770:
  4238     059A                     l1559:
  4239     059A  0856               	movf	___fladd@bexp,w
  4240     059B  1D03               	btfss	3,2
  4241     059C  2D9E               	goto	u1781
  4242     059D  2D9F               	goto	u1780
  4243     059E                     u1781:
  4244     059E  2DAD               	goto	l1567
  4245     059F                     u1780:
  4246     059F                     l1561:
  4247     059F  3000               	movlw	0
  4248     05A0  00C7               	movwf	___fladd@b+3
  4249     05A1  3000               	movlw	0
  4250     05A2  00C6               	movwf	___fladd@b+2
  4251     05A3  3000               	movlw	0
  4252     05A4  00C5               	movwf	___fladd@b+1
  4253     05A5  3000               	movlw	0
  4254     05A6  00C4               	movwf	___fladd@b
  4255     05A7                     l1563:
  4256     05A7  0856               	movf	___fladd@bexp,w
  4257     05A8  1D03               	btfss	3,2
  4258     05A9  2DAB               	goto	u1791
  4259     05AA  2DAC               	goto	u1790
  4260     05AB                     u1791:
  4261     05AB  2DAD               	goto	l1567
  4262     05AC                     u1790:
  4263     05AC                     l1565:
  4264     05AC  01D4               	clrf	___fladd@signs
  4265     05AD                     l1567:
  4266     05AD  1C56               	btfss	___fladd@bexp,0
  4267     05AE  2DB0               	goto	u1801
  4268     05AF  2DB1               	goto	u1800
  4269     05B0                     u1801:
  4270     05B0  2DB3               	goto	l1571
  4271     05B1                     u1800:
  4272     05B1                     l1569:
  4273     05B1  17C6               	bsf	___fladd@b+2,7
  4274     05B2  2DB7               	goto	l568
  4275     05B3                     l1571:
  4276     05B3  307F               	movlw	127
  4277     05B4  00CC               	movwf	??___fladd
  4278     05B5  084C               	movf	??___fladd,w
  4279     05B6  05C6               	andwf	___fladd@b+2,f
  4280     05B7                     l568:
  4281     05B7  0856               	movf	___fladd@bexp,w
  4282     05B8  00CC               	movwf	??___fladd
  4283     05B9  1003               	clrc
  4284     05BA  0C4C               	rrf	??___fladd,w
  4285     05BB  00C7               	movwf	___fladd@b+3
  4286     05BC                     l1573:
  4287     05BC  1FD4               	btfss	___fladd@signs,7
  4288     05BD  2DBF               	goto	u1811
  4289     05BE  2DC0               	goto	u1810
  4290     05BF                     u1811:
  4291     05BF  2DC1               	goto	l569
  4292     05C0                     u1810:
  4293     05C0                     l1575:
  4294     05C0  17C7               	bsf	___fladd@b+3,7
  4295     05C1                     l569:
  4296     05C1                     l539:
  4297     05C1  0008               	return
  4298     05C2                     __end_of___fladd:
  4299                           
  4300                           	psect	text15
  4301     0E97                     __ptext15:	
  4302 ;; *************** function _isr *****************
  4303 ;; Defined at:
  4304 ;;		line 61 in file "main.c"
  4305 ;; Parameters:    Size  Location     Type
  4306 ;;		None
  4307 ;; Auto vars:     Size  Location     Type
  4308 ;;		None
  4309 ;; Return value:  Size  Location     Type
  4310 ;;                  1    wreg      void 
  4311 ;; Registers used:
  4312 ;;		wreg, status,2, status,0
  4313 ;; Tracked objects:
  4314 ;;		On entry : 0/0
  4315 ;;		On exit  : 0/0
  4316 ;;		Unchanged: 0/0
  4317 ;; Data sizes:     COMMON   BANK0   BANK1   BANK3   BANK2
  4318 ;;      Params:         0       0       0       0       0
  4319 ;;      Locals:         0       0       0       0       0
  4320 ;;      Temps:          3       0       0       0       0
  4321 ;;      Totals:         3       0       0       0       0
  4322 ;;Total ram usage:        3 bytes
  4323 ;; Hardware stack levels used: 1
  4324 ;; This function calls:
  4325 ;;		Nothing
  4326 ;; This function is called by:
  4327 ;;		Interrupt level 1
  4328 ;; This function uses a non-reentrant model
  4329 ;;
  4330                           
  4331     0E97                     _isr:	
  4332                           ;psect for function _isr
  4333                           
  4334     0E97                     i1l1891:
  4335                           
  4336                           ;main.c: 62:     if (INTCONbits.T0IF){
  4337     0E97  1D0B               	btfss	11,2	;volatile
  4338     0E98  2E9A               	goto	u243_21
  4339     0E99  2E9B               	goto	u243_20
  4340     0E9A                     u243_21:
  4341     0E9A  2EAD               	goto	i1l92
  4342     0E9B                     u243_20:
  4343     0E9B                     i1l1893:
  4344                           
  4345                           ;main.c: 64:         if (PORTCbits.RC3){
  4346     0E9B  1283               	bcf	3,5	;RP0=0, select bank0
  4347     0E9C  1303               	bcf	3,6	;RP1=0, select bank0
  4348     0E9D  1D87               	btfss	7,3	;volatile
  4349     0E9E  2EA0               	goto	u244_21
  4350     0E9F  2EA1               	goto	u244_20
  4351     0EA0                     u244_21:
  4352     0EA0  2EA9               	goto	i1l1901
  4353     0EA1                     u244_20:
  4354     0EA1                     i1l1895:
  4355                           
  4356                           ;main.c: 66:             TMR0 = 255-pulso;
  4357     0EA1  0968               	comf	_pulso,w
  4358     0EA2  0081               	movwf	1	;volatile
  4359     0EA3                     i1l1897:
  4360                           
  4361                           ;main.c: 67:             PORTCbits.RC3 = 0;
  4362     0EA3  1187               	bcf	7,3	;volatile
  4363     0EA4                     i1l1899:
  4364                           
  4365                           ;main.c: 68:             PORTD++;
  4366     0EA4  3001               	movlw	1
  4367     0EA5  00F0               	movwf	??_isr
  4368     0EA6  0870               	movf	??_isr,w
  4369     0EA7  0788               	addwf	8,f	;volatile
  4370                           
  4371                           ;main.c: 69:         }
  4372     0EA8  2EAC               	goto	i1l1905
  4373     0EA9                     i1l1901:
  4374                           
  4375                           ;main.c: 72:             TMR0 = pulso;
  4376     0EA9  0868               	movf	_pulso,w
  4377     0EAA  0081               	movwf	1	;volatile
  4378     0EAB                     i1l1903:
  4379                           
  4380                           ;main.c: 73:             PORTCbits.RC3 = 1;
  4381     0EAB  1587               	bsf	7,3	;volatile
  4382     0EAC                     i1l1905:
  4383                           
  4384                           ;main.c: 76:         INTCONbits.T0IF = 0;
  4385     0EAC  110B               	bcf	11,2	;volatile
  4386     0EAD                     i1l92:
  4387     0EAD  0872               	movf	??_isr+2,w
  4388     0EAE  008A               	movwf	10
  4389     0EAF  0E71               	swapf	??_isr+1,w
  4390     0EB0  0083               	movwf	3
  4391     0EB1  0EFE               	swapf	btemp,f
  4392     0EB2  0E7E               	swapf	btemp,w
  4393     0EB3  0009               	retfie
  4394     0EB4                     __end_of_isr:
  4395     007E                     btemp	set	126	;btemp
  4396     007E                     wtemp0	set	126
  4397                           
  4398                           	psect	intentry
  4399     0004                     __pintentry:	
  4400                           ;incstack = 0
  4401                           ; Regs used in _isr: [wreg+status,2+status,0]
  4402                           
  4403     0004                     interrupt_function:
  4404     007E                     saved_w	set	btemp
  4405     0004  00FE               	movwf	btemp
  4406     0005  0E03               	swapf	3,w
  4407     0006  00F1               	movwf	??_isr+1
  4408     0007  080A               	movf	10,w
  4409     0008  00F2               	movwf	??_isr+2
  4410     0009  120A  158A  2E97   	ljmp	_isr
  4411                           
  4412                           	psect	idloc
  4413                           
  4414                           ;Config register IDLOC0 @ 0x2000
  4415                           ;	unspecified, using default values
  4416     2000                     	org	8192
  4417     2000  3FFF               	dw	16383
  4418                           
  4419                           ;Config register IDLOC1 @ 0x2001
  4420                           ;	unspecified, using default values
  4421     2001                     	org	8193
  4422     2001  3FFF               	dw	16383
  4423                           
  4424                           ;Config register IDLOC2 @ 0x2002
  4425                           ;	unspecified, using default values
  4426     2002                     	org	8194
  4427     2002  3FFF               	dw	16383
  4428                           
  4429                           ;Config register IDLOC3 @ 0x2003
  4430                           ;	unspecified, using default values
  4431     2003                     	org	8195
  4432     2003  3FFF               	dw	16383
  4433                           
  4434                           	psect	config
  4435                           
  4436                           ;Config register CONFIG1 @ 0x2007
  4437                           ;	Oscillator Selection bits
  4438                           ;	FOSC = INTRC_NOCLKOUT, INTOSCIO oscillator: I/O function on RA6/OSC2/CLKOUT pin, I/O f
      +                          unction on RA7/OSC1/CLKIN
  4439                           ;	Watchdog Timer Enable bit
  4440                           ;	WDTE = OFF, WDT disabled and can be enabled by SWDTEN bit of the WDTCON register
  4441                           ;	Power-up Timer Enable bit
  4442                           ;	PWRTE = OFF, PWRT disabled
  4443                           ;	RE3/MCLR pin function select bit
  4444                           ;	MCLRE = OFF, RE3/MCLR pin function is digital input, MCLR internally tied to VDD
  4445                           ;	Code Protection bit
  4446                           ;	CP = OFF, Program memory code protection is disabled
  4447                           ;	Data Code Protection bit
  4448                           ;	CPD = OFF, Data memory code protection is disabled
  4449                           ;	Brown Out Reset Selection bits
  4450                           ;	BOREN = OFF, BOR disabled
  4451                           ;	Internal External Switchover bit
  4452                           ;	IESO = OFF, Internal/External Switchover mode is disabled
  4453                           ;	Fail-Safe Clock Monitor Enabled bit
  4454                           ;	FCMEN = OFF, Fail-Safe Clock Monitor is disabled
  4455                           ;	Low Voltage Programming Enable bit
  4456                           ;	LVP = OFF, RB3 pin has digital I/O, HV on MCLR must be used for programming
  4457                           ;	In-Circuit Debugger Mode bit
  4458                           ;	DEBUG = 0x1, unprogramme  4459     2007                     	org	8199
  4460     2007  20D4               	dw	8404
  4461                           
  4462                           ;Config register CONFIG2 @ 0x2008
  4463                           ;	Brown-out Reset Selection bit
  4464                           ;	BOR4V = BOR40V, Brown-out Reset set to 4.0V
  4465                           ;	Flash Program Memory Self Write Enable bits
  4466                           ;	WRT = OFF, Write protection off
  4467     2008                     	org	8200
  4468     2008  3FFF               	dw	16383

Data Sizes:
    Strings     0
    Constant    0
    Data        0
    BSS         14
    Persistent  0
    Stack       0

Auto Spaces:
    Space          Size  Autos    Used
    COMMON           14      9      11
    BANK0            80     72      80
    BANK1            80      1       5
    BANK3            96      0       0
    BANK2            96      0       0

Pointer List with Targets:

    None.

Critical Paths under _main in COMMON

    _map->___fltol
    _PWM1->___fltol
    ___fltol->___xxtofl
    ___flmul->__Umul8_16
    ___flmul->___xxtofl
    ___fladd->___xxtofl

Critical Paths under _isr in COMMON

    None.

Critical Paths under _main in BANK0

    _main->_controlmotores
    _controlmotores->_PWM1
    _controlmotores->_map
    _map->___fltol
    _PWM1->___fltol
    ___fltol->___fladd
    ___flmul->___xxtofl
    ___fladd->___flmul

Critical Paths under _isr in BANK0

    None.

Critical Paths under _main in BANK1

    None.

Critical Paths under _isr in BANK1

    None.

Critical Paths under _main in BANK3

    None.

Critical Paths under _isr in BANK3

    None.

Critical Paths under _main in BANK2

    None.

Critical Paths under _isr in BANK2

    None.

Call Graph Tables:

 ---------------------------------------------------------------------------------
 (Depth) Function   	        Calls       Base Space   Used Autos Params    Refs
 ---------------------------------------------------------------------------------
 (0) _main                                                 1     1      0   12378
                                              0 BANK1      1     1      0
                     _controlmotores
                              _setup
                           _setupADC
                        _setupINTOSC
                           _setupPWM
                          _setupPWM2
                          _setupTMR0
 ---------------------------------------------------------------------------------
 (1) _setupTMR0                                            0     0      0       0
 ---------------------------------------------------------------------------------
 (1) _setupPWM2                                            0     0      0       0
 ---------------------------------------------------------------------------------
 (1) _setupPWM                                             1     1      0       0
                                              3 COMMON     1     1      0
 ---------------------------------------------------------------------------------
 (1) _setupINTOSC                                          1     1      0      66
                                              3 COMMON     1     1      0
 ---------------------------------------------------------------------------------
 (1) _setupADC                                             1     1      0       0
                                              3 COMMON     1     1      0
 ---------------------------------------------------------------------------------
 (1) _setup                                                0     0      0       0
 ---------------------------------------------------------------------------------
 (1) _controlmotores                                       3     3      0   12312
                                             69 BANK0      3     3      0
                               _PWM1
                                _map
 ---------------------------------------------------------------------------------
 (2) _map                                                  5     5      0    6156
                                             64 BANK0      5     5      0
                            ___fladd
                            ___flmul
                            ___fltol
                           ___xxtofl
 ---------------------------------------------------------------------------------
 (2) _PWM1                                                 5     5      0    6156
                                             64 BANK0      5     5      0
                            ___fladd
                            ___flmul
                            ___fltol
                           ___xxtofl
 ---------------------------------------------------------------------------------
 (3) ___xxtofl                                            14    10      4     656
                                              3 COMMON     4     0      4
                                              0 BANK0     10    10      0
 ---------------------------------------------------------------------------------
 (3) ___fltol                                             10     6      4     517
                                              7 COMMON     2     2      0
                                             56 BANK0      8     4      4
                            ___fladd (ARG)
                            ___flmul (ARG)
                           ___xxtofl (ARG)
 ---------------------------------------------------------------------------------
 (3) ___flmul                                             26    18      8    2569
                                             10 BANK0     26    18      8
                          __Umul8_16
                           ___xxtofl (ARG)
 ---------------------------------------------------------------------------------
 (4) __Umul8_16                                            9     7      2     799
                                              3 COMMON     4     2      2
                                              0 BANK0      5     5      0
 ---------------------------------------------------------------------------------
 (3) ___fladd                                             20    12      8    2414
                                             36 BANK0     20    12      8
                            ___flmul (ARG)
                           ___xxtofl (ARG)
 ---------------------------------------------------------------------------------
 Estimated maximum stack depth 4
 ---------------------------------------------------------------------------------
 (Depth) Function   	        Calls       Base Space   Used Autos Params    Refs
 ---------------------------------------------------------------------------------
 (5) _isr                                                  3     3      0       0
                                              0 COMMON     3     3      0
 ---------------------------------------------------------------------------------
 Estimated maximum stack depth 5
 ---------------------------------------------------------------------------------

 Call Graph Graphs:

 _main (ROOT)
   _controlmotores
     _PWM1
       ___fladd
         ___flmul (ARG)
           __Umul8_16
           ___xxtofl (ARG)
         ___xxtofl (ARG)
       ___flmul
       ___fltol
         ___fladd (ARG)
         ___flmul (ARG)
         ___xxtofl (ARG)
       ___xxtofl
     _map
       ___fladd
       ___flmul
       ___fltol
       ___xxtofl
   _setup
   _setupADC
   _setupINTOSC
   _setupPWM
   _setupPWM2
   _setupTMR0

 _isr (ROOT)

 Address spaces:
Name               Size   Autos  Total    Cost      Usage
BITCOMMON            E      0       0       0        0.0%
EEDATA             100      0       0       0        0.0%
NULL                 0      0       0       0        0.0%
CODE                 0      0       0       0        0.0%
COMMON               E      9       B       1       78.6%
BITSFR0              0      0       0       1        0.0%
SFR0                 0      0       0       1        0.0%
BITSFR1              0      0       0       2        0.0%
SFR1                 0      0       0       2        0.0%
STACK                0      0       0       2        0.0%
ABS                  0      0      60       3        0.0%
BITBANK0            50      0       0       4        0.0%
BITSFR3              0      0       0       4        0.0%
SFR3                 0      0       0       4        0.0%
BANK0               50     48      50       5      100.0%
BITSFR2              0      0       0       5        0.0%
SFR2                 0      0       0       5        0.0%
BITBANK1            50      0       0       6        0.0%
BANK1               50      1       5       7        6.2%
BITBANK3            60      0       0       8        0.0%
BANK3               60      0       0       9        0.0%
BITBANK2            60      0       0      10        0.0%
BANK2               60      0       0      11        0.0%
DATA                 0      0      60      12        0.0%


Microchip Technology PIC Macro Assembler V2.40 build 20220703182018 
Symbol Table                                                                                   Mon Nov 14 21:32:58 2022

    __Umul8_16@word_mpld 0022                      l103 0E6D                      l111 0ECF  
                    l112 0ED2                      l121 0E7C                      l130 0689  
                    l106 0F4F                      l115 0E8F                      l124 07FE  
                    l132 068D                      l133 06B5                      l109 0ECB  
                    l117 0E93                      l118 0E96                      l127 078B  
                    l135 06B9                      l136 06F3                      l144 0EDE  
                    l145 0EEA                      l138 06F7                      l139 0704  
                    l147 0EF9                      l530 0448                      l426 0FEA  
                    l419 0FFF                      l532 0421                      l429 0FFF  
                    l526 03C5                      l622 0369                      l551 0535  
                    l560 0595                      l641 0F10                      l634 035D  
                    l547 0511                      l539 05C1                      l643 0F22  
                    l628 02D9                      l557 0557                      l568 05B7  
                    l680 0651                      l672 0629                      l569 05C1  
                    l666 05E6                      l668 067B                      l679 0645  
                    _PR2 0092                      _map 0705                      _isr 0E97  
           ___flmul@aexp 003C             ___flmul@bexp 003D             ___flmul@sign 0037  
           ___flmul@temp 0042             ___flmul@prod 003E             ___fltol@exp1 0078  
                   l2001 0672                     l2003 0673                     l2011 07FC  
                   l2013 0705                     l2021 067C                     l2007 078C  
                   l2015 0726                     l2031 069D                     l2023 0680  
                   l1401 038D                     l2009 07AD                     l2017 0775  
                   l2041 06BA                     l2033 069F                     l2025 0686  
                   l1411 03A3                     l1403 0395                     l2019 077B  
                   l2051 06E4                     l2043 06BF                     l2035 06A6  
                   l2027 068E                     l1501 0487                     l1421 03BA  
                   l1413 03A7                     l1405 0398                     l1341 0F19  
                   l1333 0EFD                     l2053 06EA                     l2045 06CA  
                   l2037 06AC                     l2029 0693                     l2061 0F50  
                   l1511 04EF                     l1503 0490                     l1431 03D3  
                   l1423 03BB                     l1415 03A8                     l1407 039E  
                   l1343 0F1E                     l1335 0EFF                     l2055 06F0  
                   l2047 06DB                     l2039 06B2                     l2071 0F6A  
                   l2063 0F55                     l1513 04F4                     l1505 0495  
                   l1441 03DD                     l1433 03D5                     l1417 03AD  
                   l1425 03BD                     l1409 039F                     l1337 0F06  
                   l1601 005C                     l2057 06F8                     l2049 06DD  
                   l2073 0F6F                     l2065 0F5B                     l1531 053C  
                   l1523 0527                     l1507 04AB                     l1515 0503  
                   l1451 03E7                     l1443 03DF                     l1435 03D7  
                   l1427 03CB                     l1419 03B2                     l1339 0F0A  
                   l1611 0071                     l1603 005D                     l2059 06FD  
                   l2075 0F73                     l2067 0F60                     l1541 054A  
                   l1533 053E                     l1525 0530                     l1517 0519  
                   l1509 04E9                     l1453 03E9                     l1445 03E1  
                   l1437 03D9                     l1429 03CF                     l1461 03F1  
                   l1701 033B                     l1621 008C                     l1613 0079  
                   l1605 0062                     l2077 0F79                     l2069 0F65  
                   l1551 0561                     l1543 054E                     l1535 0543  
                   l1527 0534                     l1519 051E                     l1471 042E  
                   l1463 03F2                     l1455 03EB                     l1447 03E3  
                   l1439 03DB                     l1391 0378                     l1383 036A  
                   l1711 0358                     l1703 0345                     l1631 0108  
                   l1623 009A                     l1615 007E                     l1607 0067  
                   l2079 0F7E                     l1561 059F                     l1553 056F  
                   l1545 0554                     l1529 0539                     l1537 0545  
                   l1481 044C                     l1473 0432                     l1465 0409  
                   l1457 03ED                     l1449 03E5                     l1393 037D  
                   l1385 036F                     l1713 0361                     l1705 0347  
                   l1641 0174                     l1633 0124                     l1625 00A7  
                   l1617 0083                     l1609 006F                     l1801 0F38  
                   l1571 05B3                     l1563 05A7                     l1555 0573  
                   l1491 0475                     l1539 0549                     l1483 0451  
                   l1475 0433                     l1467 0425                     l1459 03EF  
                   l1395 0382                     l1387 0373                     l1707 0353  
                   l1651 01FE                     l1643 0182                     l1635 0140  
                   l1627 00C2                     l1811 0F45                     l1803 0F3B  
                   l1573 05BC                     l1565 05AC                     l1557 0591  
                   l1549 055C                     l1493 0479                     l1477 043C  
                   l1469 042C                     l1397 038A                     l1389 0377  
                   l1709 0357                     l1661 028E                     l1653 020C  
                   l1645 019F                     l1637 0149                     l1629 00DE  
                   l1581 002E                     l1813 0F46                     l1805 0F3E  
                   l1821 0EB7                     l1575 05C0                     l1567 05AD  
                   l1559 059A                     l1495 0480                     l1487 045A  
                   l1479 0440                     l1399 038B                     l1671 02B3  
                   l1663 029C                     l1655 0237                     l1647 01B6  
                   l1639 0157                     l1591 0045                     l1583 0032  
                   l1815 0F47                     l1807 0F41                     l1823 0EBD  
                   l1831 0E7D                     l1569 05B1                     l1497 0482  
                   l1489 0471                     l1681 02D6                     l1665 02A5  
                   l1673 02B9                     l1657 025D                     l1649 01D3  
                   l1593 0047                     l1585 0033                     l1577 0025  
                   l1817 0F4A                     l1809 0F42                     l1825 0EC5  
                   l1841 0E8C                     l1833 0E80                     l1499 0486  
                   l1691 02F5                     l1675 02BD                     l1667 02A9  
                   l1659 0285                     l1595 004F                     l1587 0038  
                   l1579 002A                     l1827 0EC7                     l1819 0EB4  
                   l1843 0E8E                     l1835 0E82                     l1693 030E  
                   l1685 02DE                     l1677 02BE                     l1669 02AA  
                   l1597 0054                     l1589 003D                     l1941 0FBA  
                   l1933 0F9C                     l1781 0EE4                     l1829 0ECA  
                   l1837 0E86                     l1845 0E6E                     l1687 02E3  
                   l1695 0314                     l1679 02C2                     l1599 0058  
                   l1943 0FBE                     l1951 0FD8                     l1935 0FAF  
                   l1927 0F88                     l1775 0E61                     l1791 0F29  
                   l1783 0EF0                     l1839 0E8B                     l1847 0E75  
                   l1697 0321                     l1689 02F1                     l1961 0FF4  
                   l1937 0FB0                     l1929 0F93                     l1793 0F2C  
                   l1785 0EF6                     l1777 0ED4                     l1849 0E79  
                   l1699 032C                     l1939 0FB8                     l1971 05EE  
                   l1963 05C5                     l1795 0F2F                     l1787 0F23  
                   l1779 0EDA                     l1957 0FDF                     l1949 0FC6  
                   l1981 060E                     l1965 05CA                     l1797 0F32  
                   l1789 0F26                     ?_map 0070                     l1959 0FEF  
                   l1991 063F                     l1983 0612                     l1975 05F7  
                   l1967 05CE                     l1799 0F35                     l1993 0649  
                   l1985 0620                     l1977 05FA                     l1969 05DE  
                   l1995 0653                     l1987 0630                     l1979 0607  
                   l1997 0669                     l1989 063B                     l1999 066E  
                   _ADIF 0066                     ?_isr 0070                     u2001 021B  
                   u2010 0243                     u2002 0222                     u2003 0229  
                   u2100 02C2                     u2101 02C1                     u2021 024F  
                   u1230 0F0A                     u2110 02D6                     u2030 026B  
                   u2022 0256                     u1231 0F09                     u2111 02D5  
                   u2023 025D                     u2015 023E                     u1400 03A7  
                   u2120 02DD                     u1401 03A6                     u2121 02DC  
                   u2041 0277                     u1410 03AD                     u1250 0F1E  
                   u2130 02E3                     u2042 027E                     u1411 03AC  
                   u1251 0F1D                     u2131 02E2                     u2043 0285  
                   u2035 0266                     u1420 03B2                     u2140 02F5  
                   u1421 03B1                     u1245 0F11                     u2141 02F4  
                   u1510 0448                     u1430 03CB                     u2150 0304  
                   u2070 02A9                     u1511 0447                     u1431 03CA  
                   u2071 02A8                     u2055 0287                     u1520 044C  
                   u1440 03CF                     u1360 0377                     u2160 0321  
                   u1601 04C2                     u1521 044B                     u1505 0435  
                   u1441 03CE                     u1361 0376                     u2161 0320  
                   u2065 029E                     u1610 04D6                     u1602 04C3  
                   u1530 0451                     u1450 0409                     u1370 037D  
                   u2170 033B                     u2090 02BD                     u1611 04D7  
                   u1603 04C8                     u1531 0450                     u1451 0408  
                   u1371 037C                     u2171 033A                     u2155 02FF  
                   u2091 02BC                     u1700 054E                     u1620 04F4  
                   u1612 04DC                     u1604 04C9                     u1460 0414  
                   u1380 0382                     u2180 0357                     u2500 0FD7  
                   u1701 054D                     u1621 04F3                     u1613 04DD  
                   u1605 04CE                     u1541 0463                     u1461 0412  
                   u1381 0381                     u2181 0356                     u2165 031D  
                   u2085 02AC                     u2501 0FD6                     u1710 0554  
                   u1630 0519                     u1606 04CF                     u1550 0475  
                   u1542 046A                     u1470 0415                     u1390 039E  
                   u2510 0FDE                     u2350 0EDA                     u1711 0553  
                   u1631 0518                     u1551 0474                     u1543 0471  
                   u1455 0405                     u1391 039D                     u2175 0337  
                   u2511 0FDD                     u2351 0ED9                     u1800 05B1  
                   u1720 055B                     u1640 051E                     u1560 0479  
                   u1480 0425                     u2360 0EE4                     u1801 05B0  
                   u1721 055A                     u1641 051D                     u1561 0478  
                   u1481 0424                     u2361 0EE3                     u1810 05C0  
                   u1730 0561                     u1570 0486                     u1490 0432  
                   u2530 0FEF                     u2450 0F93                     u2610 062F  
                   u2370 0EF0                     u1811 05BF                     u1731 0560  
                   u1571 0485                     u1491 0431                     u2531 0FEE  
                   u2451 0F92                     u2611 062E                     u2371 0EEF  
                   u1740 0573                     u1660 0534                     u1820 0032  
                   u2540 0FF4                     u2460 0FAA                     u2380 0ECF  
                   u1741 0572                     u1661 0533                     u1901 00D0  
                   u1821 0031                     u2541 0FF3                     u2525 0FE1  
                   u2605 0621                     u2381 0ECE                     u1750 0582  
                   u1670 0539                     u1590 04AB                     u1902 00D7  
                   u1830 0038                     u2470 0FBE                     u2630 063F  
                   u2550 05CA                     u2710 068D                     u2390 0E93  
                   u1671 0538                     u1655 0529                     u1591 04AA  
                   u1911 00EC                     u1903 00DE                     u1831 0037  
                   u2471 0FBD                     u2631 063E                     u2551 05C9  
                   u2711 068C                     u2391 0E92                     u1760 0591  
                   u1680 0543                     u1912 00F3                     u1840 003D  
                   u2480 0FC5                     u2640 0645                     u2560 05CE  
                   u2720 06B9                     u1761 0590                     u1681 0542  
                   u1593 04A7                     u1585 0489                     u1921 0116  
                   u1913 00FA                     u1841 003C                     u2481 0FC4  
                   u2465 0FA5                     u2641 0644                     u2625 0634  
                   u2561 05CD                     u2705 070C                     u2721 06B8  
                   u1770 059A                     u1690 0549                     u1922 011D  
                   u1850 005C                     u2650 0649                     u2570 05EE  
                   u2730 06F7                     u1771 0599                     u1755 057D  
                   u1691 0548                     u1931 0132                     u1923 0124  
                   u1851 005B                     u2651 0648                     u2571 05ED  
                   u2731 06F6                     u1780 059F                     u1932 0139  
                   u1860 0062                     u2660 065E                     u1781 059E  
                   u1933 0140                     u1861 0061                     u1790 05AC  
                   u1870 0067                     u2670 066E                     u2590 060D  
                   u1791 05AB                     u1951 0166                     u1871 0066  
                   u2495 0FC7                     u2671 066D                     u2591 060C  
                   u2807 06EE                     u1952 016D                     u1880 007E  
                   u2680 0672                     u1961 0191                     u1953 0174  
                   u1945 0142                     u1881 007D                     u2681 0671  
                   u2665 0659                     u2585 05FF                     u2817 0701  
                   u1962 0198                     u1890 0083                     u1963 019F  
                   u1891 0082                     u2747 0F82                     u1981 01C5  
                   u2757 0F4C                     u1982 01CC                     u1991 01F0  
                   u1983 01D3                     u1975 01A1                     u2695 0793  
                   u2767 0684                     u1992 01F7                     u1993 01FE  
                   u2777 06A3                     u2787 06B0                     u2797 06E1  
                   i1l92 0EAD                     _PWM1 078C                     _TMR0 0001  
                   _cont 00A0                     _main 0F50                     btemp 007E  
                   start 000C                    ??_map 0060                    ??_isr 0070  
                  ?_PWM1 0070            ___fltol@sign1 0077          __end_of___fladd 05C2  
                  ?_main 0070          __end_of___flmul 036A          __end_of___fltol 1000  
                  _PORTA 0005                    _PORTC 0007                    _PORTD 0008  
                  _TRISC 0087                    _TRISD 0088                    _valDC 006C  
                  _setup 0E61                    _pulso 0068                    pclath 000A  
                  status 0003                    wtemp0 007E             __end_of_PWM1 07FF  
        __initialization 000F             __end_of_main 0F88                   ??_PWM1 0060  
                 ??_main 00A4                   _ADRESH 001E                   _ADRESL 009E  
                 _CCPR1L 0015                   _CCPR2L 001B                   ?_setup 0070  
                 _ANSELH 0189                   i1l1901 0EA9                   i1l1903 0EAB  
                 i1l1905 0EAC                   i1l1891 0E97                   i1l1893 0E9B  
                 i1l1895 0EA1                   i1l1897 0EA3                   i1l1899 0EA4  
                 u243_20 0E9B                   u243_21 0E9A                   u244_20 0EA1  
                 u244_21 0EA0                   _TMR2IF 0061                   _TMR2ON 0092  
       __end_of___xxtofl 067C                ??___fladd 004C                ??___flmul 0032  
              ??___fltol 005C                   _valDCH 006A                   _valDCL 0079  
           ?_setupINTOSC 0070         __end_of_setupADC 0F50         __end_of_setupPWM 0ED3  
                 saved_w 007E           _controlmotores 067C             ___xxtofl@arg 0026  
           ___xxtofl@exp 0025             ___xxtofl@val 0073  __end_of__initialization 0021  
             ___fltol@f1 0058           __pcstackCOMMON 0070            __end_of_setup 0E6E  
         _OPTION_REGbits 0081   __end_of_controlmotores 0705                  ??_setup 0073  
             __pbssBANK0 0068               __pbssBANK1 00A0        __end_of__Umul8_16 0F23  
             __pmaintext 0F50               __pintentry 0004                  _CCP1CON 0017  
                _ADC_RES 006E                  _ADC_led 00A2                ?___xxtofl 0073  
        ?_controlmotores 0070                ?_setupADC 0070                ?_setupPWM 0070  
                ___fladd 036A                  ___flmul 0025                  ___fltol 0F88  
              _ANSELbits 0188                  __ptext1 0E6E                  __ptext2 0E7D  
                __ptext3 0EB4                  __ptext4 0ED3                  __ptext5 0F23  
                __ptext6 0E61                  __ptext7 067C                  __ptext8 0705  
                __ptext9 078C                _T2CONbits 0012               ??___xxtofl 0020  
   end_of_initialization 0021        __end_of_setupPWM2 0E97        __end_of_setupTMR0 0E7D  
             ??_setupADC 0073               ??_setupPWM 0073                _PORTCbits 0007  
            ___fladd@grs 0057            ___xxtofl@sign 0024                _TRISAbits 0085  
              _TRISCbits 0087              ___flmul@grs 0038              _CCP1CONbits 0017  
            _CCP2CONbits 001D      start_initialization 000F              __end_of_map 078C  
            __end_of_isr 0EB4                __Umul8_16 0EFA         ??_controlmotores 0065  
              ___fladd@a 0048                ___fladd@b 0044                ___flmul@a 002E  
              ___flmul@b 002A              __pbssCOMMON 0079                ___latbits 0002  
          __pcstackBANK0 0020            __pcstackBANK1 00A4          setupINTOSC@IRCF 0073  
               ?___fladd 0044                 ?___flmul 002A                 ?___fltol 0058  
             ?__Umul8_16 0073        interrupt_function 0004                _setupTMR0 0E6E  
              _setupPWM2 0E7D               _ADCON0bits 001F               _ADCON1bits 009F  
          ??_setupINTOSC 0073               ?_setupTMR0 0070               ?_setupPWM2 0070  
            ??__Umul8_16 0075                 ___xxtofl 05C2                 __ptext10 05C2  
               __ptext11 0F88                 __ptext12 0025                 __ptext13 0EFA  
               __ptext14 036A                 __ptext15 0E97      __end_of_setupINTOSC 0EFA  
               _setupADC 0F23                 _setupPWM 0EB4               _INTCONbits 000B  
               intlevel1 0000               _OSCCONbits 008F              ??_setupTMR0 0073  
            ??_setupPWM2 0073   __Umul8_16@multiplicand 0073              _setupINTOSC 0ED3  
          ___fladd@signs 0054             ___fladd@aexp 0055             ___fladd@bexp 0056  
   __Umul8_16@multiplier 0024        __Umul8_16@product 0020  
